
main:	file format mach-o arm64

Disassembly of section __TEXT,__text:

0000000100003bdc <__ZN4core3ops8function6FnOnce40call_once$u7b$$u7b$vtable.shim$u7d$$u7d$17h2302589f704c504fE>:
100003bdc: ff 83 00 d1 	sub	sp, sp, #32
100003be0: fd 7b 01 a9 	stp	x29, x30, [sp, #16]
100003be4: fd 43 00 91 	add	x29, sp, #16
100003be8: 00 00 40 f9 	ldr	x0, [x0]
100003bec: 07 00 00 94 	bl	0x100003c08 <__ZN4core3ops8function6FnOnce9call_once17h2e2c4d000d5c7c6eE>
100003bf0: e0 0b 00 b9 	str	w0, [sp, #8]
100003bf4: 01 00 00 14 	b	0x100003bf8 <__ZN4core3ops8function6FnOnce40call_once$u7b$$u7b$vtable.shim$u7d$$u7d$17h2302589f704c504fE+0x1c>
100003bf8: e0 0b 40 b9 	ldr	w0, [sp, #8]
100003bfc: fd 7b 41 a9 	ldp	x29, x30, [sp, #16]
100003c00: ff 83 00 91 	add	sp, sp, #32
100003c04: c0 03 5f d6 	ret

0000000100003c08 <__ZN4core3ops8function6FnOnce9call_once17h2e2c4d000d5c7c6eE>:
100003c08: ff 03 01 d1 	sub	sp, sp, #64
100003c0c: fd 7b 03 a9 	stp	x29, x30, [sp, #48]
100003c10: fd c3 00 91 	add	x29, sp, #48
100003c14: e8 03 00 aa 	mov	x8, x0
100003c18: e0 43 00 91 	add	x0, sp, #16
100003c1c: e8 0b 00 f9 	str	x8, [sp, #16]
100003c20: 2f 00 00 94 	bl	0x100003cdc <__ZN3std2rt10lang_start28_$u7b$$u7b$closure$u7d$$u7d$17hf38a970a0a27efc5E>
100003c24: e0 0f 00 b9 	str	w0, [sp, #12]
100003c28: 06 00 00 14 	b	0x100003c40 <__ZN4core3ops8function6FnOnce9call_once17h2e2c4d000d5c7c6eE+0x38>
100003c2c: 06 00 00 14 	b	0x100003c44 <__ZN4core3ops8function6FnOnce9call_once17h2e2c4d000d5c7c6eE+0x3c>
100003c30: e8 03 01 aa 	mov	x8, x1
100003c34: a0 03 1f f8 	stur	x0, [x29, #-16]
100003c38: a8 83 1f b8 	stur	w8, [x29, #-8]
100003c3c: fc ff ff 17 	b	0x100003c2c <__ZN4core3ops8function6FnOnce9call_once17h2e2c4d000d5c7c6eE+0x24>
100003c40: 03 00 00 14 	b	0x100003c4c <__ZN4core3ops8function6FnOnce9call_once17h2e2c4d000d5c7c6eE+0x44>
100003c44: a0 03 5f f8 	ldur	x0, [x29, #-16]
100003c48: 6c bd 00 94 	bl	0x1000331f8 <_write+0x1000331f8>
100003c4c: e0 0f 40 b9 	ldr	w0, [sp, #12]
100003c50: fd 7b 43 a9 	ldp	x29, x30, [sp, #48]
100003c54: ff 03 01 91 	add	sp, sp, #64
100003c58: c0 03 5f d6 	ret

0000000100003c5c <__ZN4core3ops8function6FnOnce9call_once17ha63c05fb2e5fbdfbE>:
100003c5c: ff 83 00 d1 	sub	sp, sp, #32
100003c60: fd 7b 01 a9 	stp	x29, x30, [sp, #16]
100003c64: fd 43 00 91 	add	x29, sp, #16
100003c68: 00 00 3f d6 	blr	x0
100003c6c: 01 00 00 14 	b	0x100003c70 <__ZN4core3ops8function6FnOnce9call_once17ha63c05fb2e5fbdfbE+0x14>
100003c70: fd 7b 41 a9 	ldp	x29, x30, [sp, #16]
100003c74: ff 83 00 91 	add	sp, sp, #32
100003c78: c0 03 5f d6 	ret

0000000100003c7c <__ZN4core3ptr85drop_in_place$LT$std..rt..lang_start$LT$$LP$$RP$$GT$..$u7b$$u7b$closure$u7d$$u7d$$GT$17h9f4cfb75516b9a98E>:
100003c7c: c0 03 5f d6 	ret

0000000100003c80 <__ZN54_$LT$$LP$$RP$$u20$as$u20$std..process..Termination$GT$6report17h7a5977ed740cfb14E>:
100003c80: 00 00 80 52 	mov	w0, #0
100003c84: c0 03 5f d6 	ret

0000000100003c88 <__ZN3std2rt10lang_start17hb9f01d013cd61da6E>:
100003c88: ff c3 00 d1 	sub	sp, sp, #48
100003c8c: fd 7b 02 a9 	stp	x29, x30, [sp, #32]
100003c90: fd 83 00 91 	add	x29, sp, #32
100003c94: e8 03 00 aa 	mov	x8, x0
100003c98: e1 03 00 f9 	str	x1, [sp]
100003c9c: e0 03 02 aa 	mov	x0, x2
100003ca0: e2 03 40 f9 	ldr	x2, [sp]
100003ca4: e0 07 00 f9 	str	x0, [sp, #8]
100003ca8: e4 03 03 aa 	mov	x4, x3
100003cac: e3 07 40 f9 	ldr	x3, [sp, #8]
100003cb0: a0 23 00 d1 	sub	x0, x29, #8
100003cb4: a8 83 1f f8 	stur	x8, [x29, #-8]
100003cb8: e1 01 00 b0 	adrp	x1, 0x100040000 <__ZN4core3fmt9Arguments6new_v117h33d9bcdde3d87104E+0x24>
100003cbc: 21 00 08 91 	add	x1, x1, #512
100003cc0: 40 4c 00 94 	bl	0x100016dc0 <__ZN3std2rt19lang_start_internal17h94fa211da9d06d56E>
100003cc4: e0 0b 00 f9 	str	x0, [sp, #16]
100003cc8: 01 00 00 14 	b	0x100003ccc <__ZN3std2rt10lang_start17hb9f01d013cd61da6E+0x44>
100003ccc: e0 0b 40 f9 	ldr	x0, [sp, #16]
100003cd0: fd 7b 42 a9 	ldp	x29, x30, [sp, #32]
100003cd4: ff c3 00 91 	add	sp, sp, #48
100003cd8: c0 03 5f d6 	ret

0000000100003cdc <__ZN3std2rt10lang_start28_$u7b$$u7b$closure$u7d$$u7d$17hf38a970a0a27efc5E>:
100003cdc: ff 83 00 d1 	sub	sp, sp, #32
100003ce0: fd 7b 01 a9 	stp	x29, x30, [sp, #16]
100003ce4: fd 43 00 91 	add	x29, sp, #16
100003ce8: 00 00 40 f9 	ldr	x0, [x0]
100003cec: 60 00 00 94 	bl	0x100003e6c <__ZN3std10sys_common9backtrace28__rust_begin_short_backtrace17h308238a4f30606faE>
100003cf0: 01 00 00 14 	b	0x100003cf4 <__ZN3std2rt10lang_start28_$u7b$$u7b$closure$u7d$$u7d$17hf38a970a0a27efc5E+0x18>
100003cf4: e3 ff ff 97 	bl	0x100003c80 <__ZN54_$LT$$LP$$RP$$u20$as$u20$std..process..Termination$GT$6report17h7a5977ed740cfb14E>
100003cf8: a0 f3 1f 38 	sturb	w0, [x29, #-1]
100003cfc: 01 00 00 14 	b	0x100003d00 <__ZN3std2rt10lang_start28_$u7b$$u7b$closure$u7d$$u7d$17hf38a970a0a27efc5E+0x24>
100003d00: a0 f3 5f 38 	ldurb	w0, [x29, #-1]
100003d04: fd 7b 41 a9 	ldp	x29, x30, [sp, #16]
100003d08: ff 83 00 91 	add	sp, sp, #32
100003d0c: c0 03 5f d6 	ret

0000000100003d10 <__ZN4main4main17hdb9709a0432d4826E>:
100003d10: ff 03 01 d1 	sub	sp, sp, #64
100003d14: fd 7b 03 a9 	stp	x29, x30, [sp, #48]
100003d18: fd c3 00 91 	add	x29, sp, #48
100003d1c: e8 03 00 91 	mov	x8, sp
100003d20: e0 01 00 b0 	adrp	x0, 0x100040000 <__ZN4core3fmt9Arguments6new_v117h33d9bcdde3d87104E+0x8c>
100003d24: 00 c0 08 91 	add	x0, x0, #560
100003d28: 29 00 80 52 	mov	w9, #1
100003d2c: e1 03 09 aa 	mov	x1, x9
100003d30: 82 01 00 b0 	adrp	x2, 0x100034000 <__ZN4core3fmt9Arguments6new_v117h33d9bcdde3d87104E+0x6c>
100003d34: 42 c0 0d 91 	add	x2, x2, #880
100003d38: 03 00 80 d2 	mov	x3, #0
100003d3c: 13 00 00 94 	bl	0x100003d88 <__ZN4core3fmt9Arguments6new_v117h33d9bcdde3d87104E>
100003d40: 01 00 00 14 	b	0x100003d44 <__ZN4main4main17hdb9709a0432d4826E+0x34>
100003d44: e0 03 00 91 	mov	x0, sp
100003d48: 31 53 00 94 	bl	0x100018a0c <__ZN3std2io5stdio6_print17h3371b6390e5e5909E>
100003d4c: 01 00 00 14 	b	0x100003d50 <__ZN4main4main17hdb9709a0432d4826E+0x40>
100003d50: fd 7b 43 a9 	ldp	x29, x30, [sp, #48]
100003d54: ff 03 01 91 	add	sp, sp, #64
100003d58: c0 03 5f d6 	ret

0000000100003d5c <_main>:
100003d5c: fd 7b bf a9 	stp	x29, x30, [sp, #-16]!
100003d60: fd 03 00 91 	mov	x29, sp
100003d64: e2 03 01 aa 	mov	x2, x1
100003d68: e8 03 00 aa 	mov	x8, x0
100003d6c: 01 7d 40 93 	sxtw	x1, w8
100003d70: 00 00 00 90 	adrp	x0, 0x100003000 <_main+0x14>
100003d74: 00 40 34 91 	add	x0, x0, #3344
100003d78: 43 00 80 52 	mov	w3, #2
100003d7c: c3 ff ff 97 	bl	0x100003c88 <__ZN3std2rt10lang_start17hb9f01d013cd61da6E>
100003d80: fd 7b c1 a8 	ldp	x29, x30, [sp], #16
100003d84: c0 03 5f d6 	ret

0000000100003d88 <__ZN4core3fmt9Arguments6new_v117h33d9bcdde3d87104E>:
100003d88: ff 03 02 d1 	sub	sp, sp, #128
100003d8c: fd 7b 07 a9 	stp	x29, x30, [sp, #112]
100003d90: fd c3 01 91 	add	x29, sp, #112
100003d94: e8 03 00 f9 	str	x8, [sp]
100003d98: e0 07 00 f9 	str	x0, [sp, #8]
100003d9c: e1 0b 00 f9 	str	x1, [sp, #16]
100003da0: e2 0f 00 f9 	str	x2, [sp, #24]
100003da4: e3 13 00 f9 	str	x3, [sp, #32]
100003da8: 28 00 03 eb 	subs	x8, x1, x3
100003dac: e8 27 9f 1a 	cset	w8, lo
100003db0: 48 01 00 37 	tbnz	w8, #0, 0x100003dd8 <__ZN4core3fmt9Arguments6new_v117h33d9bcdde3d87104E+0x50>
100003db4: 01 00 00 14 	b	0x100003db8 <__ZN4core3fmt9Arguments6new_v117h33d9bcdde3d87104E+0x30>
100003db8: e8 0b 40 f9 	ldr	x8, [sp, #16]
100003dbc: e9 13 40 f9 	ldr	x9, [sp, #32]
100003dc0: 29 05 00 91 	add	x9, x9, #1
100003dc4: 08 01 09 eb 	subs	x8, x8, x9
100003dc8: e8 97 9f 1a 	cset	w8, hi
100003dcc: 08 01 00 12 	and	w8, w8, #0x1
100003dd0: e8 bf 00 39 	strb	w8, [sp, #47]
100003dd4: 04 00 00 14 	b	0x100003de4 <__ZN4core3fmt9Arguments6new_v117h33d9bcdde3d87104E+0x5c>
100003dd8: 28 00 80 52 	mov	w8, #1
100003ddc: e8 bf 00 39 	strb	w8, [sp, #47]
100003de0: 01 00 00 14 	b	0x100003de4 <__ZN4core3fmt9Arguments6new_v117h33d9bcdde3d87104E+0x5c>
100003de4: e8 bf 40 39 	ldrb	w8, [sp, #47]
100003de8: 68 02 00 37 	tbnz	w8, #0, 0x100003e34 <__ZN4core3fmt9Arguments6new_v117h33d9bcdde3d87104E+0xac>
100003dec: 01 00 00 14 	b	0x100003df0 <__ZN4core3fmt9Arguments6new_v117h33d9bcdde3d87104E+0x68>
100003df0: e8 13 40 f9 	ldr	x8, [sp, #32]
100003df4: e9 03 40 f9 	ldr	x9, [sp]
100003df8: ea 0f 40 f9 	ldr	x10, [sp, #24]
100003dfc: eb 0b 40 f9 	ldr	x11, [sp, #16]
100003e00: ec 07 40 f9 	ldr	x12, [sp, #8]
100003e04: bf 03 1f f8 	stur	xzr, [x29, #-16]
100003e08: 2c 01 00 f9 	str	x12, [x9]
100003e0c: 2b 05 00 f9 	str	x11, [x9, #8]
100003e10: ac 03 5f f8 	ldur	x12, [x29, #-16]
100003e14: ab 83 5f f8 	ldur	x11, [x29, #-8]
100003e18: 2c 09 00 f9 	str	x12, [x9, #16]
100003e1c: 2b 0d 00 f9 	str	x11, [x9, #24]
100003e20: 2a 11 00 f9 	str	x10, [x9, #32]
100003e24: 28 15 00 f9 	str	x8, [x9, #40]
100003e28: fd 7b 47 a9 	ldp	x29, x30, [sp, #112]
100003e2c: ff 03 02 91 	add	sp, sp, #128
100003e30: c0 03 5f d6 	ret
100003e34: e8 c3 00 91 	add	x8, sp, #48
100003e38: e0 01 00 b0 	adrp	x0, 0x100040000 <__ZN42_$LT$$RF$T$u20$as$u20$core..fmt..Debug$GT$3fmt17h331570ae8f9c1b4eE+0x4>
100003e3c: 00 00 09 91 	add	x0, x0, #576
100003e40: 29 00 80 52 	mov	w9, #1
100003e44: e1 03 09 aa 	mov	x1, x9
100003e48: 82 01 00 b0 	adrp	x2, 0x100034000 <__ZN36_$LT$T$u20$as$u20$core..any..Any$GT$7type_id17hfad37f1d2ced6785E>
100003e4c: 42 20 0e 91 	add	x2, x2, #904
100003e50: 03 00 80 d2 	mov	x3, #0
100003e54: cd ff ff 97 	bl	0x100003d88 <__ZN4core3fmt9Arguments6new_v117h33d9bcdde3d87104E>
100003e58: 01 00 00 14 	b	0x100003e5c <__ZN4core3fmt9Arguments6new_v117h33d9bcdde3d87104E+0xd4>
100003e5c: e0 c3 00 91 	add	x0, sp, #48
100003e60: e1 01 00 b0 	adrp	x1, 0x100040000 <__ZN42_$LT$$RF$T$u20$as$u20$core..fmt..Debug$GT$3fmt17h331570ae8f9c1b4eE+0x2c>
100003e64: 21 40 09 91 	add	x1, x1, #592
100003e68: 8b bc 00 94 	bl	0x100033094 <__ZN4core9panicking9panic_fmt17ha46aa9af97eb193dE>

0000000100003e6c <__ZN3std10sys_common9backtrace28__rust_begin_short_backtrace17h308238a4f30606faE>:
100003e6c: ff c3 00 d1 	sub	sp, sp, #48
100003e70: fd 7b 02 a9 	stp	x29, x30, [sp, #32]
100003e74: fd 83 00 91 	add	x29, sp, #32
100003e78: 79 ff ff 97 	bl	0x100003c5c <__ZN4core3ops8function6FnOnce9call_once17ha63c05fb2e5fbdfbE>
100003e7c: 01 00 00 14 	b	0x100003e80 <__ZN3std10sys_common9backtrace28__rust_begin_short_backtrace17h308238a4f30606faE+0x14>
100003e80: e8 07 40 f9 	ldr	x8, [sp, #8]
100003e84: 01 00 00 14 	b	0x100003e88 <__ZN3std10sys_common9backtrace28__rust_begin_short_backtrace17h308238a4f30606faE+0x1c>
100003e88: fd 7b 42 a9 	ldp	x29, x30, [sp, #32]
100003e8c: ff c3 00 91 	add	sp, sp, #48
100003e90: c0 03 5f d6 	ret

0000000100003e94 <___rust_alloc>:
100003e94: 7a 5e 00 14 	b	0x10001b87c <___rdl_alloc>

0000000100003e98 <___rust_dealloc>:
100003e98: 94 5e 00 14 	b	0x10001b8e8 <___rdl_dealloc>

0000000100003e9c <___rust_realloc>:
100003e9c: 94 5e 00 14 	b	0x10001b8ec <___rdl_realloc>

0000000100003ea0 <___rust_alloc_error_handler>:
100003ea0: 56 9c 00 14 	b	0x10002aff8 <___rg_oom>

0000000100003ea4 <__ZN106_$LT$core..ops..range..Range$LT$usize$GT$$u20$as$u20$core..slice..index..SliceIndex$LT$$u5b$T$u5d$$GT$$GT$5index17h00a0682fdf835534E>:
100003ea4: fd 7b bf a9 	stp	x29, x30, [sp, #-16]!
100003ea8: fd 03 00 91 	mov	x29, sp
100003eac: 28 00 00 eb 	subs	x8, x1, x0
100003eb0: e3 00 00 54 	b.lo	0x100003ecc <__ZN106_$LT$core..ops..range..Range$LT$usize$GT$$u20$as$u20$core..slice..index..SliceIndex$LT$$u5b$T$u5d$$GT$$GT$5index17h00a0682fdf835534E+0x28>
100003eb4: 3f 00 03 eb 	cmp	x1, x3
100003eb8: e8 00 00 54 	b.hi	0x100003ed4 <__ZN106_$LT$core..ops..range..Range$LT$usize$GT$$u20$as$u20$core..slice..index..SliceIndex$LT$$u5b$T$u5d$$GT$$GT$5index17h00a0682fdf835534E+0x30>
100003ebc: 40 00 00 8b 	add	x0, x2, x0
100003ec0: e1 03 08 aa 	mov	x1, x8
100003ec4: fd 7b c1 a8 	ldp	x29, x30, [sp], #16
100003ec8: c0 03 5f d6 	ret
100003ecc: e2 03 04 aa 	mov	x2, x4
100003ed0: 9b bc 00 94 	bl	0x10003313c <__ZN4core5slice5index22slice_index_order_fail17he3be83252d5beb3cE>
100003ed4: e0 03 01 aa 	mov	x0, x1
100003ed8: e1 03 03 aa 	mov	x1, x3
100003edc: e2 03 04 aa 	mov	x2, x4
100003ee0: 94 bc 00 94 	bl	0x100033130 <__ZN4core5slice5index24slice_end_index_len_fail17h43cb976450df7ff7E>

0000000100003ee4 <__ZN36_$LT$T$u20$as$u20$core..any..Any$GT$7type_id17hcc32f1f3454376c2E>:
100003ee4: c0 be 8c d2 	mov	x0, #26102
100003ee8: e0 53 a9 f2 	movk	x0, #19103, lsl #16
100003eec: 20 1d ce f2 	movk	x0, #28905, lsl #32
100003ef0: e0 ad e8 f2 	movk	x0, #17775, lsl #48
100003ef4: c0 03 5f d6 	ret

0000000100003ef8 <__ZN36_$LT$T$u20$as$u20$core..any..Any$GT$7type_id17hd8996e7c0b6524a7E>:
100003ef8: a0 f7 9d d2 	mov	x0, #61373
100003efc: a0 4c b4 f2 	movk	x0, #41573, lsl #16
100003f00: 00 7d d6 f2 	movk	x0, #46056, lsl #32
100003f04: 20 c2 fa f2 	movk	x0, #54801, lsl #48
100003f08: c0 03 5f d6 	ret

0000000100003f0c <__ZN36_$LT$T$u20$as$u20$core..any..Any$GT$7type_id17hfad37f1d2ced6785E>:
100003f0c: 60 1d 99 d2 	mov	x0, #51435
100003f10: 80 d4 ac f2 	movk	x0, #26276, lsl #16
100003f14: e0 d8 d9 f2 	movk	x0, #52935, lsl #32
100003f18: 80 88 ee f2 	movk	x0, #29764, lsl #48
100003f1c: c0 03 5f d6 	ret

0000000100003f20 <__ZN42_$LT$$RF$T$u20$as$u20$core..fmt..Debug$GT$3fmt17h073edc337cd4833eE>:
100003f20: 00 00 40 f9 	ldr	x0, [x0]
100003f24: 27 64 00 14 	b	0x10001cfc0 <__ZN62_$LT$std..io..error..ErrorKind$u20$as$u20$core..fmt..Debug$GT$3fmt17hc3eba7d0b71e523bE>

0000000100003f28 <__ZN42_$LT$$RF$T$u20$as$u20$core..fmt..Debug$GT$3fmt17h331570ae8f9c1b4eE>:
100003f28: f4 4f be a9 	stp	x20, x19, [sp, #-32]!
100003f2c: fd 7b 01 a9 	stp	x29, x30, [sp, #16]
100003f30: fd 43 00 91 	add	x29, sp, #16
100003f34: f3 03 01 aa 	mov	x19, x1
100003f38: 14 00 40 f9 	ldr	x20, [x0]
100003f3c: e0 03 01 aa 	mov	x0, x1
100003f40: 4b a5 00 94 	bl	0x10002d46c <__ZN4core3fmt9Formatter15debug_lower_hex17h0b3573f95009b7faE>
100003f44: c0 00 00 36 	tbz	w0, #0, 0x100003f5c <__ZN42_$LT$$RF$T$u20$as$u20$core..fmt..Debug$GT$3fmt17h331570ae8f9c1b4eE+0x34>
100003f48: e0 03 14 aa 	mov	x0, x20
100003f4c: e1 03 13 aa 	mov	x1, x19
100003f50: fd 7b 41 a9 	ldp	x29, x30, [sp, #16]
100003f54: f4 4f c2 a8 	ldp	x20, x19, [sp], #32
100003f58: d4 b0 00 14 	b	0x1000302a8 <__ZN4core3fmt3num55_$LT$impl$u20$core..fmt..LowerHex$u20$for$u20$usize$GT$3fmt17h5315fe5a327ce5adE>
100003f5c: e0 03 13 aa 	mov	x0, x19
100003f60: 46 a5 00 94 	bl	0x10002d478 <__ZN4core3fmt9Formatter15debug_upper_hex17h7e8aa93be6645f9dE>
100003f64: c0 00 00 36 	tbz	w0, #0, 0x100003f7c <__ZN42_$LT$$RF$T$u20$as$u20$core..fmt..Debug$GT$3fmt17h331570ae8f9c1b4eE+0x54>
100003f68: e0 03 14 aa 	mov	x0, x20
100003f6c: e1 03 13 aa 	mov	x1, x19
100003f70: fd 7b 41 a9 	ldp	x29, x30, [sp, #16]
100003f74: f4 4f c2 a8 	ldp	x20, x19, [sp], #32
100003f78: f4 b0 00 14 	b	0x100030348 <__ZN4core3fmt3num55_$LT$impl$u20$core..fmt..UpperHex$u20$for$u20$usize$GT$3fmt17h84d6fa6aa1ce2458E>
100003f7c: e0 03 14 aa 	mov	x0, x20
100003f80: e1 03 13 aa 	mov	x1, x19
100003f84: fd 7b 41 a9 	ldp	x29, x30, [sp, #16]
100003f88: f4 4f c2 a8 	ldp	x20, x19, [sp], #32
100003f8c: e2 b2 00 14 	b	0x100030b14 <__ZN4core3fmt3num3imp54_$LT$impl$u20$core..fmt..Display$u20$for$u20$usize$GT$3fmt17haa9ddb1960b99485E>

0000000100003f90 <__ZN42_$LT$$RF$T$u20$as$u20$core..fmt..Debug$GT$3fmt17h4dc383822453a81eE>:
100003f90: f4 4f be a9 	stp	x20, x19, [sp, #-32]!
100003f94: fd 7b 01 a9 	stp	x29, x30, [sp, #16]
100003f98: fd 43 00 91 	add	x29, sp, #16
100003f9c: f3 03 01 aa 	mov	x19, x1
100003fa0: 14 00 40 f9 	ldr	x20, [x0]
100003fa4: e0 03 01 aa 	mov	x0, x1
100003fa8: 31 a5 00 94 	bl	0x10002d46c <__ZN4core3fmt9Formatter15debug_lower_hex17h0b3573f95009b7faE>
100003fac: c0 00 00 36 	tbz	w0, #0, 0x100003fc4 <__ZN42_$LT$$RF$T$u20$as$u20$core..fmt..Debug$GT$3fmt17h4dc383822453a81eE+0x34>
100003fb0: e0 03 14 aa 	mov	x0, x20
100003fb4: e1 03 13 aa 	mov	x1, x19
100003fb8: fd 7b 41 a9 	ldp	x29, x30, [sp, #16]
100003fbc: f4 4f c2 a8 	ldp	x20, x19, [sp], #32
100003fc0: 6a b0 00 14 	b	0x100030168 <__ZN4core3fmt3num53_$LT$impl$u20$core..fmt..LowerHex$u20$for$u20$i32$GT$3fmt17heb64e7d8c9d4e24cE>
100003fc4: e0 03 13 aa 	mov	x0, x19
100003fc8: 2c a5 00 94 	bl	0x10002d478 <__ZN4core3fmt9Formatter15debug_upper_hex17h7e8aa93be6645f9dE>
100003fcc: c0 00 00 36 	tbz	w0, #0, 0x100003fe4 <__ZN42_$LT$$RF$T$u20$as$u20$core..fmt..Debug$GT$3fmt17h4dc383822453a81eE+0x54>
100003fd0: e0 03 14 aa 	mov	x0, x20
100003fd4: e1 03 13 aa 	mov	x1, x19
100003fd8: fd 7b 41 a9 	ldp	x29, x30, [sp, #16]
100003fdc: f4 4f c2 a8 	ldp	x20, x19, [sp], #32
100003fe0: 8a b0 00 14 	b	0x100030208 <__ZN4core3fmt3num53_$LT$impl$u20$core..fmt..UpperHex$u20$for$u20$i32$GT$3fmt17hbf31f37055415ca4E>
100003fe4: e0 03 14 aa 	mov	x0, x20
100003fe8: e1 03 13 aa 	mov	x1, x19
100003fec: fd 7b 41 a9 	ldp	x29, x30, [sp, #16]
100003ff0: f4 4f c2 a8 	ldp	x20, x19, [sp], #32
100003ff4: 1b b2 00 14 	b	0x100030860 <__ZN4core3fmt3num3imp52_$LT$impl$u20$core..fmt..Display$u20$for$u20$i32$GT$3fmt17h6e7eb7ca2b47f657E>

0000000100003ff8 <__ZN42_$LT$$RF$T$u20$as$u20$core..fmt..Debug$GT$3fmt17h4f095994f76460f7E>:
100003ff8: 08 00 40 f9 	ldr	x8, [x0]
100003ffc: 00 01 40 f9 	ldr	x0, [x8]
100004000: c3 9d 00 14 	b	0x10002b70c <__ZN64_$LT$alloc..ffi..c_str..NulError$u20$as$u20$core..fmt..Debug$GT$3fmt17h6b9a73cf03a92fb6E>

0000000100004004 <__ZN42_$LT$$RF$T$u20$as$u20$core..fmt..Debug$GT$3fmt17h627a11775ef25ad6E>:
100004004: 08 00 40 f9 	ldr	x8, [x0]
100004008: 00 21 40 a9 	ldp	x0, x8, [x8]
10000400c: 02 0d 40 f9 	ldr	x2, [x8, #24]
100004010: 40 00 1f d6 	br	x2

0000000100004014 <__ZN42_$LT$$RF$T$u20$as$u20$core..fmt..Debug$GT$3fmt17h9c41f0e20c202afbE>:
100004014: e2 03 01 aa 	mov	x2, x1
100004018: 08 04 40 a9 	ldp	x8, x1, [x0]
10000401c: e0 03 08 aa 	mov	x0, x8
100004020: 0e a6 00 14 	b	0x10002d858 <__ZN40_$LT$str$u20$as$u20$core..fmt..Debug$GT$3fmt17h107406a9ffe08118E>

0000000100004024 <__ZN42_$LT$$RF$T$u20$as$u20$core..fmt..Debug$GT$3fmt17hcadff4b827c98fa3E>:
100004024: e0 03 01 aa 	mov	x0, x1
100004028: e1 47 18 70 	adr	x1, #198911
10000402c: 1f 20 03 d5 	nop
100004030: 42 00 80 52 	mov	w2, #2
100004034: d9 a3 00 14 	b	0x10002cf98 <__ZN4core3fmt9Formatter3pad17h7b66e6952b5dbae1E>

0000000100004038 <__ZN44_$LT$$RF$T$u20$as$u20$core..fmt..Display$GT$3fmt17h33b93b451b4ab760E>:
100004038: 00 00 40 f9 	ldr	x0, [x0]
10000403c: bc 9e 00 14 	b	0x10002bb2c <__ZN70_$LT$core..panic..location..Location$u20$as$u20$core..fmt..Display$GT$3fmt17h637eea7e672c0086E>

0000000100004040 <__ZN44_$LT$$RF$T$u20$as$u20$core..fmt..Display$GT$3fmt17hff3d3dd7f5e33070E>:
100004040: e2 03 01 aa 	mov	x2, x1
100004044: 08 04 40 a9 	ldp	x8, x1, [x0]
100004048: e0 03 08 aa 	mov	x0, x8
10000404c: 21 a7 00 14 	b	0x10002dcd0 <__ZN42_$LT$str$u20$as$u20$core..fmt..Display$GT$3fmt17h40e79c8754fb5976E>

0000000100004050 <__ZN4core3fmt3num50_$LT$impl$u20$core..fmt..Debug$u20$for$u20$i32$GT$3fmt17hfa59a044aa15f3b4E>:
100004050: f4 4f be a9 	stp	x20, x19, [sp, #-32]!
100004054: fd 7b 01 a9 	stp	x29, x30, [sp, #16]
100004058: fd 43 00 91 	add	x29, sp, #16
10000405c: f3 03 01 aa 	mov	x19, x1
100004060: f4 03 00 aa 	mov	x20, x0
100004064: e0 03 01 aa 	mov	x0, x1
100004068: 01 a5 00 94 	bl	0x10002d46c <__ZN4core3fmt9Formatter15debug_lower_hex17h0b3573f95009b7faE>
10000406c: c0 00 00 36 	tbz	w0, #0, 0x100004084 <__ZN4core3fmt3num50_$LT$impl$u20$core..fmt..Debug$u20$for$u20$i32$GT$3fmt17hfa59a044aa15f3b4E+0x34>
100004070: e0 03 14 aa 	mov	x0, x20
100004074: e1 03 13 aa 	mov	x1, x19
100004078: fd 7b 41 a9 	ldp	x29, x30, [sp, #16]
10000407c: f4 4f c2 a8 	ldp	x20, x19, [sp], #32
100004080: 3a b0 00 14 	b	0x100030168 <__ZN4core3fmt3num53_$LT$impl$u20$core..fmt..LowerHex$u20$for$u20$i32$GT$3fmt17heb64e7d8c9d4e24cE>
100004084: e0 03 13 aa 	mov	x0, x19
100004088: fc a4 00 94 	bl	0x10002d478 <__ZN4core3fmt9Formatter15debug_upper_hex17h7e8aa93be6645f9dE>
10000408c: c0 00 00 36 	tbz	w0, #0, 0x1000040a4 <__ZN4core3fmt3num50_$LT$impl$u20$core..fmt..Debug$u20$for$u20$i32$GT$3fmt17hfa59a044aa15f3b4E+0x54>
100004090: e0 03 14 aa 	mov	x0, x20
100004094: e1 03 13 aa 	mov	x1, x19
100004098: fd 7b 41 a9 	ldp	x29, x30, [sp, #16]
10000409c: f4 4f c2 a8 	ldp	x20, x19, [sp], #32
1000040a0: 5a b0 00 14 	b	0x100030208 <__ZN4core3fmt3num53_$LT$impl$u20$core..fmt..UpperHex$u20$for$u20$i32$GT$3fmt17hbf31f37055415ca4E>
1000040a4: e0 03 14 aa 	mov	x0, x20
1000040a8: e1 03 13 aa 	mov	x1, x19
1000040ac: fd 7b 41 a9 	ldp	x29, x30, [sp, #16]
1000040b0: f4 4f c2 a8 	ldp	x20, x19, [sp], #32
1000040b4: eb b1 00 14 	b	0x100030860 <__ZN4core3fmt3num3imp52_$LT$impl$u20$core..fmt..Display$u20$for$u20$i32$GT$3fmt17h6e7eb7ca2b47f657E>

00000001000040b8 <__ZN4core3fmt5Write10write_char17h6274a182763f1803E>:
1000040b8: ff 03 01 d1 	sub	sp, sp, #64
1000040bc: f6 57 01 a9 	stp	x22, x21, [sp, #16]
1000040c0: f4 4f 02 a9 	stp	x20, x19, [sp, #32]
1000040c4: fd 7b 03 a9 	stp	x29, x30, [sp, #48]
1000040c8: fd c3 00 91 	add	x29, sp, #48
1000040cc: ff 0f 00 b9 	str	wzr, [sp, #12]
1000040d0: 3f 00 02 71 	cmp	w1, #128
1000040d4: 82 00 00 54 	b.hs	0x1000040e4 <__ZN4core3fmt5Write10write_char17h6274a182763f1803E+0x2c>
1000040d8: e1 33 00 39 	strb	w1, [sp, #12]
1000040dc: 33 00 80 52 	mov	w19, #1
1000040e0: 25 00 00 14 	b	0x100004174 <__ZN4core3fmt5Write10write_char17h6274a182763f1803E+0xbc>
1000040e4: 3f 00 20 71 	cmp	w1, #2048
1000040e8: 22 01 00 54 	b.hs	0x10000410c <__ZN4core3fmt5Write10write_char17h6274a182763f1803E+0x54>
1000040ec: 28 7c 06 53 	lsr	w8, w1, #6
1000040f0: 08 05 1a 32 	orr	w8, w8, #0xc0
1000040f4: e8 33 00 39 	strb	w8, [sp, #12]
1000040f8: 08 10 80 52 	mov	w8, #128
1000040fc: 28 14 00 33 	bfxil	w8, w1, #0, #6
100004100: e8 37 00 39 	strb	w8, [sp, #13]
100004104: 53 00 80 52 	mov	w19, #2
100004108: 1b 00 00 14 	b	0x100004174 <__ZN4core3fmt5Write10write_char17h6274a182763f1803E+0xbc>
10000410c: 3f 40 40 71 	cmp	w1, #16, lsl #12        ; =65536
100004110: 82 01 00 54 	b.hs	0x100004140 <__ZN4core3fmt5Write10write_char17h6274a182763f1803E+0x88>
100004114: 28 7c 0c 53 	lsr	w8, w1, #12
100004118: 08 09 1b 32 	orr	w8, w8, #0xe0
10000411c: e8 33 00 39 	strb	w8, [sp, #12]
100004120: 08 10 80 52 	mov	w8, #128
100004124: 09 10 80 52 	mov	w9, #128
100004128: 29 2c 06 33 	bfxil	w9, w1, #6, #6
10000412c: e9 37 00 39 	strb	w9, [sp, #13]
100004130: 28 14 00 33 	bfxil	w8, w1, #0, #6
100004134: e8 3b 00 39 	strb	w8, [sp, #14]
100004138: 73 00 80 52 	mov	w19, #3
10000413c: 0e 00 00 14 	b	0x100004174 <__ZN4core3fmt5Write10write_char17h6274a182763f1803E+0xbc>
100004140: 08 1e 80 52 	mov	w8, #240
100004144: 28 50 12 33 	bfxil	w8, w1, #18, #3
100004148: e8 33 00 39 	strb	w8, [sp, #12]
10000414c: 08 10 80 52 	mov	w8, #128
100004150: 09 10 80 52 	mov	w9, #128
100004154: 29 44 0c 33 	bfxil	w9, w1, #12, #6
100004158: e9 37 00 39 	strb	w9, [sp, #13]
10000415c: 09 10 80 52 	mov	w9, #128
100004160: 29 2c 06 33 	bfxil	w9, w1, #6, #6
100004164: e9 3b 00 39 	strb	w9, [sp, #14]
100004168: 28 14 00 33 	bfxil	w8, w1, #0, #6
10000416c: e8 3f 00 39 	strb	w8, [sp, #15]
100004170: 93 00 80 52 	mov	w19, #4
100004174: 14 00 40 f9 	ldr	x20, [x0]
100004178: 88 d6 40 a9 	ldp	x8, x21, [x20, #8]
10000417c: 08 01 15 cb 	sub	x8, x8, x21
100004180: 1f 01 13 eb 	cmp	x8, x19
100004184: c3 01 00 54 	b.lo	0x1000041bc <__ZN4core3fmt5Write10write_char17h6274a182763f1803E+0x104>
100004188: 88 02 40 f9 	ldr	x8, [x20]
10000418c: 00 01 15 8b 	add	x0, x8, x21
100004190: e1 33 00 91 	add	x1, sp, #12
100004194: e2 03 13 aa 	mov	x2, x19
100004198: 54 bc 00 94 	bl	0x1000332e8 <_write+0x1000332e8>
10000419c: a8 02 13 8b 	add	x8, x21, x19
1000041a0: 88 0a 00 f9 	str	x8, [x20, #16]
1000041a4: 00 00 80 52 	mov	w0, #0
1000041a8: fd 7b 43 a9 	ldp	x29, x30, [sp, #48]
1000041ac: f4 4f 42 a9 	ldp	x20, x19, [sp, #32]
1000041b0: f6 57 41 a9 	ldp	x22, x21, [sp, #16]
1000041b4: ff 03 01 91 	add	sp, sp, #64
1000041b8: c0 03 5f d6 	ret
1000041bc: e0 03 14 aa 	mov	x0, x20
1000041c0: e1 03 15 aa 	mov	x1, x21
1000041c4: e2 03 13 aa 	mov	x2, x19
1000041c8: 32 b9 00 94 	bl	0x100032690 <__ZN5alloc7raw_vec19RawVec$LT$T$C$A$GT$7reserve21do_reserve_and_handle17hd2f100e40d646eedE>
1000041cc: 95 0a 40 f9 	ldr	x21, [x20, #16]
1000041d0: ee ff ff 17 	b	0x100004188 <__ZN4core3fmt5Write10write_char17h6274a182763f1803E+0xd0>

00000001000041d4 <__ZN4core3fmt5Write10write_char17h73d177c900c21493E>:
1000041d4: ff 83 00 d1 	sub	sp, sp, #32
1000041d8: fd 7b 01 a9 	stp	x29, x30, [sp, #16]
1000041dc: fd 43 00 91 	add	x29, sp, #16
1000041e0: bf c3 1f b8 	stur	wzr, [x29, #-4]
1000041e4: 3f 00 02 71 	cmp	w1, #128
1000041e8: 82 00 00 54 	b.hs	0x1000041f8 <__ZN4core3fmt5Write10write_char17h73d177c900c21493E+0x24>
1000041ec: a1 c3 1f 38 	sturb	w1, [x29, #-4]
1000041f0: 22 00 80 52 	mov	w2, #1
1000041f4: 25 00 00 14 	b	0x100004288 <__ZN4core3fmt5Write10write_char17h73d177c900c21493E+0xb4>
1000041f8: 3f 00 20 71 	cmp	w1, #2048
1000041fc: 22 01 00 54 	b.hs	0x100004220 <__ZN4core3fmt5Write10write_char17h73d177c900c21493E+0x4c>
100004200: 28 7c 06 53 	lsr	w8, w1, #6
100004204: 08 05 1a 32 	orr	w8, w8, #0xc0
100004208: a8 c3 1f 38 	sturb	w8, [x29, #-4]
10000420c: 08 10 80 52 	mov	w8, #128
100004210: 28 14 00 33 	bfxil	w8, w1, #0, #6
100004214: a8 d3 1f 38 	sturb	w8, [x29, #-3]
100004218: 42 00 80 52 	mov	w2, #2
10000421c: 1b 00 00 14 	b	0x100004288 <__ZN4core3fmt5Write10write_char17h73d177c900c21493E+0xb4>
100004220: 3f 40 40 71 	cmp	w1, #16, lsl #12        ; =65536
100004224: 82 01 00 54 	b.hs	0x100004254 <__ZN4core3fmt5Write10write_char17h73d177c900c21493E+0x80>
100004228: 28 7c 0c 53 	lsr	w8, w1, #12
10000422c: 08 09 1b 32 	orr	w8, w8, #0xe0
100004230: a8 c3 1f 38 	sturb	w8, [x29, #-4]
100004234: 08 10 80 52 	mov	w8, #128
100004238: 09 10 80 52 	mov	w9, #128
10000423c: 29 2c 06 33 	bfxil	w9, w1, #6, #6
100004240: a9 d3 1f 38 	sturb	w9, [x29, #-3]
100004244: 28 14 00 33 	bfxil	w8, w1, #0, #6
100004248: a8 e3 1f 38 	sturb	w8, [x29, #-2]
10000424c: 62 00 80 52 	mov	w2, #3
100004250: 0e 00 00 14 	b	0x100004288 <__ZN4core3fmt5Write10write_char17h73d177c900c21493E+0xb4>
100004254: 08 1e 80 52 	mov	w8, #240
100004258: 28 50 12 33 	bfxil	w8, w1, #18, #3
10000425c: a8 c3 1f 38 	sturb	w8, [x29, #-4]
100004260: 08 10 80 52 	mov	w8, #128
100004264: 09 10 80 52 	mov	w9, #128
100004268: 29 44 0c 33 	bfxil	w9, w1, #12, #6
10000426c: a9 d3 1f 38 	sturb	w9, [x29, #-3]
100004270: 09 10 80 52 	mov	w9, #128
100004274: 29 2c 06 33 	bfxil	w9, w1, #6, #6
100004278: a9 e3 1f 38 	sturb	w9, [x29, #-2]
10000427c: 28 14 00 33 	bfxil	w8, w1, #0, #6
100004280: a8 f3 1f 38 	sturb	w8, [x29, #-1]
100004284: 82 00 80 52 	mov	w2, #4
100004288: a1 13 00 d1 	sub	x1, x29, #4
10000428c: 77 53 00 94 	bl	0x100019068 <__ZN80_$LT$std..io..Write..write_fmt..Adapter$LT$T$GT$$u20$as$u20$core..fmt..Write$GT$9write_str17h7fe4ea101b20e3fdE>
100004290: fd 7b 41 a9 	ldp	x29, x30, [sp, #16]
100004294: ff 83 00 91 	add	sp, sp, #32
100004298: c0 03 5f d6 	ret

000000010000429c <__ZN4core3fmt5Write10write_char17h8d3ea3936aafd608E>:
10000429c: ff 83 00 d1 	sub	sp, sp, #32
1000042a0: fd 7b 01 a9 	stp	x29, x30, [sp, #16]
1000042a4: fd 43 00 91 	add	x29, sp, #16
1000042a8: bf c3 1f b8 	stur	wzr, [x29, #-4]
1000042ac: 3f 00 02 71 	cmp	w1, #128
1000042b0: 82 00 00 54 	b.hs	0x1000042c0 <__ZN4core3fmt5Write10write_char17h8d3ea3936aafd608E+0x24>
1000042b4: a1 c3 1f 38 	sturb	w1, [x29, #-4]
1000042b8: 22 00 80 52 	mov	w2, #1
1000042bc: 25 00 00 14 	b	0x100004350 <__ZN4core3fmt5Write10write_char17h8d3ea3936aafd608E+0xb4>
1000042c0: 3f 00 20 71 	cmp	w1, #2048
1000042c4: 22 01 00 54 	b.hs	0x1000042e8 <__ZN4core3fmt5Write10write_char17h8d3ea3936aafd608E+0x4c>
1000042c8: 28 7c 06 53 	lsr	w8, w1, #6
1000042cc: 08 05 1a 32 	orr	w8, w8, #0xc0
1000042d0: a8 c3 1f 38 	sturb	w8, [x29, #-4]
1000042d4: 08 10 80 52 	mov	w8, #128
1000042d8: 28 14 00 33 	bfxil	w8, w1, #0, #6
1000042dc: a8 d3 1f 38 	sturb	w8, [x29, #-3]
1000042e0: 42 00 80 52 	mov	w2, #2
1000042e4: 1b 00 00 14 	b	0x100004350 <__ZN4core3fmt5Write10write_char17h8d3ea3936aafd608E+0xb4>
1000042e8: 3f 40 40 71 	cmp	w1, #16, lsl #12        ; =65536
1000042ec: 82 01 00 54 	b.hs	0x10000431c <__ZN4core3fmt5Write10write_char17h8d3ea3936aafd608E+0x80>
1000042f0: 28 7c 0c 53 	lsr	w8, w1, #12
1000042f4: 08 09 1b 32 	orr	w8, w8, #0xe0
1000042f8: a8 c3 1f 38 	sturb	w8, [x29, #-4]
1000042fc: 08 10 80 52 	mov	w8, #128
100004300: 09 10 80 52 	mov	w9, #128
100004304: 29 2c 06 33 	bfxil	w9, w1, #6, #6
100004308: a9 d3 1f 38 	sturb	w9, [x29, #-3]
10000430c: 28 14 00 33 	bfxil	w8, w1, #0, #6
100004310: a8 e3 1f 38 	sturb	w8, [x29, #-2]
100004314: 62 00 80 52 	mov	w2, #3
100004318: 0e 00 00 14 	b	0x100004350 <__ZN4core3fmt5Write10write_char17h8d3ea3936aafd608E+0xb4>
10000431c: 08 1e 80 52 	mov	w8, #240
100004320: 28 50 12 33 	bfxil	w8, w1, #18, #3
100004324: a8 c3 1f 38 	sturb	w8, [x29, #-4]
100004328: 08 10 80 52 	mov	w8, #128
10000432c: 09 10 80 52 	mov	w9, #128
100004330: 29 44 0c 33 	bfxil	w9, w1, #12, #6
100004334: a9 d3 1f 38 	sturb	w9, [x29, #-3]
100004338: 09 10 80 52 	mov	w9, #128
10000433c: 29 2c 06 33 	bfxil	w9, w1, #6, #6
100004340: a9 e3 1f 38 	sturb	w9, [x29, #-2]
100004344: 28 14 00 33 	bfxil	w8, w1, #0, #6
100004348: a8 f3 1f 38 	sturb	w8, [x29, #-1]
10000434c: 82 00 80 52 	mov	w2, #4
100004350: a1 13 00 d1 	sub	x1, x29, #4
100004354: d5 52 00 94 	bl	0x100018ea8 <__ZN80_$LT$std..io..Write..write_fmt..Adapter$LT$T$GT$$u20$as$u20$core..fmt..Write$GT$9write_str17h099124ba230a2302E>
100004358: fd 7b 41 a9 	ldp	x29, x30, [sp, #16]
10000435c: ff 83 00 91 	add	sp, sp, #32
100004360: c0 03 5f d6 	ret

0000000100004364 <__ZN4core3fmt5Write9write_fmt17h15ed5c359375346bE>:
100004364: ff 43 01 d1 	sub	sp, sp, #80
100004368: fd 7b 04 a9 	stp	x29, x30, [sp, #64]
10000436c: fd 03 01 91 	add	x29, sp, #64
100004370: e0 07 00 f9 	str	x0, [sp, #8]
100004374: 20 04 40 ad 	ldp	q0, q1, [x1]
100004378: e0 87 00 ad 	stp	q0, q1, [sp, #16]
10000437c: 20 08 c0 3d 	ldr	q0, [x1, #32]
100004380: e0 0f 80 3d 	str	q0, [sp, #48]
100004384: 21 f7 1d 10 	adr	x1, #245476
100004388: 1f 20 03 d5 	nop
10000438c: e0 23 00 91 	add	x0, sp, #8
100004390: e2 43 00 91 	add	x2, sp, #16
100004394: 44 a1 00 94 	bl	0x10002c8a4 <__ZN4core3fmt5write17h91497fd291c8b104E>
100004398: fd 7b 44 a9 	ldp	x29, x30, [sp, #64]
10000439c: ff 43 01 91 	add	sp, sp, #80
1000043a0: c0 03 5f d6 	ret

00000001000043a4 <__ZN4core3fmt5Write9write_fmt17h7c19598b2f24dc0dE>:
1000043a4: ff 43 01 d1 	sub	sp, sp, #80
1000043a8: fd 7b 04 a9 	stp	x29, x30, [sp, #64]
1000043ac: fd 03 01 91 	add	x29, sp, #64
1000043b0: e0 07 00 f9 	str	x0, [sp, #8]
1000043b4: 20 04 40 ad 	ldp	q0, q1, [x1]
1000043b8: e0 87 00 ad 	stp	q0, q1, [sp, #16]
1000043bc: 20 08 c0 3d 	ldr	q0, [x1, #32]
1000043c0: e0 0f 80 3d 	str	q0, [sp, #48]
1000043c4: a1 f6 1d 10 	adr	x1, #245460
1000043c8: 1f 20 03 d5 	nop
1000043cc: e0 23 00 91 	add	x0, sp, #8
1000043d0: e2 43 00 91 	add	x2, sp, #16
1000043d4: 34 a1 00 94 	bl	0x10002c8a4 <__ZN4core3fmt5write17h91497fd291c8b104E>
1000043d8: fd 7b 44 a9 	ldp	x29, x30, [sp, #64]
1000043dc: ff 43 01 91 	add	sp, sp, #80
1000043e0: c0 03 5f d6 	ret

00000001000043e4 <__ZN4core3fmt5Write9write_fmt17hc1f5d54d9f5c4c0eE>:
1000043e4: ff 43 01 d1 	sub	sp, sp, #80
1000043e8: fd 7b 04 a9 	stp	x29, x30, [sp, #64]
1000043ec: fd 03 01 91 	add	x29, sp, #64
1000043f0: e0 07 00 f9 	str	x0, [sp, #8]
1000043f4: 20 04 40 ad 	ldp	q0, q1, [x1]
1000043f8: e0 87 00 ad 	stp	q0, q1, [sp, #16]
1000043fc: 20 08 c0 3d 	ldr	q0, [x1, #32]
100004400: e0 0f 80 3d 	str	q0, [sp, #48]
100004404: a1 f7 1d 10 	adr	x1, #245492
100004408: 1f 20 03 d5 	nop
10000440c: e0 23 00 91 	add	x0, sp, #8
100004410: e2 43 00 91 	add	x2, sp, #16
100004414: 24 a1 00 94 	bl	0x10002c8a4 <__ZN4core3fmt5write17h91497fd291c8b104E>
100004418: fd 7b 44 a9 	ldp	x29, x30, [sp, #64]
10000441c: ff 43 01 91 	add	sp, sp, #80
100004420: c0 03 5f d6 	ret

0000000100004424 <__ZN4core3ops8function6FnOnce40call_once$u7b$$u7b$vtable.shim$u7d$$u7d$17h0a61200d342e0021E>:
100004424: ff 03 01 d1 	sub	sp, sp, #64
100004428: f4 4f 02 a9 	stp	x20, x19, [sp, #32]
10000442c: fd 7b 03 a9 	stp	x29, x30, [sp, #48]
100004430: fd c3 00 91 	add	x29, sp, #48
100004434: e8 03 01 aa 	mov	x8, x1
100004438: f3 03 00 aa 	mov	x19, x0
10000443c: 40 00 c0 3d 	ldr	q0, [x2]
100004440: e0 03 80 3d 	str	q0, [sp]
100004444: 49 08 40 f9 	ldr	x9, [x2, #16]
100004448: e9 0b 00 f9 	str	x9, [sp, #16]
10000444c: 09 00 40 f9 	ldr	x9, [x0]
100004450: 3f 01 00 f1 	cmp	x9, #0
100004454: e3 03 80 9a 	csel	x3, xzr, x0, eq
100004458: 02 60 40 39 	ldrb	w2, [x0, #24]
10000445c: e1 03 00 91 	mov	x1, sp
100004460: e0 03 08 aa 	mov	x0, x8
100004464: 2d 5b 00 94 	bl	0x10001b118 <__ZN3std10sys_common9backtrace15output_filename17hbad16f1a4873935fE>
100004468: f4 03 00 aa 	mov	x20, x0
10000446c: 60 02 40 f9 	ldr	x0, [x19]
100004470: c0 00 00 b4 	cbz	x0, 0x100004488 <__ZN4core3ops8function6FnOnce40call_once$u7b$$u7b$vtable.shim$u7d$$u7d$17h0a61200d342e0021E+0x64>
100004474: 61 06 40 f9 	ldr	x1, [x19, #8]
100004478: 81 00 00 b4 	cbz	x1, 0x100004488 <__ZN4core3ops8function6FnOnce40call_once$u7b$$u7b$vtable.shim$u7d$$u7d$17h0a61200d342e0021E+0x64>
10000447c: e8 03 21 aa 	mvn	x8, x1
100004480: 02 fd 7f d3 	lsr	x2, x8, #63
100004484: 85 fe ff 97 	bl	0x100003e98 <___rust_dealloc>
100004488: e0 03 14 aa 	mov	x0, x20
10000448c: fd 7b 43 a9 	ldp	x29, x30, [sp, #48]
100004490: f4 4f 42 a9 	ldp	x20, x19, [sp, #32]
100004494: ff 03 01 91 	add	sp, sp, #64
100004498: c0 03 5f d6 	ret
10000449c: f4 03 00 aa 	mov	x20, x0
1000044a0: e0 03 13 aa 	mov	x0, x19
1000044a4: 2a 06 00 94 	bl	0x100005d4c <__ZN4core3ptr88drop_in_place$LT$std..sys_common..backtrace.._print_fmt..$u7b$$u7b$closure$u7d$$u7d$$GT$17h8bbec0c584629b87E>
1000044a8: e0 03 14 aa 	mov	x0, x20
1000044ac: 53 bb 00 94 	bl	0x1000331f8 <_write+0x1000331f8>

00000001000044b0 <__ZN4core3ops8function6FnOnce40call_once$u7b$$u7b$vtable.shim$u7d$$u7d$17h127a8397c7faeb0aE>:
1000044b0: ff 83 00 d1 	sub	sp, sp, #32
1000044b4: fd 7b 01 a9 	stp	x29, x30, [sp, #16]
1000044b8: fd 43 00 91 	add	x29, sp, #16
1000044bc: 08 00 40 f9 	ldr	x8, [x0]
1000044c0: e8 07 00 f9 	str	x8, [sp, #8]
1000044c4: e0 23 00 91 	add	x0, sp, #8
1000044c8: 8c 58 00 94 	bl	0x10001a6f8 <__ZN3std4sync4once4Once9call_once28_$u7b$$u7b$closure$u7d$$u7d$17h31b267b022283694E>
1000044cc: fd 7b 41 a9 	ldp	x29, x30, [sp, #16]
1000044d0: ff 83 00 91 	add	sp, sp, #32
1000044d4: c0 03 5f d6 	ret

00000001000044d8 <__ZN4core3ops8function6FnOnce40call_once$u7b$$u7b$vtable.shim$u7d$$u7d$17h6573f342d0646f50E>:
1000044d8: fd 7b bf a9 	stp	x29, x30, [sp, #-16]!
1000044dc: fd 03 00 91 	mov	x29, sp
1000044e0: 0a 00 40 f9 	ldr	x10, [x0]
1000044e4: 49 21 40 a9 	ldp	x9, x8, [x10]
1000044e8: 5f 01 00 f9 	str	xzr, [x10]
1000044ec: 49 01 00 b4 	cbz	x9, 0x100004514 <__ZN4core3ops8function6FnOnce40call_once$u7b$$u7b$vtable.shim$u7d$$u7d$17h6573f342d0646f50E+0x3c>
1000044f0: 2a 00 80 52 	mov	w10, #1
1000044f4: 2a 01 00 39 	strb	w10, [x9]
1000044f8: 1f 7d 00 a9 	stp	xzr, xzr, [x8]
1000044fc: 1f 29 01 a9 	stp	xzr, x10, [x8, #16]
100004500: 1f 7d 02 a9 	stp	xzr, xzr, [x8, #32]
100004504: 1f c1 00 39 	strb	wzr, [x8, #48]
100004508: 1f 39 00 b9 	str	wzr, [x8, #56]
10000450c: fd 7b c1 a8 	ldp	x29, x30, [sp], #16
100004510: c0 03 5f d6 	ret
100004514: 00 29 18 30 	adr	x0, #197921
100004518: 1f 20 03 d5 	nop
10000451c: 22 3f 1e 10 	adr	x2, #247780
100004520: 1f 20 03 d5 	nop
100004524: 61 05 80 52 	mov	w1, #43
100004528: a2 ba 00 94 	bl	0x100032fb0 <__ZN4core9panicking5panic17h5713e7735cef5fa8E>

000000010000452c <__ZN4core3ops8function6FnOnce40call_once$u7b$$u7b$vtable.shim$u7d$$u7d$17h65b22b61e6bae60cE>:
10000452c: 08 00 40 f9 	ldr	x8, [x0]
100004530: 00 01 40 f9 	ldr	x0, [x8]
100004534: 1c bb 00 14 	b	0x1000331a4 <_write+0x1000331a4>

0000000100004538 <__ZN4core3ops8function6FnOnce40call_once$u7b$$u7b$vtable.shim$u7d$$u7d$17hab1260928e4fb4faE>:
100004538: 71 5a 00 14 	b	0x10001aefc <__ZN3std10sys_common9backtrace10_print_fmt28_$u7b$$u7b$closure$u7d$$u7d$28_$u7b$$u7b$closure$u7d$$u7d$17h75d0c939cb823bd2E>

000000010000453c <__ZN4core3ops8function6FnOnce40call_once$u7b$$u7b$vtable.shim$u7d$$u7d$17hce9a65784481c3c6E>:
10000453c: f4 4f be a9 	stp	x20, x19, [sp, #-32]!
100004540: fd 7b 01 a9 	stp	x29, x30, [sp, #16]
100004544: fd 43 00 91 	add	x29, sp, #16
100004548: 08 00 40 f9 	ldr	x8, [x0]
10000454c: 13 01 40 f9 	ldr	x19, [x8]
100004550: 1f 01 00 f9 	str	xzr, [x8]
100004554: f3 01 00 b4 	cbz	x19, 0x100004590 <__ZN4core3ops8function6FnOnce40call_once$u7b$$u7b$vtable.shim$u7d$$u7d$17hce9a65784481c3c6E+0x54>
100004558: 00 80 80 52 	mov	w0, #1024
10000455c: 21 00 80 52 	mov	w1, #1
100004560: 4d fe ff 97 	bl	0x100003e94 <___rust_alloc>
100004564: 20 02 00 b4 	cbz	x0, 0x1000045a8 <__ZN4core3ops8function6FnOnce40call_once$u7b$$u7b$vtable.shim$u7d$$u7d$17hce9a65784481c3c6E+0x6c>
100004568: 7f 7e 00 a9 	stp	xzr, xzr, [x19]
10000456c: 7f 02 01 a9 	stp	xzr, x0, [x19, #16]
100004570: 1f 20 03 d5 	nop
100004574: e0 f3 17 9c 	ldr	q0, 0x1000343f0 <_write+0x1000343f0>
100004578: 60 0a 80 3d 	str	q0, [x19, #32]
10000457c: 7f c2 00 39 	strb	wzr, [x19, #48]
100004580: 7f 3a 00 b9 	str	wzr, [x19, #56]
100004584: fd 7b 41 a9 	ldp	x29, x30, [sp, #16]
100004588: f4 4f c2 a8 	ldp	x20, x19, [sp], #32
10000458c: c0 03 5f d6 	ret
100004590: 20 25 18 30 	adr	x0, #197797
100004594: 1f 20 03 d5 	nop
100004598: 42 3b 1e 10 	adr	x2, #247656
10000459c: 1f 20 03 d5 	nop
1000045a0: 61 05 80 52 	mov	w1, #43
1000045a4: 83 ba 00 94 	bl	0x100032fb0 <__ZN4core9panicking5panic17h5713e7735cef5fa8E>
1000045a8: 00 80 80 52 	mov	w0, #1024
1000045ac: 21 00 80 52 	mov	w1, #1
1000045b0: 7a ba 00 94 	bl	0x100032f98 <__ZN5alloc5alloc18handle_alloc_error17hf07e227af3b134d6E>

00000001000045b4 <__ZN4core3ops8function6FnOnce40call_once$u7b$$u7b$vtable.shim$u7d$$u7d$17hdd30d1c1f7478549E>:
1000045b4: 05 5a 00 14 	b	0x10001adc8 <__ZN3std10sys_common9backtrace10_print_fmt28_$u7b$$u7b$closure$u7d$$u7d$17he2388d99ef981d58E>

00000001000045b8 <__ZN4core3ops8function6FnOnce40call_once$u7b$$u7b$vtable.shim$u7d$$u7d$17hffd43b27e754c9dfE>:
1000045b8: 08 00 40 f9 	ldr	x8, [x0]
1000045bc: 00 01 40 f9 	ldr	x0, [x8]
1000045c0: 08 bb 00 14 	b	0x1000331e0 <_write+0x1000331e0>

00000001000045c4 <__ZN4core3ops8function6FnOnce9call_once17hcbba8ece01ea23f2E>:
1000045c4: fd 7b bf a9 	stp	x29, x30, [sp, #-16]!
1000045c8: fd 03 00 91 	mov	x29, sp
1000045cc: 85 4b 00 94 	bl	0x1000173e0 <__ZN3std2rt19lang_start_internal28_$u7b$$u7b$closure$u7d$$u7d$17h2f25fa70e68ef0b4E>

00000001000045d0 <__ZN4core3ptr100drop_in_place$LT$$RF$mut$u20$std..io..Write..write_fmt..Adapter$LT$alloc..vec..Vec$LT$u8$GT$$GT$$GT$17h51705b232ca1f3f3E>:
1000045d0: c0 03 5f d6 	ret

00000001000045d4 <__ZN4core3ptr101drop_in_place$LT$alloc..sync..Arc$LT$std..sync..mutex..Mutex$LT$alloc..vec..Vec$LT$u8$GT$$GT$$GT$$GT$17h30e1512fbd5b8cd0E>:
1000045d4: 08 00 40 f9 	ldr	x8, [x0]
1000045d8: 09 00 80 92 	mov	x9, #-1
1000045dc: 08 01 69 f8 	<unknown>
1000045e0: 1f 05 00 f1 	cmp	x8, #1
1000045e4: 81 00 00 54 	b.ne	0x1000045f4 <__ZN4core3ptr101drop_in_place$LT$alloc..sync..Arc$LT$std..sync..mutex..Mutex$LT$alloc..vec..Vec$LT$u8$GT$$GT$$GT$$GT$17h30e1512fbd5b8cd0E+0x20>
1000045e8: bf 39 03 d5 	dmb	ishld
1000045ec: 00 00 40 f9 	ldr	x0, [x0]
1000045f0: a0 11 00 14 	b	0x100008c70 <__ZN5alloc4sync12Arc$LT$T$GT$9drop_slow17hb0f4e3a17d6d6042E>
1000045f4: c0 03 5f d6 	ret

00000001000045f8 <__ZN4core3ptr104drop_in_place$LT$alloc..vec..Vec$LT$$LP$usize$C$std..backtrace_rs..symbolize..gimli..Mapping$RP$$GT$$GT$17h012ff53e2b038dc6E>:
1000045f8: f8 5f bc a9 	stp	x24, x23, [sp, #-64]!
1000045fc: f6 57 01 a9 	stp	x22, x21, [sp, #16]
100004600: f4 4f 02 a9 	stp	x20, x19, [sp, #32]
100004604: fd 7b 03 a9 	stp	x29, x30, [sp, #48]
100004608: fd c3 00 91 	add	x29, sp, #48
10000460c: f3 03 00 aa 	mov	x19, x0
100004610: 08 00 40 f9 	ldr	x8, [x0]
100004614: 09 08 40 f9 	ldr	x9, [x0, #16]
100004618: 29 15 09 8b 	add	x9, x9, x9, lsl #5
10000461c: 36 f1 7d d3 	lsl	x22, x9, #3
100004620: f6 00 00 b4 	cbz	x22, 0x10000463c <__ZN4core3ptr104drop_in_place$LT$alloc..vec..Vec$LT$$LP$usize$C$std..backtrace_rs..symbolize..gimli..Mapping$RP$$GT$$GT$17h012ff53e2b038dc6E+0x44>
100004624: 14 21 04 91 	add	x20, x8, #264
100004628: 00 21 00 91 	add	x0, x8, #8
10000462c: d6 22 04 d1 	sub	x22, x22, #264
100004630: b6 03 00 94 	bl	0x100005508 <__ZN4core3ptr65drop_in_place$LT$std..backtrace_rs..symbolize..gimli..Mapping$GT$17h574b03714ff665bdE>
100004634: e8 03 14 aa 	mov	x8, x20
100004638: fa ff ff 17 	b	0x100004620 <__ZN4core3ptr104drop_in_place$LT$alloc..vec..Vec$LT$$LP$usize$C$std..backtrace_rs..symbolize..gimli..Mapping$RP$$GT$$GT$17h012ff53e2b038dc6E+0x28>
10000463c: 68 06 40 f9 	ldr	x8, [x19, #8]
100004640: 48 01 00 b4 	cbz	x8, 0x100004668 <__ZN4core3ptr104drop_in_place$LT$alloc..vec..Vec$LT$$LP$usize$C$std..backtrace_rs..symbolize..gimli..Mapping$RP$$GT$$GT$17h012ff53e2b038dc6E+0x70>
100004644: 60 02 40 f9 	ldr	x0, [x19]
100004648: 08 15 08 8b 	add	x8, x8, x8, lsl #5
10000464c: 01 f1 7d d3 	lsl	x1, x8, #3
100004650: 02 01 80 52 	mov	w2, #8
100004654: fd 7b 43 a9 	ldp	x29, x30, [sp, #48]
100004658: f4 4f 42 a9 	ldp	x20, x19, [sp, #32]
10000465c: f6 57 41 a9 	ldp	x22, x21, [sp, #16]
100004660: f8 5f c4 a8 	ldp	x24, x23, [sp], #64
100004664: 0d fe ff 17 	b	0x100003e98 <___rust_dealloc>
100004668: fd 7b 43 a9 	ldp	x29, x30, [sp, #48]
10000466c: f4 4f 42 a9 	ldp	x20, x19, [sp, #32]
100004670: f6 57 41 a9 	ldp	x22, x21, [sp, #16]
100004674: f8 5f c4 a8 	ldp	x24, x23, [sp], #64
100004678: c0 03 5f d6 	ret
10000467c: f5 03 00 aa 	mov	x21, x0
100004680: f6 00 00 b4 	cbz	x22, 0x10000469c <__ZN4core3ptr104drop_in_place$LT$alloc..vec..Vec$LT$$LP$usize$C$std..backtrace_rs..symbolize..gimli..Mapping$RP$$GT$$GT$17h012ff53e2b038dc6E+0xa4>
100004684: 97 22 04 91 	add	x23, x20, #264
100004688: d6 22 04 d1 	sub	x22, x22, #264
10000468c: e0 03 14 aa 	mov	x0, x20
100004690: c6 04 00 94 	bl	0x1000059a8 <__ZN4core3ptr81drop_in_place$LT$$LP$usize$C$std..backtrace_rs..symbolize..gimli..Mapping$RP$$GT$17h4c29936dbd7d8430E>
100004694: f4 03 17 aa 	mov	x20, x23
100004698: fa ff ff 17 	b	0x100004680 <__ZN4core3ptr104drop_in_place$LT$alloc..vec..Vec$LT$$LP$usize$C$std..backtrace_rs..symbolize..gimli..Mapping$RP$$GT$$GT$17h012ff53e2b038dc6E+0x88>
10000469c: 60 06 40 a9 	ldp	x0, x1, [x19]
1000046a0: 1d 00 00 94 	bl	0x100004714 <__ZN4core3ptr111drop_in_place$LT$alloc..raw_vec..RawVec$LT$$LP$usize$C$std..backtrace_rs..symbolize..gimli..Mapping$RP$$GT$$GT$17ha921fe2977f54931E>
1000046a4: e0 03 15 aa 	mov	x0, x21
1000046a8: d4 ba 00 94 	bl	0x1000331f8 <_write+0x1000331f8>
1000046ac: 63 ba 00 94 	bl	0x100033038 <__ZN4core9panicking15panic_no_unwind17h6c18a18997fce2b1E>

00000001000046b0 <__ZN4core3ptr105drop_in_place$LT$core..result..Result$LT$alloc..ffi..c_str..CString$C$alloc..ffi..c_str..NulError$GT$$GT$17hbaa4793194ce2de4E>:
1000046b0: 08 04 40 f9 	ldr	x8, [x0, #8]
1000046b4: e8 00 00 b4 	cbz	x8, 0x1000046d0 <__ZN4core3ptr105drop_in_place$LT$core..result..Result$LT$alloc..ffi..c_str..CString$C$alloc..ffi..c_str..NulError$GT$$GT$17hbaa4793194ce2de4E+0x20>
1000046b8: 01 08 40 f9 	ldr	x1, [x0, #16]
1000046bc: 81 01 00 b4 	cbz	x1, 0x1000046ec <__ZN4core3ptr105drop_in_place$LT$core..result..Result$LT$alloc..ffi..c_str..CString$C$alloc..ffi..c_str..NulError$GT$$GT$17hbaa4793194ce2de4E+0x3c>
1000046c0: e9 03 21 aa 	mvn	x9, x1
1000046c4: 22 fd 7f d3 	lsr	x2, x9, #63
1000046c8: e0 03 08 aa 	mov	x0, x8
1000046cc: f3 fd ff 17 	b	0x100003e98 <___rust_dealloc>
1000046d0: 08 08 40 f9 	ldr	x8, [x0, #16]
1000046d4: 1f 01 00 39 	strb	wzr, [x8]
1000046d8: 01 0c 40 f9 	ldr	x1, [x0, #24]
1000046dc: 81 00 00 b4 	cbz	x1, 0x1000046ec <__ZN4core3ptr105drop_in_place$LT$core..result..Result$LT$alloc..ffi..c_str..CString$C$alloc..ffi..c_str..NulError$GT$$GT$17hbaa4793194ce2de4E+0x3c>
1000046e0: 00 08 40 f9 	ldr	x0, [x0, #16]
1000046e4: 22 00 80 52 	mov	w2, #1
1000046e8: ec fd ff 17 	b	0x100003e98 <___rust_dealloc>
1000046ec: c0 03 5f d6 	ret

00000001000046f0 <__ZN4core3ptr107drop_in_place$LT$alloc..sync..Arc$LT$core..mem..maybe_uninit..MaybeUninit$LT$std..thread..Inner$GT$$GT$$GT$17hc216addb27f9d3b1E>:
1000046f0: 08 00 40 f9 	ldr	x8, [x0]
1000046f4: 09 00 80 92 	mov	x9, #-1
1000046f8: 08 01 69 f8 	<unknown>
1000046fc: 1f 05 00 f1 	cmp	x8, #1
100004700: 81 00 00 54 	b.ne	0x100004710 <__ZN4core3ptr107drop_in_place$LT$alloc..sync..Arc$LT$core..mem..maybe_uninit..MaybeUninit$LT$std..thread..Inner$GT$$GT$$GT$17hc216addb27f9d3b1E+0x20>
100004704: bf 39 03 d5 	dmb	ishld
100004708: 00 00 40 f9 	ldr	x0, [x0]
10000470c: 2c 11 00 14 	b	0x100008bbc <__ZN5alloc4sync12Arc$LT$T$GT$9drop_slow17h6c908b99dc68b983E>
100004710: c0 03 5f d6 	ret

0000000100004714 <__ZN4core3ptr111drop_in_place$LT$alloc..raw_vec..RawVec$LT$$LP$usize$C$std..backtrace_rs..symbolize..gimli..Mapping$RP$$GT$$GT$17ha921fe2977f54931E>:
100004714: a1 00 00 b4 	cbz	x1, 0x100004728 <__ZN4core3ptr111drop_in_place$LT$alloc..raw_vec..RawVec$LT$$LP$usize$C$std..backtrace_rs..symbolize..gimli..Mapping$RP$$GT$$GT$17ha921fe2977f54931E+0x14>
100004718: 28 14 01 8b 	add	x8, x1, x1, lsl #5
10000471c: 01 f1 7d d3 	lsl	x1, x8, #3
100004720: 02 01 80 52 	mov	w2, #8
100004724: dd fd ff 17 	b	0x100003e98 <___rust_dealloc>
100004728: c0 03 5f d6 	ret

000000010000472c <__ZN4core3ptr115drop_in_place$LT$core..cell..RefMut$LT$core..option..Option$LT$std..sys_common..thread_info..ThreadInfo$GT$$GT$$GT$17h7f91f68db5014214E>:
10000472c: 08 00 40 f9 	ldr	x8, [x0]
100004730: 08 05 00 91 	add	x8, x8, #1
100004734: 08 00 00 f9 	str	x8, [x0]
100004738: c0 03 5f d6 	ret

000000010000473c <__ZN4core3ptr118drop_in_place$LT$alloc..vec..Vec$LT$$LP$gimli..common..DebugInfoOffset$C$gimli..common..DebugArangesOffset$RP$$GT$$GT$17hc3bc2c16917a4b15E>:
10000473c: 81 00 00 b4 	cbz	x1, 0x10000474c <__ZN4core3ptr118drop_in_place$LT$alloc..vec..Vec$LT$$LP$gimli..common..DebugInfoOffset$C$gimli..common..DebugArangesOffset$RP$$GT$$GT$17hc3bc2c16917a4b15E+0x10>
100004740: 21 ec 7c d3 	lsl	x1, x1, #4
100004744: 02 01 80 52 	mov	w2, #8
100004748: d4 fd ff 17 	b	0x100003e98 <___rust_dealloc>
10000474c: c0 03 5f d6 	ret

0000000100004750 <__ZN4core3ptr119drop_in_place$LT$addr2line..lazy..LazyCell$LT$core..result..Result$LT$addr2line..Lines$C$gimli..read..Error$GT$$GT$$GT$17h53ae0a78054b3501E>:
100004750: 08 00 40 f9 	ldr	x8, [x0]
100004754: 68 00 00 b4 	cbz	x8, 0x100004760 <__ZN4core3ptr119drop_in_place$LT$addr2line..lazy..LazyCell$LT$core..result..Result$LT$addr2line..Lines$C$gimli..read..Error$GT$$GT$$GT$17h53ae0a78054b3501E+0x10>
100004758: 00 20 00 91 	add	x0, x0, #8
10000475c: e6 04 00 14 	b	0x100005af4 <__ZN4core3ptr86drop_in_place$LT$core..result..Result$LT$addr2line..Lines$C$gimli..read..Error$GT$$GT$17h8f3da527abfc6d8dE>
100004760: c0 03 5f d6 	ret

0000000100004764 <__ZN4core3ptr121drop_in_place$LT$core..option..Option$LT$core..option..Option$LT$std..backtrace_rs..symbolize..gimli..Mapping$GT$$GT$$GT$17hbf85724863f1de0aE>:
100004764: 08 e0 42 39 	ldrb	w8, [x0, #184]
100004768: 1f 09 00 71 	cmp	w8, #2
10000476c: 42 00 00 54 	b.hs	0x100004774 <__ZN4core3ptr121drop_in_place$LT$core..option..Option$LT$core..option..Option$LT$std..backtrace_rs..symbolize..gimli..Mapping$GT$$GT$$GT$17hbf85724863f1de0aE+0x10>
100004770: 66 03 00 14 	b	0x100005508 <__ZN4core3ptr65drop_in_place$LT$std..backtrace_rs..symbolize..gimli..Mapping$GT$17h574b03714ff665bdE>
100004774: c0 03 5f d6 	ret

0000000100004778 <__ZN4core3ptr123drop_in_place$LT$addr2line..ResUnit$LT$gimli..read..endian_slice..EndianSlice$LT$gimli..endianity..LittleEndian$GT$$GT$$GT$17h9d915724e59d4597E>:
100004778: f4 4f be a9 	stp	x20, x19, [sp, #-32]!
10000477c: fd 7b 01 a9 	stp	x29, x30, [sp, #16]
100004780: fd 43 00 91 	add	x29, sp, #16
100004784: f3 03 00 aa 	mov	x19, x0
100004788: 00 60 01 91 	add	x0, x0, #88
10000478c: dc 02 00 94 	bl	0x1000052fc <__ZN4core3ptr55drop_in_place$LT$gimli..read..abbrev..Abbreviations$GT$17h1d139e0b0f3172f2E>
100004790: 60 42 03 91 	add	x0, x19, #208
100004794: 49 01 00 94 	bl	0x100004cb8 <__ZN4core3ptr181drop_in_place$LT$core..option..Option$LT$gimli..read..line..IncompleteLineProgram$LT$gimli..read..endian_slice..EndianSlice$LT$gimli..endianity..LittleEndian$GT$$C$usize$GT$$GT$$GT$17h0b51faac6ccccc8aE>
100004798: 68 ee 40 f9 	ldr	x8, [x19, #472]
10000479c: 68 00 00 b4 	cbz	x8, 0x1000047a8 <__ZN4core3ptr123drop_in_place$LT$addr2line..ResUnit$LT$gimli..read..endian_slice..EndianSlice$LT$gimli..endianity..LittleEndian$GT$$GT$$GT$17h9d915724e59d4597E+0x30>
1000047a0: 60 82 07 91 	add	x0, x19, #480
1000047a4: d4 04 00 94 	bl	0x100005af4 <__ZN4core3ptr86drop_in_place$LT$core..result..Result$LT$addr2line..Lines$C$gimli..read..Error$GT$$GT$17h8f3da527abfc6d8dE>
1000047a8: 68 02 41 f9 	ldr	x8, [x19, #512]
1000047ac: a8 00 00 b4 	cbz	x8, 0x1000047c0 <__ZN4core3ptr123drop_in_place$LT$addr2line..ResUnit$LT$gimli..read..endian_slice..EndianSlice$LT$gimli..endianity..LittleEndian$GT$$GT$$GT$17h9d915724e59d4597E+0x48>
1000047b0: 60 22 08 91 	add	x0, x19, #520
1000047b4: fd 7b 41 a9 	ldp	x29, x30, [sp, #16]
1000047b8: f4 4f c2 a8 	ldp	x20, x19, [sp], #32
1000047bc: 64 01 00 14 	b	0x100004d4c <__ZN4core3ptr184drop_in_place$LT$core..result..Result$LT$addr2line..function..Functions$LT$gimli..read..endian_slice..EndianSlice$LT$gimli..endianity..LittleEndian$GT$$GT$$C$gimli..read..Error$GT$$GT$17h6ed088d4b4771bcbE>
1000047c0: fd 7b 41 a9 	ldp	x29, x30, [sp, #16]
1000047c4: f4 4f c2 a8 	ldp	x20, x19, [sp], #32
1000047c8: c0 03 5f d6 	ret
1000047cc: f4 03 00 aa 	mov	x20, x0
1000047d0: 60 42 03 91 	add	x0, x19, #208
1000047d4: 39 01 00 94 	bl	0x100004cb8 <__ZN4core3ptr181drop_in_place$LT$core..option..Option$LT$gimli..read..line..IncompleteLineProgram$LT$gimli..read..endian_slice..EndianSlice$LT$gimli..endianity..LittleEndian$GT$$C$usize$GT$$GT$$GT$17h0b51faac6ccccc8aE>
1000047d8: 60 62 07 91 	add	x0, x19, #472
1000047dc: dd ff ff 97 	bl	0x100004750 <__ZN4core3ptr119drop_in_place$LT$addr2line..lazy..LazyCell$LT$core..result..Result$LT$addr2line..Lines$C$gimli..read..Error$GT$$GT$$GT$17h53ae0a78054b3501E>
1000047e0: 60 02 08 91 	add	x0, x19, #512
1000047e4: 97 01 00 94 	bl	0x100004e40 <__ZN4core3ptr217drop_in_place$LT$addr2line..lazy..LazyCell$LT$core..result..Result$LT$addr2line..function..Functions$LT$gimli..read..endian_slice..EndianSlice$LT$gimli..endianity..LittleEndian$GT$$GT$$C$gimli..read..Error$GT$$GT$$GT$17h9966a3abac459575E>
1000047e8: e0 03 14 aa 	mov	x0, x20
1000047ec: 83 ba 00 94 	bl	0x1000331f8 <_write+0x1000331f8>

00000001000047f0 <__ZN4core3ptr124drop_in_place$LT$addr2line..ResDwarf$LT$gimli..read..endian_slice..EndianSlice$LT$gimli..endianity..LittleEndian$GT$$GT$$GT$17h8f8473b5bf1b27a8E>:
1000047f0: f8 5f bc a9 	stp	x24, x23, [sp, #-64]!
1000047f4: f6 57 01 a9 	stp	x22, x21, [sp, #16]
1000047f8: f4 4f 02 a9 	stp	x20, x19, [sp, #32]
1000047fc: fd 7b 03 a9 	stp	x29, x30, [sp, #48]
100004800: fd c3 00 91 	add	x29, sp, #48
100004804: f3 03 00 aa 	mov	x19, x0
100004808: 08 04 40 f9 	ldr	x8, [x0, #8]
10000480c: a8 00 00 b4 	cbz	x8, 0x100004820 <__ZN4core3ptr124drop_in_place$LT$addr2line..ResDwarf$LT$gimli..read..endian_slice..EndianSlice$LT$gimli..endianity..LittleEndian$GT$$GT$$GT$17h8f8473b5bf1b27a8E+0x30>
100004810: 60 02 40 f9 	ldr	x0, [x19]
100004814: 01 e9 7b d3 	lsl	x1, x8, #5
100004818: 02 01 80 52 	mov	w2, #8
10000481c: 9f fd ff 97 	bl	0x100003e98 <___rust_dealloc>
100004820: 60 0e 40 f9 	ldr	x0, [x19, #24]
100004824: 68 16 40 f9 	ldr	x8, [x19, #40]
100004828: 09 46 80 52 	mov	w9, #560
10000482c: 16 7d 09 9b 	mul	x22, x8, x9
100004830: d6 00 00 b4 	cbz	x22, 0x100004848 <__ZN4core3ptr124drop_in_place$LT$addr2line..ResDwarf$LT$gimli..read..endian_slice..EndianSlice$LT$gimli..endianity..LittleEndian$GT$$GT$$GT$17h8f8473b5bf1b27a8E+0x58>
100004834: 15 c0 08 91 	add	x21, x0, #560
100004838: d6 c2 08 d1 	sub	x22, x22, #560
10000483c: cf ff ff 97 	bl	0x100004778 <__ZN4core3ptr123drop_in_place$LT$addr2line..ResUnit$LT$gimli..read..endian_slice..EndianSlice$LT$gimli..endianity..LittleEndian$GT$$GT$$GT$17h9d915724e59d4597E>
100004840: e0 03 15 aa 	mov	x0, x21
100004844: fb ff ff 17 	b	0x100004830 <__ZN4core3ptr124drop_in_place$LT$addr2line..ResDwarf$LT$gimli..read..endian_slice..EndianSlice$LT$gimli..endianity..LittleEndian$GT$$GT$$GT$17h8f8473b5bf1b27a8E+0x40>
100004848: 68 12 40 f9 	ldr	x8, [x19, #32]
10000484c: c8 00 00 b4 	cbz	x8, 0x100004864 <__ZN4core3ptr124drop_in_place$LT$addr2line..ResDwarf$LT$gimli..read..endian_slice..EndianSlice$LT$gimli..endianity..LittleEndian$GT$$GT$$GT$17h8f8473b5bf1b27a8E+0x74>
100004850: 60 0e 40 f9 	ldr	x0, [x19, #24]
100004854: 09 46 80 52 	mov	w9, #560
100004858: 01 7d 09 9b 	mul	x1, x8, x9
10000485c: 02 01 80 52 	mov	w2, #8
100004860: 8e fd ff 97 	bl	0x100003e98 <___rust_dealloc>
100004864: e0 03 13 aa 	mov	x0, x19
100004868: 08 0c 43 f8 	ldr	x8, [x0, #48]!
10000486c: 09 00 80 92 	mov	x9, #-1
100004870: 08 01 69 f8 	<unknown>
100004874: 1f 05 00 f1 	cmp	x8, #1
100004878: 61 00 00 54 	b.ne	0x100004884 <__ZN4core3ptr124drop_in_place$LT$addr2line..ResDwarf$LT$gimli..read..endian_slice..EndianSlice$LT$gimli..endianity..LittleEndian$GT$$GT$$GT$17h8f8473b5bf1b27a8E+0x94>
10000487c: bf 39 03 d5 	dmb	ishld
100004880: 27 11 00 94 	bl	0x100008d1c <__ZN5alloc4sync12Arc$LT$T$GT$9drop_slow17hcf501deffc79e7b4E>
100004884: 60 1e 40 f9 	ldr	x0, [x19, #56]
100004888: 40 01 00 b4 	cbz	x0, 0x1000048b0 <__ZN4core3ptr124drop_in_place$LT$addr2line..ResDwarf$LT$gimli..read..endian_slice..EndianSlice$LT$gimli..endianity..LittleEndian$GT$$GT$$GT$17h8f8473b5bf1b27a8E+0xc0>
10000488c: d9 ff ff 97 	bl	0x1000047f0 <__ZN4core3ptr124drop_in_place$LT$addr2line..ResDwarf$LT$gimli..read..endian_slice..EndianSlice$LT$gimli..endianity..LittleEndian$GT$$GT$$GT$17h8f8473b5bf1b27a8E>
100004890: 60 1e 40 f9 	ldr	x0, [x19, #56]
100004894: 01 08 80 52 	mov	w1, #64
100004898: 02 01 80 52 	mov	w2, #8
10000489c: fd 7b 43 a9 	ldp	x29, x30, [sp, #48]
1000048a0: f4 4f 42 a9 	ldp	x20, x19, [sp, #32]
1000048a4: f6 57 41 a9 	ldp	x22, x21, [sp, #16]
1000048a8: f8 5f c4 a8 	ldp	x24, x23, [sp], #64
1000048ac: 7b fd ff 17 	b	0x100003e98 <___rust_dealloc>
1000048b0: fd 7b 43 a9 	ldp	x29, x30, [sp, #48]
1000048b4: f4 4f 42 a9 	ldp	x20, x19, [sp, #32]
1000048b8: f6 57 41 a9 	ldp	x22, x21, [sp, #16]
1000048bc: f8 5f c4 a8 	ldp	x24, x23, [sp], #64
1000048c0: c0 03 5f d6 	ret
1000048c4: f4 03 00 aa 	mov	x20, x0
1000048c8: 60 1e 40 f9 	ldr	x0, [x19, #56]
1000048cc: 35 11 00 94 	bl	0x100008da0 <__ZN5alloc5alloc8box_free17h1af77f2d954fc56bE>
1000048d0: 0f 00 00 14 	b	0x10000490c <__ZN4core3ptr124drop_in_place$LT$addr2line..ResDwarf$LT$gimli..read..endian_slice..EndianSlice$LT$gimli..endianity..LittleEndian$GT$$GT$$GT$17h8f8473b5bf1b27a8E+0x11c>
1000048d4: f4 03 00 aa 	mov	x20, x0
1000048d8: f6 00 00 b4 	cbz	x22, 0x1000048f4 <__ZN4core3ptr124drop_in_place$LT$addr2line..ResDwarf$LT$gimli..read..endian_slice..EndianSlice$LT$gimli..endianity..LittleEndian$GT$$GT$$GT$17h8f8473b5bf1b27a8E+0x104>
1000048dc: b7 c2 08 91 	add	x23, x21, #560
1000048e0: d6 c2 08 d1 	sub	x22, x22, #560
1000048e4: e0 03 15 aa 	mov	x0, x21
1000048e8: a4 ff ff 97 	bl	0x100004778 <__ZN4core3ptr123drop_in_place$LT$addr2line..ResUnit$LT$gimli..read..endian_slice..EndianSlice$LT$gimli..endianity..LittleEndian$GT$$GT$$GT$17h9d915724e59d4597E>
1000048ec: f5 03 17 aa 	mov	x21, x23
1000048f0: fa ff ff 17 	b	0x1000048d8 <__ZN4core3ptr124drop_in_place$LT$addr2line..ResDwarf$LT$gimli..read..endian_slice..EndianSlice$LT$gimli..endianity..LittleEndian$GT$$GT$$GT$17h8f8473b5bf1b27a8E+0xe8>
1000048f4: 60 86 41 a9 	ldp	x0, x1, [x19, #24]
1000048f8: 91 00 00 94 	bl	0x100004b3c <__ZN4core3ptr153drop_in_place$LT$alloc..raw_vec..RawVec$LT$addr2line..ResUnit$LT$gimli..read..endian_slice..EndianSlice$LT$gimli..endianity..LittleEndian$GT$$GT$$GT$$GT$17hf460a5d462258e5cE>
1000048fc: 60 c2 00 91 	add	x0, x19, #48
100004900: 95 00 00 94 	bl	0x100004b54 <__ZN4core3ptr154drop_in_place$LT$alloc..sync..Arc$LT$gimli..read..dwarf..Dwarf$LT$gimli..read..endian_slice..EndianSlice$LT$gimli..endianity..LittleEndian$GT$$GT$$GT$$GT$17h1ea27cc647d27ec1E>
100004904: 60 e2 00 91 	add	x0, x19, #56
100004908: d7 00 00 94 	bl	0x100004c64 <__ZN4core3ptr177drop_in_place$LT$core..option..Option$LT$alloc..boxed..Box$LT$addr2line..ResDwarf$LT$gimli..read..endian_slice..EndianSlice$LT$gimli..endianity..LittleEndian$GT$$GT$$GT$$GT$$GT$17h1615791fca9aa813E>
10000490c: e0 03 14 aa 	mov	x0, x20
100004910: 3a ba 00 94 	bl	0x1000331f8 <_write+0x1000331f8>
100004914: c9 b9 00 94 	bl	0x100033038 <__ZN4core9panicking15panic_no_unwind17h6c18a18997fce2b1E>
100004918: c8 b9 00 94 	bl	0x100033038 <__ZN4core9panicking15panic_no_unwind17h6c18a18997fce2b1E>

000000010000491c <__ZN4core3ptr125drop_in_place$LT$addr2line..FrameIter$LT$gimli..read..endian_slice..EndianSlice$LT$gimli..endianity..LittleEndian$GT$$GT$$GT$17h82da6a195dc8e887E>:
10000491c: 08 48 40 b9 	ldr	w8, [x0, #72]
100004920: 08 0d 00 51 	sub	w8, w8, #3
100004924: 1f 09 00 71 	cmp	w8, #2
100004928: e3 00 00 54 	b.lo	0x100004944 <__ZN4core3ptr125drop_in_place$LT$addr2line..FrameIter$LT$gimli..read..endian_slice..EndianSlice$LT$gimli..endianity..LittleEndian$GT$$GT$$GT$17h82da6a195dc8e887E+0x28>
10000492c: 08 10 40 f9 	ldr	x8, [x0, #32]
100004930: a8 00 00 b4 	cbz	x8, 0x100004944 <__ZN4core3ptr125drop_in_place$LT$addr2line..FrameIter$LT$gimli..read..endian_slice..EndianSlice$LT$gimli..endianity..LittleEndian$GT$$GT$$GT$17h82da6a195dc8e887E+0x28>
100004934: 00 0c 40 f9 	ldr	x0, [x0, #24]
100004938: 01 f1 7d d3 	lsl	x1, x8, #3
10000493c: 02 01 80 52 	mov	w2, #8
100004940: 56 fd ff 17 	b	0x100003e98 <___rust_dealloc>
100004944: c0 03 5f d6 	ret

0000000100004948 <__ZN4core3ptr130drop_in_place$LT$gimli..read..dwarf..Dwarf$LT$gimli..read..endian_slice..EndianSlice$LT$gimli..endianity..LittleEndian$GT$$GT$$GT$17hf8304ef85e12dcdeE>:
100004948: 08 0c 4d f8 	ldr	x8, [x0, #208]!
10000494c: e8 00 00 b4 	cbz	x8, 0x100004968 <__ZN4core3ptr130drop_in_place$LT$gimli..read..dwarf..Dwarf$LT$gimli..read..endian_slice..EndianSlice$LT$gimli..endianity..LittleEndian$GT$$GT$$GT$17hf8304ef85e12dcdeE+0x20>
100004950: 09 00 80 92 	mov	x9, #-1
100004954: 08 01 69 f8 	<unknown>
100004958: 1f 05 00 f1 	cmp	x8, #1
10000495c: 61 00 00 54 	b.ne	0x100004968 <__ZN4core3ptr130drop_in_place$LT$gimli..read..dwarf..Dwarf$LT$gimli..read..endian_slice..EndianSlice$LT$gimli..endianity..LittleEndian$GT$$GT$$GT$17hf8304ef85e12dcdeE+0x20>
100004960: bf 39 03 d5 	dmb	ishld
100004964: ee 10 00 14 	b	0x100008d1c <__ZN5alloc4sync12Arc$LT$T$GT$9drop_slow17hcf501deffc79e7b4E>
100004968: c0 03 5f d6 	ret

000000010000496c <__ZN4core3ptr137drop_in_place$LT$gimli..read..dwarf..Unit$LT$gimli..read..endian_slice..EndianSlice$LT$gimli..endianity..LittleEndian$GT$$C$usize$GT$$GT$17hfb9496f1411e3790E>:
10000496c: f4 4f be a9 	stp	x20, x19, [sp, #-32]!
100004970: fd 7b 01 a9 	stp	x29, x30, [sp, #16]
100004974: fd 43 00 91 	add	x29, sp, #16
100004978: f3 03 00 aa 	mov	x19, x0
10000497c: 00 40 01 91 	add	x0, x0, #80
100004980: 5f 02 00 94 	bl	0x1000052fc <__ZN4core3ptr55drop_in_place$LT$gimli..read..abbrev..Abbreviations$GT$17h1d139e0b0f3172f2E>
100004984: 60 22 03 91 	add	x0, x19, #200
100004988: fd 7b 41 a9 	ldp	x29, x30, [sp, #16]
10000498c: f4 4f c2 a8 	ldp	x20, x19, [sp], #32
100004990: ca 00 00 14 	b	0x100004cb8 <__ZN4core3ptr181drop_in_place$LT$core..option..Option$LT$gimli..read..line..IncompleteLineProgram$LT$gimli..read..endian_slice..EndianSlice$LT$gimli..endianity..LittleEndian$GT$$C$usize$GT$$GT$$GT$17h0b51faac6ccccc8aE>
100004994: f4 03 00 aa 	mov	x20, x0
100004998: 60 22 03 91 	add	x0, x19, #200
10000499c: c7 00 00 94 	bl	0x100004cb8 <__ZN4core3ptr181drop_in_place$LT$core..option..Option$LT$gimli..read..line..IncompleteLineProgram$LT$gimli..read..endian_slice..EndianSlice$LT$gimli..endianity..LittleEndian$GT$$C$usize$GT$$GT$$GT$17h0b51faac6ccccc8aE>
1000049a0: e0 03 14 aa 	mov	x0, x20
1000049a4: 15 ba 00 94 	bl	0x1000331f8 <_write+0x1000331f8>

00000001000049a8 <__ZN4core3ptr144drop_in_place$LT$alloc..vec..Vec$LT$core..option..Option$LT$core..option..Option$LT$std..backtrace_rs..symbolize..gimli..Mapping$GT$$GT$$GT$$GT$17hff8f2df099685d4bE>:
1000049a8: f8 5f bc a9 	stp	x24, x23, [sp, #-64]!
1000049ac: f6 57 01 a9 	stp	x22, x21, [sp, #16]
1000049b0: f4 4f 02 a9 	stp	x20, x19, [sp, #32]
1000049b4: fd 7b 03 a9 	stp	x29, x30, [sp, #48]
1000049b8: fd c3 00 91 	add	x29, sp, #48
1000049bc: f3 03 00 aa 	mov	x19, x0
1000049c0: 08 08 40 f9 	ldr	x8, [x0, #16]
1000049c4: 08 02 00 b4 	cbz	x8, 0x100004a04 <__ZN4core3ptr144drop_in_place$LT$alloc..vec..Vec$LT$core..option..Option$LT$core..option..Option$LT$std..backtrace_rs..symbolize..gimli..Mapping$GT$$GT$$GT$$GT$17hff8f2df099685d4bE+0x5c>
1000049c8: 69 02 40 f9 	ldr	x9, [x19]
1000049cc: 08 dd 78 d3 	lsl	x8, x8, #8
1000049d0: 16 01 04 d1 	sub	x22, x8, #256
1000049d4: 34 01 04 91 	add	x20, x9, #256
1000049d8: 05 00 00 14 	b	0x1000049ec <__ZN4core3ptr144drop_in_place$LT$alloc..vec..Vec$LT$core..option..Option$LT$core..option..Option$LT$std..backtrace_rs..symbolize..gimli..Mapping$GT$$GT$$GT$$GT$17hff8f2df099685d4bE+0x44>
1000049dc: d6 02 04 d1 	sub	x22, x22, #256
1000049e0: 94 02 04 91 	add	x20, x20, #256
1000049e4: df 02 04 b1 	cmn	x22, #256
1000049e8: e0 00 00 54 	b.eq	0x100004a04 <__ZN4core3ptr144drop_in_place$LT$alloc..vec..Vec$LT$core..option..Option$LT$core..option..Option$LT$std..backtrace_rs..symbolize..gimli..Mapping$GT$$GT$$GT$$GT$17hff8f2df099685d4bE+0x5c>
1000049ec: 88 82 5b 38 	ldurb	w8, [x20, #-72]
1000049f0: 1f 05 00 71 	cmp	w8, #1
1000049f4: 48 ff ff 54 	b.hi	0x1000049dc <__ZN4core3ptr144drop_in_place$LT$alloc..vec..Vec$LT$core..option..Option$LT$core..option..Option$LT$std..backtrace_rs..symbolize..gimli..Mapping$GT$$GT$$GT$$GT$17hff8f2df099685d4bE+0x34>
1000049f8: 80 02 04 d1 	sub	x0, x20, #256
1000049fc: c3 02 00 94 	bl	0x100005508 <__ZN4core3ptr65drop_in_place$LT$std..backtrace_rs..symbolize..gimli..Mapping$GT$17h574b03714ff665bdE>
100004a00: f7 ff ff 17 	b	0x1000049dc <__ZN4core3ptr144drop_in_place$LT$alloc..vec..Vec$LT$core..option..Option$LT$core..option..Option$LT$std..backtrace_rs..symbolize..gimli..Mapping$GT$$GT$$GT$$GT$17hff8f2df099685d4bE+0x34>
100004a04: 68 06 40 f9 	ldr	x8, [x19, #8]
100004a08: 28 01 00 b4 	cbz	x8, 0x100004a2c <__ZN4core3ptr144drop_in_place$LT$alloc..vec..Vec$LT$core..option..Option$LT$core..option..Option$LT$std..backtrace_rs..symbolize..gimli..Mapping$GT$$GT$$GT$$GT$17hff8f2df099685d4bE+0x84>
100004a0c: 60 02 40 f9 	ldr	x0, [x19]
100004a10: 01 dd 78 d3 	lsl	x1, x8, #8
100004a14: 02 01 80 52 	mov	w2, #8
100004a18: fd 7b 43 a9 	ldp	x29, x30, [sp, #48]
100004a1c: f4 4f 42 a9 	ldp	x20, x19, [sp, #32]
100004a20: f6 57 41 a9 	ldp	x22, x21, [sp, #16]
100004a24: f8 5f c4 a8 	ldp	x24, x23, [sp], #64
100004a28: 1c fd ff 17 	b	0x100003e98 <___rust_dealloc>
100004a2c: fd 7b 43 a9 	ldp	x29, x30, [sp, #48]
100004a30: f4 4f 42 a9 	ldp	x20, x19, [sp, #32]
100004a34: f6 57 41 a9 	ldp	x22, x21, [sp, #16]
100004a38: f8 5f c4 a8 	ldp	x24, x23, [sp], #64
100004a3c: c0 03 5f d6 	ret
100004a40: f5 03 00 aa 	mov	x21, x0
100004a44: f6 00 00 b4 	cbz	x22, 0x100004a60 <__ZN4core3ptr144drop_in_place$LT$alloc..vec..Vec$LT$core..option..Option$LT$core..option..Option$LT$std..backtrace_rs..symbolize..gimli..Mapping$GT$$GT$$GT$$GT$17hff8f2df099685d4bE+0xb8>
100004a48: 97 02 04 91 	add	x23, x20, #256
100004a4c: d6 02 04 d1 	sub	x22, x22, #256
100004a50: e0 03 14 aa 	mov	x0, x20
100004a54: 44 ff ff 97 	bl	0x100004764 <__ZN4core3ptr121drop_in_place$LT$core..option..Option$LT$core..option..Option$LT$std..backtrace_rs..symbolize..gimli..Mapping$GT$$GT$$GT$17hbf85724863f1de0aE>
100004a58: f4 03 17 aa 	mov	x20, x23
100004a5c: fa ff ff 17 	b	0x100004a44 <__ZN4core3ptr144drop_in_place$LT$alloc..vec..Vec$LT$core..option..Option$LT$core..option..Option$LT$std..backtrace_rs..symbolize..gimli..Mapping$GT$$GT$$GT$$GT$17hff8f2df099685d4bE+0x9c>
100004a60: 60 06 40 a9 	ldp	x0, x1, [x19]
100004a64: 31 00 00 94 	bl	0x100004b28 <__ZN4core3ptr151drop_in_place$LT$alloc..raw_vec..RawVec$LT$core..option..Option$LT$core..option..Option$LT$std..backtrace_rs..symbolize..gimli..Mapping$GT$$GT$$GT$$GT$17hd4565a5a261ec359E>
100004a68: e0 03 15 aa 	mov	x0, x21
100004a6c: e3 b9 00 94 	bl	0x1000331f8 <_write+0x1000331f8>
100004a70: 72 b9 00 94 	bl	0x100033038 <__ZN4core9panicking15panic_no_unwind17h6c18a18997fce2b1E>

0000000100004a74 <__ZN4core3ptr146drop_in_place$LT$alloc..vec..Vec$LT$addr2line..ResUnit$LT$gimli..read..endian_slice..EndianSlice$LT$gimli..endianity..LittleEndian$GT$$GT$$GT$$GT$17h1e04429a84460984E>:
100004a74: f8 5f bc a9 	stp	x24, x23, [sp, #-64]!
100004a78: f6 57 01 a9 	stp	x22, x21, [sp, #16]
100004a7c: f4 4f 02 a9 	stp	x20, x19, [sp, #32]
100004a80: fd 7b 03 a9 	stp	x29, x30, [sp, #48]
100004a84: fd c3 00 91 	add	x29, sp, #48
100004a88: f3 03 00 aa 	mov	x19, x0
100004a8c: 00 00 40 f9 	ldr	x0, [x0]
100004a90: 68 0a 40 f9 	ldr	x8, [x19, #16]
100004a94: 09 46 80 52 	mov	w9, #560
100004a98: 16 7d 09 9b 	mul	x22, x8, x9
100004a9c: d6 00 00 b4 	cbz	x22, 0x100004ab4 <__ZN4core3ptr146drop_in_place$LT$alloc..vec..Vec$LT$addr2line..ResUnit$LT$gimli..read..endian_slice..EndianSlice$LT$gimli..endianity..LittleEndian$GT$$GT$$GT$$GT$17h1e04429a84460984E+0x40>
100004aa0: 14 c0 08 91 	add	x20, x0, #560
100004aa4: d6 c2 08 d1 	sub	x22, x22, #560
100004aa8: 34 ff ff 97 	bl	0x100004778 <__ZN4core3ptr123drop_in_place$LT$addr2line..ResUnit$LT$gimli..read..endian_slice..EndianSlice$LT$gimli..endianity..LittleEndian$GT$$GT$$GT$17h9d915724e59d4597E>
100004aac: e0 03 14 aa 	mov	x0, x20
100004ab0: fb ff ff 17 	b	0x100004a9c <__ZN4core3ptr146drop_in_place$LT$alloc..vec..Vec$LT$addr2line..ResUnit$LT$gimli..read..endian_slice..EndianSlice$LT$gimli..endianity..LittleEndian$GT$$GT$$GT$$GT$17h1e04429a84460984E+0x28>
100004ab4: 68 06 40 f9 	ldr	x8, [x19, #8]
100004ab8: 48 01 00 b4 	cbz	x8, 0x100004ae0 <__ZN4core3ptr146drop_in_place$LT$alloc..vec..Vec$LT$addr2line..ResUnit$LT$gimli..read..endian_slice..EndianSlice$LT$gimli..endianity..LittleEndian$GT$$GT$$GT$$GT$17h1e04429a84460984E+0x6c>
100004abc: 60 02 40 f9 	ldr	x0, [x19]
100004ac0: 09 46 80 52 	mov	w9, #560
100004ac4: 01 7d 09 9b 	mul	x1, x8, x9
100004ac8: 02 01 80 52 	mov	w2, #8
100004acc: fd 7b 43 a9 	ldp	x29, x30, [sp, #48]
100004ad0: f4 4f 42 a9 	ldp	x20, x19, [sp, #32]
100004ad4: f6 57 41 a9 	ldp	x22, x21, [sp, #16]
100004ad8: f8 5f c4 a8 	ldp	x24, x23, [sp], #64
100004adc: ef fc ff 17 	b	0x100003e98 <___rust_dealloc>
100004ae0: fd 7b 43 a9 	ldp	x29, x30, [sp, #48]
100004ae4: f4 4f 42 a9 	ldp	x20, x19, [sp, #32]
100004ae8: f6 57 41 a9 	ldp	x22, x21, [sp, #16]
100004aec: f8 5f c4 a8 	ldp	x24, x23, [sp], #64
100004af0: c0 03 5f d6 	ret
100004af4: f5 03 00 aa 	mov	x21, x0
100004af8: f6 00 00 b4 	cbz	x22, 0x100004b14 <__ZN4core3ptr146drop_in_place$LT$alloc..vec..Vec$LT$addr2line..ResUnit$LT$gimli..read..endian_slice..EndianSlice$LT$gimli..endianity..LittleEndian$GT$$GT$$GT$$GT$17h1e04429a84460984E+0xa0>
100004afc: 97 c2 08 91 	add	x23, x20, #560
100004b00: d6 c2 08 d1 	sub	x22, x22, #560
100004b04: e0 03 14 aa 	mov	x0, x20
100004b08: 1c ff ff 97 	bl	0x100004778 <__ZN4core3ptr123drop_in_place$LT$addr2line..ResUnit$LT$gimli..read..endian_slice..EndianSlice$LT$gimli..endianity..LittleEndian$GT$$GT$$GT$17h9d915724e59d4597E>
100004b0c: f4 03 17 aa 	mov	x20, x23
100004b10: fa ff ff 17 	b	0x100004af8 <__ZN4core3ptr146drop_in_place$LT$alloc..vec..Vec$LT$addr2line..ResUnit$LT$gimli..read..endian_slice..EndianSlice$LT$gimli..endianity..LittleEndian$GT$$GT$$GT$$GT$17h1e04429a84460984E+0x84>
100004b14: 60 06 40 a9 	ldp	x0, x1, [x19]
100004b18: 09 00 00 94 	bl	0x100004b3c <__ZN4core3ptr153drop_in_place$LT$alloc..raw_vec..RawVec$LT$addr2line..ResUnit$LT$gimli..read..endian_slice..EndianSlice$LT$gimli..endianity..LittleEndian$GT$$GT$$GT$$GT$17hf460a5d462258e5cE>
100004b1c: e0 03 15 aa 	mov	x0, x21
100004b20: b6 b9 00 94 	bl	0x1000331f8 <_write+0x1000331f8>
100004b24: 45 b9 00 94 	bl	0x100033038 <__ZN4core9panicking15panic_no_unwind17h6c18a18997fce2b1E>

0000000100004b28 <__ZN4core3ptr151drop_in_place$LT$alloc..raw_vec..RawVec$LT$core..option..Option$LT$core..option..Option$LT$std..backtrace_rs..symbolize..gimli..Mapping$GT$$GT$$GT$$GT$17hd4565a5a261ec359E>:
100004b28: 81 00 00 b4 	cbz	x1, 0x100004b38 <__ZN4core3ptr151drop_in_place$LT$alloc..raw_vec..RawVec$LT$core..option..Option$LT$core..option..Option$LT$std..backtrace_rs..symbolize..gimli..Mapping$GT$$GT$$GT$$GT$17hd4565a5a261ec359E+0x10>
100004b2c: 21 dc 78 d3 	lsl	x1, x1, #8
100004b30: 02 01 80 52 	mov	w2, #8
100004b34: d9 fc ff 17 	b	0x100003e98 <___rust_dealloc>
100004b38: c0 03 5f d6 	ret

0000000100004b3c <__ZN4core3ptr153drop_in_place$LT$alloc..raw_vec..RawVec$LT$addr2line..ResUnit$LT$gimli..read..endian_slice..EndianSlice$LT$gimli..endianity..LittleEndian$GT$$GT$$GT$$GT$17hf460a5d462258e5cE>:
100004b3c: a1 00 00 b4 	cbz	x1, 0x100004b50 <__ZN4core3ptr153drop_in_place$LT$alloc..raw_vec..RawVec$LT$addr2line..ResUnit$LT$gimli..read..endian_slice..EndianSlice$LT$gimli..endianity..LittleEndian$GT$$GT$$GT$$GT$17hf460a5d462258e5cE+0x14>
100004b40: 08 46 80 52 	mov	w8, #560
100004b44: 21 7c 08 9b 	mul	x1, x1, x8
100004b48: 02 01 80 52 	mov	w2, #8
100004b4c: d3 fc ff 17 	b	0x100003e98 <___rust_dealloc>
100004b50: c0 03 5f d6 	ret

0000000100004b54 <__ZN4core3ptr154drop_in_place$LT$alloc..sync..Arc$LT$gimli..read..dwarf..Dwarf$LT$gimli..read..endian_slice..EndianSlice$LT$gimli..endianity..LittleEndian$GT$$GT$$GT$$GT$17h1ea27cc647d27ec1E>:
100004b54: 08 00 40 f9 	ldr	x8, [x0]
100004b58: 09 00 80 92 	mov	x9, #-1
100004b5c: 08 01 69 f8 	<unknown>
100004b60: 1f 05 00 f1 	cmp	x8, #1
100004b64: 61 00 00 54 	b.ne	0x100004b70 <__ZN4core3ptr154drop_in_place$LT$alloc..sync..Arc$LT$gimli..read..dwarf..Dwarf$LT$gimli..read..endian_slice..EndianSlice$LT$gimli..endianity..LittleEndian$GT$$GT$$GT$$GT$17h1ea27cc647d27ec1E+0x1c>
100004b68: bf 39 03 d5 	dmb	ishld
100004b6c: 6c 10 00 14 	b	0x100008d1c <__ZN5alloc4sync12Arc$LT$T$GT$9drop_slow17hcf501deffc79e7b4E>
100004b70: c0 03 5f d6 	ret

0000000100004b74 <__ZN4core3ptr159drop_in_place$LT$alloc..sync..ArcInner$LT$gimli..read..dwarf..Dwarf$LT$gimli..read..endian_slice..EndianSlice$LT$gimli..endianity..LittleEndian$GT$$GT$$GT$$GT$17h6889d75acf9d03e9E>:
100004b74: 08 0c 4e f8 	ldr	x8, [x0, #224]!
100004b78: e8 00 00 b4 	cbz	x8, 0x100004b94 <__ZN4core3ptr159drop_in_place$LT$alloc..sync..ArcInner$LT$gimli..read..dwarf..Dwarf$LT$gimli..read..endian_slice..EndianSlice$LT$gimli..endianity..LittleEndian$GT$$GT$$GT$$GT$17h6889d75acf9d03e9E+0x20>
100004b7c: 09 00 80 92 	mov	x9, #-1
100004b80: 08 01 69 f8 	<unknown>
100004b84: 1f 05 00 f1 	cmp	x8, #1
100004b88: 61 00 00 54 	b.ne	0x100004b94 <__ZN4core3ptr159drop_in_place$LT$alloc..sync..ArcInner$LT$gimli..read..dwarf..Dwarf$LT$gimli..read..endian_slice..EndianSlice$LT$gimli..endianity..LittleEndian$GT$$GT$$GT$$GT$17h6889d75acf9d03e9E+0x20>
100004b8c: bf 39 03 d5 	dmb	ishld
100004b90: 63 10 00 14 	b	0x100008d1c <__ZN5alloc4sync12Arc$LT$T$GT$9drop_slow17hcf501deffc79e7b4E>
100004b94: c0 03 5f d6 	ret

0000000100004b98 <__ZN4core3ptr164drop_in_place$LT$alloc..vec..Vec$LT$addr2line..function..InlinedFunction$LT$gimli..read..endian_slice..EndianSlice$LT$gimli..endianity..LittleEndian$GT$$GT$$GT$$GT$17h0df67d41b6075512E>:
100004b98: 08 04 40 f9 	ldr	x8, [x0, #8]
100004b9c: c8 00 00 b4 	cbz	x8, 0x100004bb4 <__ZN4core3ptr164drop_in_place$LT$alloc..vec..Vec$LT$addr2line..function..InlinedFunction$LT$gimli..read..endian_slice..EndianSlice$LT$gimli..endianity..LittleEndian$GT$$GT$$GT$$GT$17h0df67d41b6075512E+0x1c>
100004ba0: 00 00 40 f9 	ldr	x0, [x0]
100004ba4: 08 09 08 8b 	add	x8, x8, x8, lsl #2
100004ba8: 01 f1 7d d3 	lsl	x1, x8, #3
100004bac: 02 01 80 52 	mov	w2, #8
100004bb0: ba fc ff 17 	b	0x100003e98 <___rust_dealloc>
100004bb4: c0 03 5f d6 	ret

0000000100004bb8 <__ZN4core3ptr164drop_in_place$LT$alloc..vec..Vec$LT$gimli..read..line..FileEntry$LT$gimli..read..endian_slice..EndianSlice$LT$gimli..endianity..LittleEndian$GT$$C$usize$GT$$GT$$GT$17h8d8fce60fec3ad88E>:
100004bb8: 08 04 40 f9 	ldr	x8, [x0, #8]
100004bbc: a8 00 00 b4 	cbz	x8, 0x100004bd0 <__ZN4core3ptr164drop_in_place$LT$alloc..vec..Vec$LT$gimli..read..line..FileEntry$LT$gimli..read..endian_slice..EndianSlice$LT$gimli..endianity..LittleEndian$GT$$C$usize$GT$$GT$$GT$17h8d8fce60fec3ad88E+0x18>
100004bc0: 00 00 40 f9 	ldr	x0, [x0]
100004bc4: 01 e5 7a d3 	lsl	x1, x8, #6
100004bc8: 02 01 80 52 	mov	w2, #8
100004bcc: b3 fc ff 17 	b	0x100003e98 <___rust_dealloc>
100004bd0: c0 03 5f d6 	ret

0000000100004bd4 <__ZN4core3ptr168drop_in_place$LT$alloc..vec..Vec$LT$$RF$addr2line..function..InlinedFunction$LT$gimli..read..endian_slice..EndianSlice$LT$gimli..endianity..LittleEndian$GT$$GT$$GT$$GT$17h46a7929e5c089a88E>:
100004bd4: 81 00 00 b4 	cbz	x1, 0x100004be4 <__ZN4core3ptr168drop_in_place$LT$alloc..vec..Vec$LT$$RF$addr2line..function..InlinedFunction$LT$gimli..read..endian_slice..EndianSlice$LT$gimli..endianity..LittleEndian$GT$$GT$$GT$$GT$17h46a7929e5c089a88E+0x10>
100004bd8: 21 f0 7d d3 	lsl	x1, x1, #3
100004bdc: 02 01 80 52 	mov	w2, #8
100004be0: ae fc ff 17 	b	0x100003e98 <___rust_dealloc>
100004be4: c0 03 5f d6 	ret

0000000100004be8 <__ZN4core3ptr169drop_in_place$LT$alloc..vec..Vec$LT$gimli..read..unit..AttributeValue$LT$gimli..read..endian_slice..EndianSlice$LT$gimli..endianity..LittleEndian$GT$$C$usize$GT$$GT$$GT$17h44376d3cb938dca0E>:
100004be8: 08 04 40 f9 	ldr	x8, [x0, #8]
100004bec: c8 00 00 b4 	cbz	x8, 0x100004c04 <__ZN4core3ptr169drop_in_place$LT$alloc..vec..Vec$LT$gimli..read..unit..AttributeValue$LT$gimli..read..endian_slice..EndianSlice$LT$gimli..endianity..LittleEndian$GT$$C$usize$GT$$GT$$GT$17h44376d3cb938dca0E+0x1c>
100004bf0: 00 00 40 f9 	ldr	x0, [x0]
100004bf4: 08 05 08 8b 	add	x8, x8, x8, lsl #1
100004bf8: 01 f1 7d d3 	lsl	x1, x8, #3
100004bfc: 02 01 80 52 	mov	w2, #8
100004c00: a6 fc ff 17 	b	0x100003e98 <___rust_dealloc>
100004c04: c0 03 5f d6 	ret

0000000100004c08 <__ZN4core3ptr175drop_in_place$LT$std..sys_common..remutex..ReentrantMutexGuard$LT$core..cell..RefCell$LT$std..io..buffered..linewriter..LineWriter$LT$std..io..stdio..StdoutRaw$GT$$GT$$GT$$GT$17h2186a3a41b5456f0E>:
100004c08: fd 7b bf a9 	stp	x29, x30, [sp, #-16]!
100004c0c: fd 03 00 91 	mov	x29, sp
100004c10: 08 38 40 b9 	ldr	w8, [x0, #56]
100004c14: 08 05 00 71 	subs	w8, w8, #1
100004c18: 08 38 00 b9 	str	w8, [x0, #56]
100004c1c: 60 00 00 54 	b.eq	0x100004c28 <__ZN4core3ptr175drop_in_place$LT$std..sys_common..remutex..ReentrantMutexGuard$LT$core..cell..RefCell$LT$std..io..buffered..linewriter..LineWriter$LT$std..io..stdio..StdoutRaw$GT$$GT$$GT$$GT$17h2186a3a41b5456f0E+0x20>
100004c20: fd 7b c1 a8 	ldp	x29, x30, [sp], #16
100004c24: c0 03 5f d6 	ret
100004c28: 1f 04 00 f9 	str	xzr, [x0, #8]
100004c2c: 08 fc df c8 	ldar	x8, [x0]
100004c30: 88 00 00 b4 	cbz	x8, 0x100004c40 <__ZN4core3ptr175drop_in_place$LT$std..sys_common..remutex..ReentrantMutexGuard$LT$core..cell..RefCell$LT$std..io..buffered..linewriter..LineWriter$LT$std..io..stdio..StdoutRaw$GT$$GT$$GT$$GT$17h2186a3a41b5456f0E+0x38>
100004c34: e0 03 08 aa 	mov	x0, x8
100004c38: fd 7b c1 a8 	ldp	x29, x30, [sp], #16
100004c3c: de b9 00 14 	b	0x1000333b4 <_write+0x1000333b4>
100004c40: 43 b8 00 94 	bl	0x100032d4c <__ZN3std10sys_common8lazy_box16LazyBox$LT$T$GT$10initialize17h16c7db01e7843ab7E>
100004c44: e8 03 00 aa 	mov	x8, x0
100004c48: fb ff ff 17 	b	0x100004c34 <__ZN4core3ptr175drop_in_place$LT$std..sys_common..remutex..ReentrantMutexGuard$LT$core..cell..RefCell$LT$std..io..buffered..linewriter..LineWriter$LT$std..io..stdio..StdoutRaw$GT$$GT$$GT$$GT$17h2186a3a41b5456f0E+0x2c>

0000000100004c4c <__ZN4core3ptr176drop_in_place$LT$alloc..boxed..Box$LT$$u5b$addr2line..function..InlinedFunction$LT$gimli..read..endian_slice..EndianSlice$LT$gimli..endianity..LittleEndian$GT$$GT$$u5d$$GT$$GT$17h578f690ebd767693E>:
100004c4c: a1 00 00 b4 	cbz	x1, 0x100004c60 <__ZN4core3ptr176drop_in_place$LT$alloc..boxed..Box$LT$$u5b$addr2line..function..InlinedFunction$LT$gimli..read..endian_slice..EndianSlice$LT$gimli..endianity..LittleEndian$GT$$GT$$u5d$$GT$$GT$17h578f690ebd767693E+0x14>
100004c50: 28 08 01 8b 	add	x8, x1, x1, lsl #2
100004c54: 01 f1 7d d3 	lsl	x1, x8, #3
100004c58: 02 01 80 52 	mov	w2, #8
100004c5c: 8f fc ff 17 	b	0x100003e98 <___rust_dealloc>
100004c60: c0 03 5f d6 	ret

0000000100004c64 <__ZN4core3ptr177drop_in_place$LT$core..option..Option$LT$alloc..boxed..Box$LT$addr2line..ResDwarf$LT$gimli..read..endian_slice..EndianSlice$LT$gimli..endianity..LittleEndian$GT$$GT$$GT$$GT$$GT$17h1615791fca9aa813E>:
100004c64: f4 4f be a9 	stp	x20, x19, [sp, #-32]!
100004c68: fd 7b 01 a9 	stp	x29, x30, [sp, #16]
100004c6c: fd 43 00 91 	add	x29, sp, #16
100004c70: f3 03 00 aa 	mov	x19, x0
100004c74: 00 00 40 f9 	ldr	x0, [x0]
100004c78: 00 01 00 b4 	cbz	x0, 0x100004c98 <__ZN4core3ptr177drop_in_place$LT$core..option..Option$LT$alloc..boxed..Box$LT$addr2line..ResDwarf$LT$gimli..read..endian_slice..EndianSlice$LT$gimli..endianity..LittleEndian$GT$$GT$$GT$$GT$$GT$17h1615791fca9aa813E+0x34>
100004c7c: dd fe ff 97 	bl	0x1000047f0 <__ZN4core3ptr124drop_in_place$LT$addr2line..ResDwarf$LT$gimli..read..endian_slice..EndianSlice$LT$gimli..endianity..LittleEndian$GT$$GT$$GT$17h8f8473b5bf1b27a8E>
100004c80: 60 02 40 f9 	ldr	x0, [x19]
100004c84: 01 08 80 52 	mov	w1, #64
100004c88: 02 01 80 52 	mov	w2, #8
100004c8c: fd 7b 41 a9 	ldp	x29, x30, [sp, #16]
100004c90: f4 4f c2 a8 	ldp	x20, x19, [sp], #32
100004c94: 81 fc ff 17 	b	0x100003e98 <___rust_dealloc>
100004c98: fd 7b 41 a9 	ldp	x29, x30, [sp, #16]
100004c9c: f4 4f c2 a8 	ldp	x20, x19, [sp], #32
100004ca0: c0 03 5f d6 	ret
100004ca4: f4 03 00 aa 	mov	x20, x0
100004ca8: 60 02 40 f9 	ldr	x0, [x19]
100004cac: 3d 10 00 94 	bl	0x100008da0 <__ZN5alloc5alloc8box_free17h1af77f2d954fc56bE>
100004cb0: e0 03 14 aa 	mov	x0, x20
100004cb4: 51 b9 00 94 	bl	0x1000331f8 <_write+0x1000331f8>

0000000100004cb8 <__ZN4core3ptr181drop_in_place$LT$core..option..Option$LT$gimli..read..line..IncompleteLineProgram$LT$gimli..read..endian_slice..EndianSlice$LT$gimli..endianity..LittleEndian$GT$$C$usize$GT$$GT$$GT$17h0b51faac6ccccc8aE>:
100004cb8: f4 4f be a9 	stp	x20, x19, [sp, #-32]!
100004cbc: fd 7b 01 a9 	stp	x29, x30, [sp, #16]
100004cc0: fd 43 00 91 	add	x29, sp, #16
100004cc4: 08 54 40 f9 	ldr	x8, [x0, #168]
100004cc8: 1f bd 00 f1 	cmp	x8, #47
100004ccc: a0 03 00 54 	b.eq	0x100004d40 <__ZN4core3ptr181drop_in_place$LT$core..option..Option$LT$gimli..read..line..IncompleteLineProgram$LT$gimli..read..endian_slice..EndianSlice$LT$gimli..endianity..LittleEndian$GT$$C$usize$GT$$GT$$GT$17h0b51faac6ccccc8aE+0x88>
100004cd0: f3 03 00 aa 	mov	x19, x0
100004cd4: 08 18 40 f9 	ldr	x8, [x0, #48]
100004cd8: a8 00 00 b4 	cbz	x8, 0x100004cec <__ZN4core3ptr181drop_in_place$LT$core..option..Option$LT$gimli..read..line..IncompleteLineProgram$LT$gimli..read..endian_slice..EndianSlice$LT$gimli..endianity..LittleEndian$GT$$C$usize$GT$$GT$$GT$17h0b51faac6ccccc8aE+0x34>
100004cdc: 60 16 40 f9 	ldr	x0, [x19, #40]
100004ce0: 01 f5 7e d3 	lsl	x1, x8, #2
100004ce4: 42 00 80 52 	mov	w2, #2
100004ce8: 6c fc ff 97 	bl	0x100003e98 <___rust_dealloc>
100004cec: 68 26 40 f9 	ldr	x8, [x19, #72]
100004cf0: c8 00 00 b4 	cbz	x8, 0x100004d08 <__ZN4core3ptr181drop_in_place$LT$core..option..Option$LT$gimli..read..line..IncompleteLineProgram$LT$gimli..read..endian_slice..EndianSlice$LT$gimli..endianity..LittleEndian$GT$$C$usize$GT$$GT$$GT$17h0b51faac6ccccc8aE+0x50>
100004cf4: 60 22 40 f9 	ldr	x0, [x19, #64]
100004cf8: 08 05 08 8b 	add	x8, x8, x8, lsl #1
100004cfc: 01 f1 7d d3 	lsl	x1, x8, #3
100004d00: 02 01 80 52 	mov	w2, #8
100004d04: 65 fc ff 97 	bl	0x100003e98 <___rust_dealloc>
100004d08: 68 32 40 f9 	ldr	x8, [x19, #96]
100004d0c: a8 00 00 b4 	cbz	x8, 0x100004d20 <__ZN4core3ptr181drop_in_place$LT$core..option..Option$LT$gimli..read..line..IncompleteLineProgram$LT$gimli..read..endian_slice..EndianSlice$LT$gimli..endianity..LittleEndian$GT$$C$usize$GT$$GT$$GT$17h0b51faac6ccccc8aE+0x68>
100004d10: 60 2e 40 f9 	ldr	x0, [x19, #88]
100004d14: 01 f5 7e d3 	lsl	x1, x8, #2
100004d18: 42 00 80 52 	mov	w2, #2
100004d1c: 5f fc ff 97 	bl	0x100003e98 <___rust_dealloc>
100004d20: 68 3e 40 f9 	ldr	x8, [x19, #120]
100004d24: e8 00 00 b4 	cbz	x8, 0x100004d40 <__ZN4core3ptr181drop_in_place$LT$core..option..Option$LT$gimli..read..line..IncompleteLineProgram$LT$gimli..read..endian_slice..EndianSlice$LT$gimli..endianity..LittleEndian$GT$$C$usize$GT$$GT$$GT$17h0b51faac6ccccc8aE+0x88>
100004d28: 60 3a 40 f9 	ldr	x0, [x19, #112]
100004d2c: 01 e5 7a d3 	lsl	x1, x8, #6
100004d30: 02 01 80 52 	mov	w2, #8
100004d34: fd 7b 41 a9 	ldp	x29, x30, [sp, #16]
100004d38: f4 4f c2 a8 	ldp	x20, x19, [sp], #32
100004d3c: 57 fc ff 17 	b	0x100003e98 <___rust_dealloc>
100004d40: fd 7b 41 a9 	ldp	x29, x30, [sp, #16]
100004d44: f4 4f c2 a8 	ldp	x20, x19, [sp], #32
100004d48: c0 03 5f d6 	ret

0000000100004d4c <__ZN4core3ptr184drop_in_place$LT$core..result..Result$LT$addr2line..function..Functions$LT$gimli..read..endian_slice..EndianSlice$LT$gimli..endianity..LittleEndian$GT$$GT$$C$gimli..read..Error$GT$$GT$17h6ed088d4b4771bcbE>:
100004d4c: f6 57 bd a9 	stp	x22, x21, [sp, #-48]!
100004d50: f4 4f 01 a9 	stp	x20, x19, [sp, #16]
100004d54: fd 7b 02 a9 	stp	x29, x30, [sp, #32]
100004d58: fd 83 00 91 	add	x29, sp, #32
100004d5c: 08 00 40 f9 	ldr	x8, [x0]
100004d60: a8 05 00 b4 	cbz	x8, 0x100004e14 <__ZN4core3ptr184drop_in_place$LT$core..result..Result$LT$addr2line..function..Functions$LT$gimli..read..endian_slice..EndianSlice$LT$gimli..endianity..LittleEndian$GT$$GT$$C$gimli..read..Error$GT$$GT$17h6ed088d4b4771bcbE+0xc8>
100004d64: f3 03 00 aa 	mov	x19, x0
100004d68: 09 04 40 f9 	ldr	x9, [x0, #8]
100004d6c: 09 04 00 b4 	cbz	x9, 0x100004dec <__ZN4core3ptr184drop_in_place$LT$core..result..Result$LT$addr2line..function..Functions$LT$gimli..read..endian_slice..EndianSlice$LT$gimli..endianity..LittleEndian$GT$$GT$$C$gimli..read..Error$GT$$GT$17h6ed088d4b4771bcbE+0xa0>
100004d70: 14 01 01 91 	add	x20, x8, #64
100004d74: 28 0d 09 8b 	add	x8, x9, x9, lsl #3
100004d78: 15 f1 7d d3 	lsl	x21, x8, #3
100004d7c: 04 00 00 14 	b	0x100004d8c <__ZN4core3ptr184drop_in_place$LT$core..result..Result$LT$addr2line..function..Functions$LT$gimli..read..endian_slice..EndianSlice$LT$gimli..endianity..LittleEndian$GT$$GT$$C$gimli..read..Error$GT$$GT$17h6ed088d4b4771bcbE+0x40>
100004d80: 94 22 01 91 	add	x20, x20, #72
100004d84: b5 22 01 f1 	subs	x21, x21, #72
100004d88: 40 02 00 54 	b.eq	0x100004dd0 <__ZN4core3ptr184drop_in_place$LT$core..result..Result$LT$addr2line..function..Functions$LT$gimli..read..endian_slice..EndianSlice$LT$gimli..endianity..LittleEndian$GT$$GT$$C$gimli..read..Error$GT$$GT$17h6ed088d4b4771bcbE+0x84>
100004d8c: 88 82 5c f8 	ldur	x8, [x20, #-56]
100004d90: 88 ff ff b4 	cbz	x8, 0x100004d80 <__ZN4core3ptr184drop_in_place$LT$core..result..Result$LT$addr2line..function..Functions$LT$gimli..read..endian_slice..EndianSlice$LT$gimli..endianity..LittleEndian$GT$$GT$$C$gimli..read..Error$GT$$GT$17h6ed088d4b4771bcbE+0x34>
100004d94: 80 82 5e f8 	ldur	x0, [x20, #-24]
100004d98: 40 ff ff b4 	cbz	x0, 0x100004d80 <__ZN4core3ptr184drop_in_place$LT$core..result..Result$LT$addr2line..function..Functions$LT$gimli..read..endian_slice..EndianSlice$LT$gimli..endianity..LittleEndian$GT$$GT$$C$gimli..read..Error$GT$$GT$17h6ed088d4b4771bcbE+0x34>
100004d9c: 88 02 5f f8 	ldur	x8, [x20, #-16]
100004da0: a8 00 00 b4 	cbz	x8, 0x100004db4 <__ZN4core3ptr184drop_in_place$LT$core..result..Result$LT$addr2line..function..Functions$LT$gimli..read..endian_slice..EndianSlice$LT$gimli..endianity..LittleEndian$GT$$GT$$C$gimli..read..Error$GT$$GT$17h6ed088d4b4771bcbE+0x68>
100004da4: 08 09 08 8b 	add	x8, x8, x8, lsl #2
100004da8: 01 f1 7d d3 	lsl	x1, x8, #3
100004dac: 02 01 80 52 	mov	w2, #8
100004db0: 3a fc ff 97 	bl	0x100003e98 <___rust_dealloc>
100004db4: 88 02 40 f9 	ldr	x8, [x20]
100004db8: 48 fe ff b4 	cbz	x8, 0x100004d80 <__ZN4core3ptr184drop_in_place$LT$core..result..Result$LT$addr2line..function..Functions$LT$gimli..read..endian_slice..EndianSlice$LT$gimli..endianity..LittleEndian$GT$$GT$$C$gimli..read..Error$GT$$GT$17h6ed088d4b4771bcbE+0x34>
100004dbc: 80 82 5f f8 	ldur	x0, [x20, #-8]
100004dc0: 01 e9 7b d3 	lsl	x1, x8, #5
100004dc4: 02 01 80 52 	mov	w2, #8
100004dc8: 34 fc ff 97 	bl	0x100003e98 <___rust_dealloc>
100004dcc: ed ff ff 17 	b	0x100004d80 <__ZN4core3ptr184drop_in_place$LT$core..result..Result$LT$addr2line..function..Functions$LT$gimli..read..endian_slice..EndianSlice$LT$gimli..endianity..LittleEndian$GT$$GT$$C$gimli..read..Error$GT$$GT$17h6ed088d4b4771bcbE+0x34>
100004dd0: 68 06 40 f9 	ldr	x8, [x19, #8]
100004dd4: c8 00 00 b4 	cbz	x8, 0x100004dec <__ZN4core3ptr184drop_in_place$LT$core..result..Result$LT$addr2line..function..Functions$LT$gimli..read..endian_slice..EndianSlice$LT$gimli..endianity..LittleEndian$GT$$GT$$C$gimli..read..Error$GT$$GT$17h6ed088d4b4771bcbE+0xa0>
100004dd8: 60 02 40 f9 	ldr	x0, [x19]
100004ddc: 08 0d 08 8b 	add	x8, x8, x8, lsl #3
100004de0: 01 f1 7d d3 	lsl	x1, x8, #3
100004de4: 02 01 80 52 	mov	w2, #8
100004de8: 2c fc ff 97 	bl	0x100003e98 <___rust_dealloc>
100004dec: 68 0e 40 f9 	ldr	x8, [x19, #24]
100004df0: 28 01 00 b4 	cbz	x8, 0x100004e14 <__ZN4core3ptr184drop_in_place$LT$core..result..Result$LT$addr2line..function..Functions$LT$gimli..read..endian_slice..EndianSlice$LT$gimli..endianity..LittleEndian$GT$$GT$$C$gimli..read..Error$GT$$GT$17h6ed088d4b4771bcbE+0xc8>
100004df4: 60 0a 40 f9 	ldr	x0, [x19, #16]
100004df8: 08 05 08 8b 	add	x8, x8, x8, lsl #1
100004dfc: 01 f1 7d d3 	lsl	x1, x8, #3
100004e00: 02 01 80 52 	mov	w2, #8
100004e04: fd 7b 42 a9 	ldp	x29, x30, [sp, #32]
100004e08: f4 4f 41 a9 	ldp	x20, x19, [sp, #16]
100004e0c: f6 57 c3 a8 	ldp	x22, x21, [sp], #48
100004e10: 22 fc ff 17 	b	0x100003e98 <___rust_dealloc>
100004e14: fd 7b 42 a9 	ldp	x29, x30, [sp, #32]
100004e18: f4 4f 41 a9 	ldp	x20, x19, [sp, #16]
100004e1c: f6 57 c3 a8 	ldp	x22, x21, [sp], #48
100004e20: c0 03 5f d6 	ret

0000000100004e24 <__ZN4core3ptr205drop_in_place$LT$$LT$alloc..boxed..Box$LT$dyn$u20$core..error..Error$u2b$core..marker..Send$u2b$core..marker..Sync$GT$$u20$as$u20$core..convert..From$LT$alloc..string..String$GT$$GT$..from..StringError$GT$17hefc62b84e80df53bE>:
100004e24: 01 04 40 f9 	ldr	x1, [x0, #8]
100004e28: a1 00 00 b4 	cbz	x1, 0x100004e3c <__ZN4core3ptr205drop_in_place$LT$$LT$alloc..boxed..Box$LT$dyn$u20$core..error..Error$u2b$core..marker..Send$u2b$core..marker..Sync$GT$$u20$as$u20$core..convert..From$LT$alloc..string..String$GT$$GT$..from..StringError$GT$17hefc62b84e80df53bE+0x18>
100004e2c: 00 00 40 f9 	ldr	x0, [x0]
100004e30: e8 03 21 aa 	mvn	x8, x1
100004e34: 02 fd 7f d3 	lsr	x2, x8, #63
100004e38: 18 fc ff 17 	b	0x100003e98 <___rust_dealloc>
100004e3c: c0 03 5f d6 	ret

0000000100004e40 <__ZN4core3ptr217drop_in_place$LT$addr2line..lazy..LazyCell$LT$core..result..Result$LT$addr2line..function..Functions$LT$gimli..read..endian_slice..EndianSlice$LT$gimli..endianity..LittleEndian$GT$$GT$$C$gimli..read..Error$GT$$GT$$GT$17h9966a3abac459575E>:
100004e40: 08 00 40 f9 	ldr	x8, [x0]
100004e44: 68 00 00 b4 	cbz	x8, 0x100004e50 <__ZN4core3ptr217drop_in_place$LT$addr2line..lazy..LazyCell$LT$core..result..Result$LT$addr2line..function..Functions$LT$gimli..read..endian_slice..EndianSlice$LT$gimli..endianity..LittleEndian$GT$$GT$$C$gimli..read..Error$GT$$GT$$GT$17h9966a3abac459575E+0x10>
100004e48: 00 20 00 91 	add	x0, x0, #8
100004e4c: c0 ff ff 17 	b	0x100004d4c <__ZN4core3ptr184drop_in_place$LT$core..result..Result$LT$addr2line..function..Functions$LT$gimli..read..endian_slice..EndianSlice$LT$gimli..endianity..LittleEndian$GT$$GT$$C$gimli..read..Error$GT$$GT$17h6ed088d4b4771bcbE>
100004e50: c0 03 5f d6 	ret

0000000100004e54 <__ZN4core3ptr256drop_in_place$LT$$LP$gimli..read..unit..UnitOffset$C$addr2line..lazy..LazyCell$LT$core..result..Result$LT$addr2line..function..Function$LT$gimli..read..endian_slice..EndianSlice$LT$gimli..endianity..LittleEndian$GT$$GT$$C$gimli..read..Error$GT$$GT$$RP$$GT$17h5b15e5e7083aac9bE>:
100004e54: f4 4f be a9 	stp	x20, x19, [sp, #-32]!
100004e58: fd 7b 01 a9 	stp	x29, x30, [sp, #16]
100004e5c: fd 43 00 91 	add	x29, sp, #16
100004e60: 08 04 40 f9 	ldr	x8, [x0, #8]
100004e64: 48 02 00 b4 	cbz	x8, 0x100004eac <__ZN4core3ptr256drop_in_place$LT$$LP$gimli..read..unit..UnitOffset$C$addr2line..lazy..LazyCell$LT$core..result..Result$LT$addr2line..function..Function$LT$gimli..read..endian_slice..EndianSlice$LT$gimli..endianity..LittleEndian$GT$$GT$$C$gimli..read..Error$GT$$GT$$RP$$GT$17h5b15e5e7083aac9bE+0x58>
100004e68: f3 03 00 aa 	mov	x19, x0
100004e6c: 00 14 40 f9 	ldr	x0, [x0, #40]
100004e70: e0 01 00 b4 	cbz	x0, 0x100004eac <__ZN4core3ptr256drop_in_place$LT$$LP$gimli..read..unit..UnitOffset$C$addr2line..lazy..LazyCell$LT$core..result..Result$LT$addr2line..function..Function$LT$gimli..read..endian_slice..EndianSlice$LT$gimli..endianity..LittleEndian$GT$$GT$$C$gimli..read..Error$GT$$GT$$RP$$GT$17h5b15e5e7083aac9bE+0x58>
100004e74: 68 1a 40 f9 	ldr	x8, [x19, #48]
100004e78: a8 00 00 b4 	cbz	x8, 0x100004e8c <__ZN4core3ptr256drop_in_place$LT$$LP$gimli..read..unit..UnitOffset$C$addr2line..lazy..LazyCell$LT$core..result..Result$LT$addr2line..function..Function$LT$gimli..read..endian_slice..EndianSlice$LT$gimli..endianity..LittleEndian$GT$$GT$$C$gimli..read..Error$GT$$GT$$RP$$GT$17h5b15e5e7083aac9bE+0x38>
100004e7c: 08 09 08 8b 	add	x8, x8, x8, lsl #2
100004e80: 01 f1 7d d3 	lsl	x1, x8, #3
100004e84: 02 01 80 52 	mov	w2, #8
100004e88: 04 fc ff 97 	bl	0x100003e98 <___rust_dealloc>
100004e8c: 68 22 40 f9 	ldr	x8, [x19, #64]
100004e90: e8 00 00 b4 	cbz	x8, 0x100004eac <__ZN4core3ptr256drop_in_place$LT$$LP$gimli..read..unit..UnitOffset$C$addr2line..lazy..LazyCell$LT$core..result..Result$LT$addr2line..function..Function$LT$gimli..read..endian_slice..EndianSlice$LT$gimli..endianity..LittleEndian$GT$$GT$$C$gimli..read..Error$GT$$GT$$RP$$GT$17h5b15e5e7083aac9bE+0x58>
100004e94: 60 1e 40 f9 	ldr	x0, [x19, #56]
100004e98: 01 e9 7b d3 	lsl	x1, x8, #5
100004e9c: 02 01 80 52 	mov	w2, #8
100004ea0: fd 7b 41 a9 	ldp	x29, x30, [sp, #16]
100004ea4: f4 4f c2 a8 	ldp	x20, x19, [sp], #32
100004ea8: fc fb ff 17 	b	0x100003e98 <___rust_dealloc>
100004eac: fd 7b 41 a9 	ldp	x29, x30, [sp, #16]
100004eb0: f4 4f c2 a8 	ldp	x20, x19, [sp], #32
100004eb4: c0 03 5f d6 	ret

0000000100004eb8 <__ZN4core3ptr275drop_in_place$LT$gimli..read..line..LineRows$LT$gimli..read..endian_slice..EndianSlice$LT$gimli..endianity..LittleEndian$GT$$C$gimli..read..line..IncompleteLineProgram$LT$gimli..read..endian_slice..EndianSlice$LT$gimli..endianity..LittleEndian$GT$$C$usize$GT$$C$usize$GT$$GT$17h1d7f17a7021ab70bE>:
100004eb8: f4 4f be a9 	stp	x20, x19, [sp, #-32]!
100004ebc: fd 7b 01 a9 	stp	x29, x30, [sp, #16]
100004ec0: fd 43 00 91 	add	x29, sp, #16
100004ec4: f3 03 00 aa 	mov	x19, x0
100004ec8: 08 18 40 f9 	ldr	x8, [x0, #48]
100004ecc: a8 00 00 b4 	cbz	x8, 0x100004ee0 <__ZN4core3ptr275drop_in_place$LT$gimli..read..line..LineRows$LT$gimli..read..endian_slice..EndianSlice$LT$gimli..endianity..LittleEndian$GT$$C$gimli..read..line..IncompleteLineProgram$LT$gimli..read..endian_slice..EndianSlice$LT$gimli..endianity..LittleEndian$GT$$C$usize$GT$$C$usize$GT$$GT$17h1d7f17a7021ab70bE+0x28>
100004ed0: 60 16 40 f9 	ldr	x0, [x19, #40]
100004ed4: 01 f5 7e d3 	lsl	x1, x8, #2
100004ed8: 42 00 80 52 	mov	w2, #2
100004edc: ef fb ff 97 	bl	0x100003e98 <___rust_dealloc>
100004ee0: 68 26 40 f9 	ldr	x8, [x19, #72]
100004ee4: c8 00 00 b4 	cbz	x8, 0x100004efc <__ZN4core3ptr275drop_in_place$LT$gimli..read..line..LineRows$LT$gimli..read..endian_slice..EndianSlice$LT$gimli..endianity..LittleEndian$GT$$C$gimli..read..line..IncompleteLineProgram$LT$gimli..read..endian_slice..EndianSlice$LT$gimli..endianity..LittleEndian$GT$$C$usize$GT$$C$usize$GT$$GT$17h1d7f17a7021ab70bE+0x44>
100004ee8: 60 22 40 f9 	ldr	x0, [x19, #64]
100004eec: 08 05 08 8b 	add	x8, x8, x8, lsl #1
100004ef0: 01 f1 7d d3 	lsl	x1, x8, #3
100004ef4: 02 01 80 52 	mov	w2, #8
100004ef8: e8 fb ff 97 	bl	0x100003e98 <___rust_dealloc>
100004efc: 68 32 40 f9 	ldr	x8, [x19, #96]
100004f00: a8 00 00 b4 	cbz	x8, 0x100004f14 <__ZN4core3ptr275drop_in_place$LT$gimli..read..line..LineRows$LT$gimli..read..endian_slice..EndianSlice$LT$gimli..endianity..LittleEndian$GT$$C$gimli..read..line..IncompleteLineProgram$LT$gimli..read..endian_slice..EndianSlice$LT$gimli..endianity..LittleEndian$GT$$C$usize$GT$$C$usize$GT$$GT$17h1d7f17a7021ab70bE+0x5c>
100004f04: 60 2e 40 f9 	ldr	x0, [x19, #88]
100004f08: 01 f5 7e d3 	lsl	x1, x8, #2
100004f0c: 42 00 80 52 	mov	w2, #2
100004f10: e2 fb ff 97 	bl	0x100003e98 <___rust_dealloc>
100004f14: 68 3e 40 f9 	ldr	x8, [x19, #120]
100004f18: e8 00 00 b4 	cbz	x8, 0x100004f34 <__ZN4core3ptr275drop_in_place$LT$gimli..read..line..LineRows$LT$gimli..read..endian_slice..EndianSlice$LT$gimli..endianity..LittleEndian$GT$$C$gimli..read..line..IncompleteLineProgram$LT$gimli..read..endian_slice..EndianSlice$LT$gimli..endianity..LittleEndian$GT$$C$usize$GT$$C$usize$GT$$GT$17h1d7f17a7021ab70bE+0x7c>
100004f1c: 60 3a 40 f9 	ldr	x0, [x19, #112]
100004f20: 01 e5 7a d3 	lsl	x1, x8, #6
100004f24: 02 01 80 52 	mov	w2, #8
100004f28: fd 7b 41 a9 	ldp	x29, x30, [sp, #16]
100004f2c: f4 4f c2 a8 	ldp	x20, x19, [sp], #32
100004f30: da fb ff 17 	b	0x100003e98 <___rust_dealloc>
100004f34: fd 7b 41 a9 	ldp	x29, x30, [sp, #16]
100004f38: f4 4f c2 a8 	ldp	x20, x19, [sp], #32
100004f3c: c0 03 5f d6 	ret

0000000100004f40 <__ZN4core3ptr279drop_in_place$LT$alloc..vec..Vec$LT$$LP$gimli..read..unit..UnitOffset$C$addr2line..lazy..LazyCell$LT$core..result..Result$LT$addr2line..function..Function$LT$gimli..read..endian_slice..EndianSlice$LT$gimli..endianity..LittleEndian$GT$$GT$$C$gimli..read..Error$GT$$GT$$RP$$GT$$GT$17h993d8bbf1fd8546fE>:
100004f40: f6 57 bd a9 	stp	x22, x21, [sp, #-48]!
100004f44: f4 4f 01 a9 	stp	x20, x19, [sp, #16]
100004f48: fd 7b 02 a9 	stp	x29, x30, [sp, #32]
100004f4c: fd 83 00 91 	add	x29, sp, #32
100004f50: f3 03 00 aa 	mov	x19, x0
100004f54: 08 08 40 f9 	ldr	x8, [x0, #16]
100004f58: 48 03 00 b4 	cbz	x8, 0x100004fc0 <__ZN4core3ptr279drop_in_place$LT$alloc..vec..Vec$LT$$LP$gimli..read..unit..UnitOffset$C$addr2line..lazy..LazyCell$LT$core..result..Result$LT$addr2line..function..Function$LT$gimli..read..endian_slice..EndianSlice$LT$gimli..endianity..LittleEndian$GT$$GT$$C$gimli..read..Error$GT$$GT$$RP$$GT$$GT$17h993d8bbf1fd8546fE+0x80>
100004f5c: 69 02 40 f9 	ldr	x9, [x19]
100004f60: 34 01 01 91 	add	x20, x9, #64
100004f64: 08 0d 08 8b 	add	x8, x8, x8, lsl #3
100004f68: 15 f1 7d d3 	lsl	x21, x8, #3
100004f6c: 04 00 00 14 	b	0x100004f7c <__ZN4core3ptr279drop_in_place$LT$alloc..vec..Vec$LT$$LP$gimli..read..unit..UnitOffset$C$addr2line..lazy..LazyCell$LT$core..result..Result$LT$addr2line..function..Function$LT$gimli..read..endian_slice..EndianSlice$LT$gimli..endianity..LittleEndian$GT$$GT$$C$gimli..read..Error$GT$$GT$$RP$$GT$$GT$17h993d8bbf1fd8546fE+0x3c>
100004f70: 94 22 01 91 	add	x20, x20, #72
100004f74: b5 22 01 f1 	subs	x21, x21, #72
100004f78: 40 02 00 54 	b.eq	0x100004fc0 <__ZN4core3ptr279drop_in_place$LT$alloc..vec..Vec$LT$$LP$gimli..read..unit..UnitOffset$C$addr2line..lazy..LazyCell$LT$core..result..Result$LT$addr2line..function..Function$LT$gimli..read..endian_slice..EndianSlice$LT$gimli..endianity..LittleEndian$GT$$GT$$C$gimli..read..Error$GT$$GT$$RP$$GT$$GT$17h993d8bbf1fd8546fE+0x80>
100004f7c: 88 82 5c f8 	ldur	x8, [x20, #-56]
100004f80: 88 ff ff b4 	cbz	x8, 0x100004f70 <__ZN4core3ptr279drop_in_place$LT$alloc..vec..Vec$LT$$LP$gimli..read..unit..UnitOffset$C$addr2line..lazy..LazyCell$LT$core..result..Result$LT$addr2line..function..Function$LT$gimli..read..endian_slice..EndianSlice$LT$gimli..endianity..LittleEndian$GT$$GT$$C$gimli..read..Error$GT$$GT$$RP$$GT$$GT$17h993d8bbf1fd8546fE+0x30>
100004f84: 80 82 5e f8 	ldur	x0, [x20, #-24]
100004f88: 40 ff ff b4 	cbz	x0, 0x100004f70 <__ZN4core3ptr279drop_in_place$LT$alloc..vec..Vec$LT$$LP$gimli..read..unit..UnitOffset$C$addr2line..lazy..LazyCell$LT$core..result..Result$LT$addr2line..function..Function$LT$gimli..read..endian_slice..EndianSlice$LT$gimli..endianity..LittleEndian$GT$$GT$$C$gimli..read..Error$GT$$GT$$RP$$GT$$GT$17h993d8bbf1fd8546fE+0x30>
100004f8c: 88 02 5f f8 	ldur	x8, [x20, #-16]
100004f90: a8 00 00 b4 	cbz	x8, 0x100004fa4 <__ZN4core3ptr279drop_in_place$LT$alloc..vec..Vec$LT$$LP$gimli..read..unit..UnitOffset$C$addr2line..lazy..LazyCell$LT$core..result..Result$LT$addr2line..function..Function$LT$gimli..read..endian_slice..EndianSlice$LT$gimli..endianity..LittleEndian$GT$$GT$$C$gimli..read..Error$GT$$GT$$RP$$GT$$GT$17h993d8bbf1fd8546fE+0x64>
100004f94: 08 09 08 8b 	add	x8, x8, x8, lsl #2
100004f98: 01 f1 7d d3 	lsl	x1, x8, #3
100004f9c: 02 01 80 52 	mov	w2, #8
100004fa0: be fb ff 97 	bl	0x100003e98 <___rust_dealloc>
100004fa4: 88 02 40 f9 	ldr	x8, [x20]
100004fa8: 48 fe ff b4 	cbz	x8, 0x100004f70 <__ZN4core3ptr279drop_in_place$LT$alloc..vec..Vec$LT$$LP$gimli..read..unit..UnitOffset$C$addr2line..lazy..LazyCell$LT$core..result..Result$LT$addr2line..function..Function$LT$gimli..read..endian_slice..EndianSlice$LT$gimli..endianity..LittleEndian$GT$$GT$$C$gimli..read..Error$GT$$GT$$RP$$GT$$GT$17h993d8bbf1fd8546fE+0x30>
100004fac: 80 82 5f f8 	ldur	x0, [x20, #-8]
100004fb0: 01 e9 7b d3 	lsl	x1, x8, #5
100004fb4: 02 01 80 52 	mov	w2, #8
100004fb8: b8 fb ff 97 	bl	0x100003e98 <___rust_dealloc>
100004fbc: ed ff ff 17 	b	0x100004f70 <__ZN4core3ptr279drop_in_place$LT$alloc..vec..Vec$LT$$LP$gimli..read..unit..UnitOffset$C$addr2line..lazy..LazyCell$LT$core..result..Result$LT$addr2line..function..Function$LT$gimli..read..endian_slice..EndianSlice$LT$gimli..endianity..LittleEndian$GT$$GT$$C$gimli..read..Error$GT$$GT$$RP$$GT$$GT$17h993d8bbf1fd8546fE+0x30>
100004fc0: 68 06 40 f9 	ldr	x8, [x19, #8]
100004fc4: 28 01 00 b4 	cbz	x8, 0x100004fe8 <__ZN4core3ptr279drop_in_place$LT$alloc..vec..Vec$LT$$LP$gimli..read..unit..UnitOffset$C$addr2line..lazy..LazyCell$LT$core..result..Result$LT$addr2line..function..Function$LT$gimli..read..endian_slice..EndianSlice$LT$gimli..endianity..LittleEndian$GT$$GT$$C$gimli..read..Error$GT$$GT$$RP$$GT$$GT$17h993d8bbf1fd8546fE+0xa8>
100004fc8: 60 02 40 f9 	ldr	x0, [x19]
100004fcc: 08 0d 08 8b 	add	x8, x8, x8, lsl #3
100004fd0: 01 f1 7d d3 	lsl	x1, x8, #3
100004fd4: 02 01 80 52 	mov	w2, #8
100004fd8: fd 7b 42 a9 	ldp	x29, x30, [sp, #32]
100004fdc: f4 4f 41 a9 	ldp	x20, x19, [sp, #16]
100004fe0: f6 57 c3 a8 	ldp	x22, x21, [sp], #48
100004fe4: ad fb ff 17 	b	0x100003e98 <___rust_dealloc>
100004fe8: fd 7b 42 a9 	ldp	x29, x30, [sp, #32]
100004fec: f4 4f 41 a9 	ldp	x20, x19, [sp, #16]
100004ff0: f6 57 c3 a8 	ldp	x22, x21, [sp], #48
100004ff4: c0 03 5f d6 	ret

0000000100004ff8 <__ZN4core3ptr291drop_in_place$LT$alloc..boxed..Box$LT$$u5b$$LP$gimli..read..unit..UnitOffset$C$addr2line..lazy..LazyCell$LT$core..result..Result$LT$addr2line..function..Function$LT$gimli..read..endian_slice..EndianSlice$LT$gimli..endianity..LittleEndian$GT$$GT$$C$gimli..read..Error$GT$$GT$$RP$$u5d$$GT$$GT$17h9eaa6d394a8c6dadE>:
100004ff8: f6 57 bd a9 	stp	x22, x21, [sp, #-48]!
100004ffc: f4 4f 01 a9 	stp	x20, x19, [sp, #16]
100005000: fd 7b 02 a9 	stp	x29, x30, [sp, #32]
100005004: fd 83 00 91 	add	x29, sp, #32
100005008: 08 04 40 f9 	ldr	x8, [x0, #8]
10000500c: a8 04 00 b4 	cbz	x8, 0x1000050a0 <__ZN4core3ptr291drop_in_place$LT$alloc..boxed..Box$LT$$u5b$$LP$gimli..read..unit..UnitOffset$C$addr2line..lazy..LazyCell$LT$core..result..Result$LT$addr2line..function..Function$LT$gimli..read..endian_slice..EndianSlice$LT$gimli..endianity..LittleEndian$GT$$GT$$C$gimli..read..Error$GT$$GT$$RP$$u5d$$GT$$GT$17h9eaa6d394a8c6dadE+0xa8>
100005010: f3 03 00 aa 	mov	x19, x0
100005014: 09 00 40 f9 	ldr	x9, [x0]
100005018: 34 01 01 91 	add	x20, x9, #64
10000501c: 08 0d 08 8b 	add	x8, x8, x8, lsl #3
100005020: 15 f1 7d d3 	lsl	x21, x8, #3
100005024: 04 00 00 14 	b	0x100005034 <__ZN4core3ptr291drop_in_place$LT$alloc..boxed..Box$LT$$u5b$$LP$gimli..read..unit..UnitOffset$C$addr2line..lazy..LazyCell$LT$core..result..Result$LT$addr2line..function..Function$LT$gimli..read..endian_slice..EndianSlice$LT$gimli..endianity..LittleEndian$GT$$GT$$C$gimli..read..Error$GT$$GT$$RP$$u5d$$GT$$GT$17h9eaa6d394a8c6dadE+0x3c>
100005028: 94 22 01 91 	add	x20, x20, #72
10000502c: b5 22 01 f1 	subs	x21, x21, #72
100005030: 40 02 00 54 	b.eq	0x100005078 <__ZN4core3ptr291drop_in_place$LT$alloc..boxed..Box$LT$$u5b$$LP$gimli..read..unit..UnitOffset$C$addr2line..lazy..LazyCell$LT$core..result..Result$LT$addr2line..function..Function$LT$gimli..read..endian_slice..EndianSlice$LT$gimli..endianity..LittleEndian$GT$$GT$$C$gimli..read..Error$GT$$GT$$RP$$u5d$$GT$$GT$17h9eaa6d394a8c6dadE+0x80>
100005034: 88 82 5c f8 	ldur	x8, [x20, #-56]
100005038: 88 ff ff b4 	cbz	x8, 0x100005028 <__ZN4core3ptr291drop_in_place$LT$alloc..boxed..Box$LT$$u5b$$LP$gimli..read..unit..UnitOffset$C$addr2line..lazy..LazyCell$LT$core..result..Result$LT$addr2line..function..Function$LT$gimli..read..endian_slice..EndianSlice$LT$gimli..endianity..LittleEndian$GT$$GT$$C$gimli..read..Error$GT$$GT$$RP$$u5d$$GT$$GT$17h9eaa6d394a8c6dadE+0x30>
10000503c: 80 82 5e f8 	ldur	x0, [x20, #-24]
100005040: 40 ff ff b4 	cbz	x0, 0x100005028 <__ZN4core3ptr291drop_in_place$LT$alloc..boxed..Box$LT$$u5b$$LP$gimli..read..unit..UnitOffset$C$addr2line..lazy..LazyCell$LT$core..result..Result$LT$addr2line..function..Function$LT$gimli..read..endian_slice..EndianSlice$LT$gimli..endianity..LittleEndian$GT$$GT$$C$gimli..read..Error$GT$$GT$$RP$$u5d$$GT$$GT$17h9eaa6d394a8c6dadE+0x30>
100005044: 88 02 5f f8 	ldur	x8, [x20, #-16]
100005048: a8 00 00 b4 	cbz	x8, 0x10000505c <__ZN4core3ptr291drop_in_place$LT$alloc..boxed..Box$LT$$u5b$$LP$gimli..read..unit..UnitOffset$C$addr2line..lazy..LazyCell$LT$core..result..Result$LT$addr2line..function..Function$LT$gimli..read..endian_slice..EndianSlice$LT$gimli..endianity..LittleEndian$GT$$GT$$C$gimli..read..Error$GT$$GT$$RP$$u5d$$GT$$GT$17h9eaa6d394a8c6dadE+0x64>
10000504c: 08 09 08 8b 	add	x8, x8, x8, lsl #2
100005050: 01 f1 7d d3 	lsl	x1, x8, #3
100005054: 02 01 80 52 	mov	w2, #8
100005058: 90 fb ff 97 	bl	0x100003e98 <___rust_dealloc>
10000505c: 88 02 40 f9 	ldr	x8, [x20]
100005060: 48 fe ff b4 	cbz	x8, 0x100005028 <__ZN4core3ptr291drop_in_place$LT$alloc..boxed..Box$LT$$u5b$$LP$gimli..read..unit..UnitOffset$C$addr2line..lazy..LazyCell$LT$core..result..Result$LT$addr2line..function..Function$LT$gimli..read..endian_slice..EndianSlice$LT$gimli..endianity..LittleEndian$GT$$GT$$C$gimli..read..Error$GT$$GT$$RP$$u5d$$GT$$GT$17h9eaa6d394a8c6dadE+0x30>
100005064: 80 82 5f f8 	ldur	x0, [x20, #-8]
100005068: 01 e9 7b d3 	lsl	x1, x8, #5
10000506c: 02 01 80 52 	mov	w2, #8
100005070: 8a fb ff 97 	bl	0x100003e98 <___rust_dealloc>
100005074: ed ff ff 17 	b	0x100005028 <__ZN4core3ptr291drop_in_place$LT$alloc..boxed..Box$LT$$u5b$$LP$gimli..read..unit..UnitOffset$C$addr2line..lazy..LazyCell$LT$core..result..Result$LT$addr2line..function..Function$LT$gimli..read..endian_slice..EndianSlice$LT$gimli..endianity..LittleEndian$GT$$GT$$C$gimli..read..Error$GT$$GT$$RP$$u5d$$GT$$GT$17h9eaa6d394a8c6dadE+0x30>
100005078: 68 06 40 f9 	ldr	x8, [x19, #8]
10000507c: 28 01 00 b4 	cbz	x8, 0x1000050a0 <__ZN4core3ptr291drop_in_place$LT$alloc..boxed..Box$LT$$u5b$$LP$gimli..read..unit..UnitOffset$C$addr2line..lazy..LazyCell$LT$core..result..Result$LT$addr2line..function..Function$LT$gimli..read..endian_slice..EndianSlice$LT$gimli..endianity..LittleEndian$GT$$GT$$C$gimli..read..Error$GT$$GT$$RP$$u5d$$GT$$GT$17h9eaa6d394a8c6dadE+0xa8>
100005080: 60 02 40 f9 	ldr	x0, [x19]
100005084: 08 0d 08 8b 	add	x8, x8, x8, lsl #3
100005088: 01 f1 7d d3 	lsl	x1, x8, #3
10000508c: 02 01 80 52 	mov	w2, #8
100005090: fd 7b 42 a9 	ldp	x29, x30, [sp, #32]
100005094: f4 4f 41 a9 	ldp	x20, x19, [sp, #16]
100005098: f6 57 c3 a8 	ldp	x22, x21, [sp], #48
10000509c: 7f fb ff 17 	b	0x100003e98 <___rust_dealloc>
1000050a0: fd 7b 42 a9 	ldp	x29, x30, [sp, #32]
1000050a4: f4 4f 41 a9 	ldp	x20, x19, [sp, #16]
1000050a8: f6 57 c3 a8 	ldp	x22, x21, [sp], #48
1000050ac: c0 03 5f d6 	ret

00000001000050b0 <__ZN4core3ptr37drop_in_place$LT$std..fs..ReadDir$GT$17h6f5a9ca95a458e5fE>:
1000050b0: 08 00 40 f9 	ldr	x8, [x0]
1000050b4: 09 00 80 92 	mov	x9, #-1
1000050b8: 08 01 69 f8 	<unknown>
1000050bc: 1f 05 00 f1 	cmp	x8, #1
1000050c0: 81 00 00 54 	b.ne	0x1000050d0 <__ZN4core3ptr37drop_in_place$LT$std..fs..ReadDir$GT$17h6f5a9ca95a458e5fE+0x20>
1000050c4: bf 39 03 d5 	dmb	ishld
1000050c8: 00 00 40 f9 	ldr	x0, [x0]
1000050cc: 9a 0e 00 14 	b	0x100008b34 <__ZN5alloc4sync12Arc$LT$T$GT$9drop_slow17h17af050b87b3e196E>
1000050d0: c0 03 5f d6 	ret

00000001000050d4 <__ZN4core3ptr40drop_in_place$LT$std..thread..Thread$GT$17ha3d420da25006dc7E>:
1000050d4: 08 00 40 f9 	ldr	x8, [x0]
1000050d8: 09 00 80 92 	mov	x9, #-1
1000050dc: 08 01 69 f8 	<unknown>
1000050e0: 1f 05 00 f1 	cmp	x8, #1
1000050e4: 81 00 00 54 	b.ne	0x1000050f4 <__ZN4core3ptr40drop_in_place$LT$std..thread..Thread$GT$17ha3d420da25006dc7E+0x20>
1000050e8: bf 39 03 d5 	dmb	ishld
1000050ec: 00 00 40 f9 	ldr	x0, [x0]
1000050f0: bf 0e 00 14 	b	0x100008bec <__ZN5alloc4sync12Arc$LT$T$GT$9drop_slow17h940c2712cbbf3755E>
1000050f4: c0 03 5f d6 	ret

00000001000050f8 <__ZN4core3ptr42drop_in_place$LT$std..io..error..Error$GT$17ha6ffae5ca03c9a5cE>:
1000050f8: f4 4f be a9 	stp	x20, x19, [sp, #-32]!
1000050fc: fd 7b 01 a9 	stp	x29, x30, [sp, #16]
100005100: fd 43 00 91 	add	x29, sp, #16
100005104: 14 00 40 f9 	ldr	x20, [x0]
100005108: 88 06 40 92 	and	x8, x20, #0x3
10000510c: 1f 05 00 f1 	cmp	x8, #1
100005110: 41 02 00 54 	b.ne	0x100005158 <__ZN4core3ptr42drop_in_place$LT$std..io..error..Error$GT$17ha6ffae5ca03c9a5cE+0x60>
100005114: f3 03 14 aa 	mov	x19, x20
100005118: 60 fe 5f f8 	ldr	x0, [x19, #-1]!
10000511c: 68 06 40 f9 	ldr	x8, [x19, #8]
100005120: 08 01 40 f9 	ldr	x8, [x8]
100005124: 00 01 3f d6 	blr	x8
100005128: 88 72 40 f8 	ldur	x8, [x20, #7]
10000512c: 01 05 40 f9 	ldr	x1, [x8, #8]
100005130: 81 00 00 b4 	cbz	x1, 0x100005140 <__ZN4core3ptr42drop_in_place$LT$std..io..error..Error$GT$17ha6ffae5ca03c9a5cE+0x48>
100005134: 02 09 40 f9 	ldr	x2, [x8, #16]
100005138: 60 02 40 f9 	ldr	x0, [x19]
10000513c: 57 fb ff 97 	bl	0x100003e98 <___rust_dealloc>
100005140: e0 03 13 aa 	mov	x0, x19
100005144: 01 03 80 52 	mov	w1, #24
100005148: 02 01 80 52 	mov	w2, #8
10000514c: fd 7b 41 a9 	ldp	x29, x30, [sp, #16]
100005150: f4 4f c2 a8 	ldp	x20, x19, [sp], #32
100005154: 51 fb ff 17 	b	0x100003e98 <___rust_dealloc>
100005158: fd 7b 41 a9 	ldp	x29, x30, [sp, #16]
10000515c: f4 4f c2 a8 	ldp	x20, x19, [sp], #32
100005160: c0 03 5f d6 	ret
100005164: e8 03 14 aa 	mov	x8, x20
100005168: f4 03 00 aa 	mov	x20, x0
10000516c: 00 f1 5f f8 	ldur	x0, [x8, #-1]
100005170: 08 71 40 f8 	ldur	x8, [x8, #7]
100005174: 01 89 40 a9 	ldp	x1, x2, [x8, #8]
100005178: 07 0f 00 94 	bl	0x100008d94 <__ZN5alloc5alloc8box_free17h00f9913ac88f43c5E>
10000517c: e0 03 13 aa 	mov	x0, x19
100005180: 10 0f 00 94 	bl	0x100008dc0 <__ZN5alloc5alloc8box_free17h9931d7439991635eE>
100005184: e0 03 14 aa 	mov	x0, x20
100005188: 1c b8 00 94 	bl	0x1000331f8 <_write+0x1000331f8>

000000010000518c <__ZN4core3ptr44drop_in_place$LT$addr2line..LineSequence$GT$17h206827118b89f566E>:
10000518c: a1 00 00 b4 	cbz	x1, 0x1000051a0 <__ZN4core3ptr44drop_in_place$LT$addr2line..LineSequence$GT$17h206827118b89f566E+0x14>
100005190: 28 04 01 8b 	add	x8, x1, x1, lsl #1
100005194: 01 f1 7d d3 	lsl	x1, x8, #3
100005198: 02 01 80 52 	mov	w2, #8
10000519c: 3f fb ff 17 	b	0x100003e98 <___rust_dealloc>
1000051a0: c0 03 5f d6 	ret

00000001000051a4 <__ZN4core3ptr44drop_in_place$LT$object..read..ObjectMap$GT$17h6f54d9588f5ebc87E>:
1000051a4: f4 4f be a9 	stp	x20, x19, [sp, #-32]!
1000051a8: fd 7b 01 a9 	stp	x29, x30, [sp, #16]
1000051ac: fd 43 00 91 	add	x29, sp, #16
1000051b0: f3 03 00 aa 	mov	x19, x0
1000051b4: 08 04 40 f9 	ldr	x8, [x0, #8]
1000051b8: c8 00 00 b4 	cbz	x8, 0x1000051d0 <__ZN4core3ptr44drop_in_place$LT$object..read..ObjectMap$GT$17h6f54d9588f5ebc87E+0x2c>
1000051bc: 60 02 40 f9 	ldr	x0, [x19]
1000051c0: 08 09 08 8b 	add	x8, x8, x8, lsl #2
1000051c4: 01 f1 7d d3 	lsl	x1, x8, #3
1000051c8: 02 01 80 52 	mov	w2, #8
1000051cc: 33 fb ff 97 	bl	0x100003e98 <___rust_dealloc>
1000051d0: 68 12 40 f9 	ldr	x8, [x19, #32]
1000051d4: e8 00 00 b4 	cbz	x8, 0x1000051f0 <__ZN4core3ptr44drop_in_place$LT$object..read..ObjectMap$GT$17h6f54d9588f5ebc87E+0x4c>
1000051d8: 60 0e 40 f9 	ldr	x0, [x19, #24]
1000051dc: 01 ed 7c d3 	lsl	x1, x8, #4
1000051e0: 02 01 80 52 	mov	w2, #8
1000051e4: fd 7b 41 a9 	ldp	x29, x30, [sp, #16]
1000051e8: f4 4f c2 a8 	ldp	x20, x19, [sp], #32
1000051ec: 2b fb ff 17 	b	0x100003e98 <___rust_dealloc>
1000051f0: fd 7b 41 a9 	ldp	x29, x30, [sp, #16]
1000051f4: f4 4f c2 a8 	ldp	x20, x19, [sp], #32
1000051f8: c0 03 5f d6 	ret

00000001000051fc <__ZN4core3ptr44drop_in_place$LT$std..sync..once..Waiter$GT$17h0a693b906a3d0b7aE>:
1000051fc: 08 00 40 f9 	ldr	x8, [x0]
100005200: 08 01 00 b4 	cbz	x8, 0x100005220 <__ZN4core3ptr44drop_in_place$LT$std..sync..once..Waiter$GT$17h0a693b906a3d0b7aE+0x24>
100005204: 09 00 80 92 	mov	x9, #-1
100005208: 08 01 69 f8 	<unknown>
10000520c: 1f 05 00 f1 	cmp	x8, #1
100005210: 81 00 00 54 	b.ne	0x100005220 <__ZN4core3ptr44drop_in_place$LT$std..sync..once..Waiter$GT$17h0a693b906a3d0b7aE+0x24>
100005214: bf 39 03 d5 	dmb	ishld
100005218: 00 00 40 f9 	ldr	x0, [x0]
10000521c: 74 0e 00 14 	b	0x100008bec <__ZN5alloc4sync12Arc$LT$T$GT$9drop_slow17h940c2712cbbf3755E>
100005220: c0 03 5f d6 	ret

0000000100005224 <__ZN4core3ptr46drop_in_place$LT$alloc..vec..Vec$LT$u8$GT$$GT$17h4fc52cdf42633c46E>:
100005224: 01 04 40 f9 	ldr	x1, [x0, #8]
100005228: a1 00 00 b4 	cbz	x1, 0x10000523c <__ZN4core3ptr46drop_in_place$LT$alloc..vec..Vec$LT$u8$GT$$GT$17h4fc52cdf42633c46E+0x18>
10000522c: 00 00 40 f9 	ldr	x0, [x0]
100005230: e8 03 21 aa 	mvn	x8, x1
100005234: 02 fd 7f d3 	lsr	x2, x8, #63
100005238: 18 fb ff 17 	b	0x100003e98 <___rust_dealloc>
10000523c: c0 03 5f d6 	ret

0000000100005240 <__ZN4core3ptr46drop_in_place$LT$std..io..stdio..StdinLock$GT$17hd4826e1af5c86339E>:
100005240: f4 4f be a9 	stp	x20, x19, [sp, #-32]!
100005244: fd 7b 01 a9 	stp	x29, x30, [sp, #16]
100005248: fd 43 00 91 	add	x29, sp, #16
10000524c: f3 03 00 aa 	mov	x19, x0
100005250: 3f 1c 00 72 	tst	w1, #0xff
100005254: a1 00 00 54 	b.ne	0x100005268 <__ZN4core3ptr46drop_in_place$LT$std..io..stdio..StdinLock$GT$17hd4826e1af5c86339E+0x28>
100005258: 1f 20 03 d5 	nop
10000525c: 68 86 1f 58 	ldr	x8, 0x100044328 <__ZN3std9panicking11panic_count18GLOBAL_PANIC_COUNT17h3b706492d7f6a434E>
100005260: 1f f9 40 f2 	tst	x8, #0x7fffffffffffffff
100005264: 21 01 00 54 	b.ne	0x100005288 <__ZN4core3ptr46drop_in_place$LT$std..io..stdio..StdinLock$GT$17hd4826e1af5c86339E+0x48>
100005268: 60 fe df c8 	ldar	x0, [x19]
10000526c: 80 00 00 b4 	cbz	x0, 0x10000527c <__ZN4core3ptr46drop_in_place$LT$std..io..stdio..StdinLock$GT$17hd4826e1af5c86339E+0x3c>
100005270: fd 7b 41 a9 	ldp	x29, x30, [sp, #16]
100005274: f4 4f c2 a8 	ldp	x20, x19, [sp], #32
100005278: 4f b8 00 14 	b	0x1000333b4 <_write+0x1000333b4>
10000527c: e0 03 13 aa 	mov	x0, x19
100005280: b3 b6 00 94 	bl	0x100032d4c <__ZN3std10sys_common8lazy_box16LazyBox$LT$T$GT$10initialize17h16c7db01e7843ab7E>
100005284: fb ff ff 17 	b	0x100005270 <__ZN4core3ptr46drop_in_place$LT$std..io..stdio..StdinLock$GT$17hd4826e1af5c86339E+0x30>
100005288: c8 b6 00 94 	bl	0x100032da8 <__ZN3std9panicking11panic_count17is_zero_slow_path17h418674e58c79d38fE>
10000528c: e0 fe 07 37 	tbnz	w0, #0, 0x100005268 <__ZN4core3ptr46drop_in_place$LT$std..io..stdio..StdinLock$GT$17hd4826e1af5c86339E+0x28>
100005290: 28 00 80 52 	mov	w8, #1
100005294: 68 22 00 39 	strb	w8, [x19, #8]
100005298: f4 ff ff 17 	b	0x100005268 <__ZN4core3ptr46drop_in_place$LT$std..io..stdio..StdinLock$GT$17hd4826e1af5c86339E+0x28>

000000010000529c <__ZN4core3ptr47drop_in_place$LT$alloc..ffi..c_str..CString$GT$17hc3f9764788f61414E>:
10000529c: 08 00 40 f9 	ldr	x8, [x0]
1000052a0: 1f 01 00 39 	strb	wzr, [x8]
1000052a4: 01 04 40 f9 	ldr	x1, [x0, #8]
1000052a8: 81 00 00 b4 	cbz	x1, 0x1000052b8 <__ZN4core3ptr47drop_in_place$LT$alloc..ffi..c_str..CString$GT$17hc3f9764788f61414E+0x1c>
1000052ac: 00 00 40 f9 	ldr	x0, [x0]
1000052b0: 22 00 80 52 	mov	w2, #1
1000052b4: f9 fa ff 17 	b	0x100003e98 <___rust_dealloc>
1000052b8: c0 03 5f d6 	ret

00000001000052bc <__ZN4core3ptr49drop_in_place$LT$std..sync..once..WaiterQueue$GT$17h123e097138f33f17E>:
1000052bc: d5 55 00 14 	b	0x10001aa10 <__ZN70_$LT$std..sync..once..WaiterQueue$u20$as$u20$core..ops..drop..Drop$GT$4drop17h035c8b57bc5302dcE>

00000001000052c0 <__ZN4core3ptr50drop_in_place$LT$alloc..borrow..Cow$LT$str$GT$$GT$17h2ace5b4c8390d014E>:
1000052c0: a0 00 00 b4 	cbz	x0, 0x1000052d4 <__ZN4core3ptr50drop_in_place$LT$alloc..borrow..Cow$LT$str$GT$$GT$17h2ace5b4c8390d014E+0x14>
1000052c4: 81 00 00 b4 	cbz	x1, 0x1000052d4 <__ZN4core3ptr50drop_in_place$LT$alloc..borrow..Cow$LT$str$GT$$GT$17h2ace5b4c8390d014E+0x14>
1000052c8: e8 03 21 aa 	mvn	x8, x1
1000052cc: 02 fd 7f d3 	lsr	x2, x8, #63
1000052d0: f2 fa ff 17 	b	0x100003e98 <___rust_dealloc>
1000052d4: c0 03 5f d6 	ret

00000001000052d8 <__ZN4core3ptr52drop_in_place$LT$gimli..read..abbrev..Attributes$GT$17hd01727957aa15536E>:
1000052d8: 08 00 40 f9 	ldr	x8, [x0]
1000052dc: e8 00 00 b4 	cbz	x8, 0x1000052f8 <__ZN4core3ptr52drop_in_place$LT$gimli..read..abbrev..Attributes$GT$17hd01727957aa15536E+0x20>
1000052e0: 08 08 40 f9 	ldr	x8, [x0, #16]
1000052e4: a8 00 00 b4 	cbz	x8, 0x1000052f8 <__ZN4core3ptr52drop_in_place$LT$gimli..read..abbrev..Attributes$GT$17hd01727957aa15536E+0x20>
1000052e8: 00 04 40 f9 	ldr	x0, [x0, #8]
1000052ec: 01 ed 7c d3 	lsl	x1, x8, #4
1000052f0: 02 01 80 52 	mov	w2, #8
1000052f4: e9 fa ff 17 	b	0x100003e98 <___rust_dealloc>
1000052f8: c0 03 5f d6 	ret

00000001000052fc <__ZN4core3ptr55drop_in_place$LT$gimli..read..abbrev..Abbreviations$GT$17h1d139e0b0f3172f2E>:
1000052fc: ff 43 02 d1 	sub	sp, sp, #144
100005300: f6 57 06 a9 	stp	x22, x21, [sp, #96]
100005304: f4 4f 07 a9 	stp	x20, x19, [sp, #112]
100005308: fd 7b 08 a9 	stp	x29, x30, [sp, #128]
10000530c: fd 03 02 91 	add	x29, sp, #128
100005310: f3 03 00 aa 	mov	x19, x0
100005314: 08 08 40 f9 	ldr	x8, [x0, #16]
100005318: 48 02 00 b4 	cbz	x8, 0x100005360 <__ZN4core3ptr55drop_in_place$LT$gimli..read..abbrev..Abbreviations$GT$17h1d139e0b0f3172f2E+0x64>
10000531c: 69 02 40 f9 	ldr	x9, [x19]
100005320: 34 41 00 91 	add	x20, x9, #16
100005324: 09 0e 80 52 	mov	w9, #112
100005328: 15 7d 09 9b 	mul	x21, x8, x9
10000532c: 04 00 00 14 	b	0x10000533c <__ZN4core3ptr55drop_in_place$LT$gimli..read..abbrev..Abbreviations$GT$17h1d139e0b0f3172f2E+0x40>
100005330: 94 c2 01 91 	add	x20, x20, #112
100005334: b5 c2 01 f1 	subs	x21, x21, #112
100005338: 40 01 00 54 	b.eq	0x100005360 <__ZN4core3ptr55drop_in_place$LT$gimli..read..abbrev..Abbreviations$GT$17h1d139e0b0f3172f2E+0x64>
10000533c: 88 82 5f f8 	ldur	x8, [x20, #-8]
100005340: 88 ff ff b4 	cbz	x8, 0x100005330 <__ZN4core3ptr55drop_in_place$LT$gimli..read..abbrev..Abbreviations$GT$17h1d139e0b0f3172f2E+0x34>
100005344: 88 06 40 f9 	ldr	x8, [x20, #8]
100005348: 48 ff ff b4 	cbz	x8, 0x100005330 <__ZN4core3ptr55drop_in_place$LT$gimli..read..abbrev..Abbreviations$GT$17h1d139e0b0f3172f2E+0x34>
10000534c: 80 02 40 f9 	ldr	x0, [x20]
100005350: 01 ed 7c d3 	lsl	x1, x8, #4
100005354: 02 01 80 52 	mov	w2, #8
100005358: d0 fa ff 97 	bl	0x100003e98 <___rust_dealloc>
10000535c: f5 ff ff 17 	b	0x100005330 <__ZN4core3ptr55drop_in_place$LT$gimli..read..abbrev..Abbreviations$GT$17h1d139e0b0f3172f2E+0x34>
100005360: 68 06 40 f9 	ldr	x8, [x19, #8]
100005364: c8 00 00 b4 	cbz	x8, 0x10000537c <__ZN4core3ptr55drop_in_place$LT$gimli..read..abbrev..Abbreviations$GT$17h1d139e0b0f3172f2E+0x80>
100005368: 60 02 40 f9 	ldr	x0, [x19]
10000536c: 09 0e 80 52 	mov	w9, #112
100005370: 01 7d 09 9b 	mul	x1, x8, x9
100005374: 02 01 80 52 	mov	w2, #8
100005378: c8 fa ff 97 	bl	0x100003e98 <___rust_dealloc>
10000537c: 6a 12 40 f9 	ldr	x10, [x19, #32]
100005380: 0a 01 00 b4 	cbz	x10, 0x1000053a0 <__ZN4core3ptr55drop_in_place$LT$gimli..read..abbrev..Abbreviations$GT$17h1d139e0b0f3172f2E+0xa4>
100005384: 08 00 80 d2 	mov	x8, #0
100005388: 69 16 40 f9 	ldr	x9, [x19, #40]
10000538c: 6b 0e 40 f9 	ldr	x11, [x19, #24]
100005390: ff 2f 00 a9 	stp	xzr, x11, [sp]
100005394: ea 0b 00 f9 	str	x10, [sp, #16]
100005398: eb ab 02 a9 	stp	x11, x10, [sp, #40]
10000539c: 04 00 00 14 	b	0x1000053ac <__ZN4core3ptr55drop_in_place$LT$gimli..read..abbrev..Abbreviations$GT$17h1d139e0b0f3172f2E+0xb0>
1000053a0: 09 00 80 d2 	mov	x9, #0
1000053a4: 48 00 80 52 	mov	w8, #2
1000053a8: e8 03 00 f9 	str	x8, [sp]
1000053ac: e8 13 00 f9 	str	x8, [sp, #32]
1000053b0: e9 23 00 f9 	str	x9, [sp, #64]
1000053b4: a0 e3 00 d1 	sub	x0, x29, #56
1000053b8: e1 03 00 91 	mov	x1, sp
1000053bc: 5f 0d 00 94 	bl	0x100008938 <__ZN5alloc11collections5btree3map25IntoIter$LT$K$C$V$C$A$GT$10dying_next17he64b4ff40726dcbcE>
1000053c0: a8 03 5d f8 	ldur	x8, [x29, #-48]
1000053c4: 88 02 00 b4 	cbz	x8, 0x100005414 <__ZN4core3ptr55drop_in_place$LT$gimli..read..abbrev..Abbreviations$GT$17h1d139e0b0f3172f2E+0x118>
1000053c8: 13 0e 80 52 	mov	w19, #112
1000053cc: 06 00 00 14 	b	0x1000053e4 <__ZN4core3ptr55drop_in_place$LT$gimli..read..abbrev..Abbreviations$GT$17h1d139e0b0f3172f2E+0xe8>
1000053d0: a0 e3 00 d1 	sub	x0, x29, #56
1000053d4: e1 03 00 91 	mov	x1, sp
1000053d8: 58 0d 00 94 	bl	0x100008938 <__ZN5alloc11collections5btree3map25IntoIter$LT$K$C$V$C$A$GT$10dying_next17he64b4ff40726dcbcE>
1000053dc: a8 03 5d f8 	ldur	x8, [x29, #-48]
1000053e0: a8 01 00 b4 	cbz	x8, 0x100005414 <__ZN4core3ptr55drop_in_place$LT$gimli..read..abbrev..Abbreviations$GT$17h1d139e0b0f3172f2E+0x118>
1000053e4: a9 83 5d f8 	ldur	x9, [x29, #-40]
1000053e8: 28 21 13 9b 	madd	x8, x9, x19, x8
1000053ec: 09 35 40 f9 	ldr	x9, [x8, #104]
1000053f0: 09 ff ff b4 	cbz	x9, 0x1000053d0 <__ZN4core3ptr55drop_in_place$LT$gimli..read..abbrev..Abbreviations$GT$17h1d139e0b0f3172f2E+0xd4>
1000053f4: 08 81 01 91 	add	x8, x8, #96
1000053f8: 09 0d 40 f9 	ldr	x9, [x8, #24]
1000053fc: a9 fe ff b4 	cbz	x9, 0x1000053d0 <__ZN4core3ptr55drop_in_place$LT$gimli..read..abbrev..Abbreviations$GT$17h1d139e0b0f3172f2E+0xd4>
100005400: 00 09 40 f9 	ldr	x0, [x8, #16]
100005404: 21 ed 7c d3 	lsl	x1, x9, #4
100005408: 02 01 80 52 	mov	w2, #8
10000540c: a3 fa ff 97 	bl	0x100003e98 <___rust_dealloc>
100005410: f0 ff ff 17 	b	0x1000053d0 <__ZN4core3ptr55drop_in_place$LT$gimli..read..abbrev..Abbreviations$GT$17h1d139e0b0f3172f2E+0xd4>
100005414: fd 7b 48 a9 	ldp	x29, x30, [sp, #128]
100005418: f4 4f 47 a9 	ldp	x20, x19, [sp, #112]
10000541c: f6 57 46 a9 	ldp	x22, x21, [sp, #96]
100005420: ff 43 02 91 	add	sp, sp, #144
100005424: c0 03 5f d6 	ret

0000000100005428 <__ZN4core3ptr60drop_in_place$LT$alloc..vec..Vec$LT$$RF$$u5b$u8$u5d$$GT$$GT$17h57c2340a2225fef6E>:
100005428: 08 04 40 f9 	ldr	x8, [x0, #8]
10000542c: a8 00 00 b4 	cbz	x8, 0x100005440 <__ZN4core3ptr60drop_in_place$LT$alloc..vec..Vec$LT$$RF$$u5b$u8$u5d$$GT$$GT$17h57c2340a2225fef6E+0x18>
100005430: 00 00 40 f9 	ldr	x0, [x0]
100005434: 01 ed 7c d3 	lsl	x1, x8, #4
100005438: 02 01 80 52 	mov	w2, #8
10000543c: 97 fa ff 17 	b	0x100003e98 <___rust_dealloc>
100005440: c0 03 5f d6 	ret

0000000100005444 <__ZN4core3ptr61drop_in_place$LT$std..sys_common..mutex..StaticMutexGuard$GT$17h87841f3a20b4f2a2E>:
100005444: dc b7 00 14 	b	0x1000333b4 <_write+0x1000333b4>

0000000100005448 <__ZN4core3ptr64drop_in_place$LT$alloc..vec..Vec$LT$addr2line..UnitRange$GT$$GT$17h5f31f5efbb60a31aE>:
100005448: 08 04 40 f9 	ldr	x8, [x0, #8]
10000544c: a8 00 00 b4 	cbz	x8, 0x100005460 <__ZN4core3ptr64drop_in_place$LT$alloc..vec..Vec$LT$addr2line..UnitRange$GT$$GT$17h5f31f5efbb60a31aE+0x18>
100005450: 00 00 40 f9 	ldr	x0, [x0]
100005454: 01 e9 7b d3 	lsl	x1, x8, #5
100005458: 02 01 80 52 	mov	w2, #8
10000545c: 8f fa ff 17 	b	0x100003e98 <___rust_dealloc>
100005460: c0 03 5f d6 	ret

0000000100005464 <__ZN4core3ptr64drop_in_place$LT$std..backtrace_rs..print..BacktraceFrameFmt$GT$17ha0a9cd541775fa8bE>:
100005464: 08 04 40 f9 	ldr	x8, [x0, #8]
100005468: 08 05 00 91 	add	x8, x8, #1
10000546c: 08 04 00 f9 	str	x8, [x0, #8]
100005470: c0 03 5f d6 	ret

0000000100005474 <__ZN4core3ptr64drop_in_place$LT$std..sys..unix..locks..pthread_mutex..Mutex$GT$17hb14a1009f2133434E>:
100005474: c4 b7 00 14 	b	0x100033384 <_write+0x100033384>

0000000100005478 <__ZN4core3ptr65drop_in_place$LT$alloc..vec..Vec$LT$alloc..string..String$GT$$GT$17h0acabf82e9883df2E>:
100005478: f6 57 bd a9 	stp	x22, x21, [sp, #-48]!
10000547c: f4 4f 01 a9 	stp	x20, x19, [sp, #16]
100005480: fd 7b 02 a9 	stp	x29, x30, [sp, #32]
100005484: fd 83 00 91 	add	x29, sp, #32
100005488: f3 03 00 aa 	mov	x19, x0
10000548c: 08 08 40 f9 	ldr	x8, [x0, #16]
100005490: 08 02 00 b4 	cbz	x8, 0x1000054d0 <__ZN4core3ptr65drop_in_place$LT$alloc..vec..Vec$LT$alloc..string..String$GT$$GT$17h0acabf82e9883df2E+0x58>
100005494: 69 02 40 f9 	ldr	x9, [x19]
100005498: 34 21 00 91 	add	x20, x9, #8
10000549c: 08 05 08 8b 	add	x8, x8, x8, lsl #1
1000054a0: 15 f1 7d d3 	lsl	x21, x8, #3
1000054a4: 04 00 00 14 	b	0x1000054b4 <__ZN4core3ptr65drop_in_place$LT$alloc..vec..Vec$LT$alloc..string..String$GT$$GT$17h0acabf82e9883df2E+0x3c>
1000054a8: 94 62 00 91 	add	x20, x20, #24
1000054ac: b5 62 00 f1 	subs	x21, x21, #24
1000054b0: 00 01 00 54 	b.eq	0x1000054d0 <__ZN4core3ptr65drop_in_place$LT$alloc..vec..Vec$LT$alloc..string..String$GT$$GT$17h0acabf82e9883df2E+0x58>
1000054b4: 81 02 40 f9 	ldr	x1, [x20]
1000054b8: 81 ff ff b4 	cbz	x1, 0x1000054a8 <__ZN4core3ptr65drop_in_place$LT$alloc..vec..Vec$LT$alloc..string..String$GT$$GT$17h0acabf82e9883df2E+0x30>
1000054bc: 80 82 5f f8 	ldur	x0, [x20, #-8]
1000054c0: e8 03 21 aa 	mvn	x8, x1
1000054c4: 02 fd 7f d3 	lsr	x2, x8, #63
1000054c8: 74 fa ff 97 	bl	0x100003e98 <___rust_dealloc>
1000054cc: f7 ff ff 17 	b	0x1000054a8 <__ZN4core3ptr65drop_in_place$LT$alloc..vec..Vec$LT$alloc..string..String$GT$$GT$17h0acabf82e9883df2E+0x30>
1000054d0: 68 06 40 f9 	ldr	x8, [x19, #8]
1000054d4: 28 01 00 b4 	cbz	x8, 0x1000054f8 <__ZN4core3ptr65drop_in_place$LT$alloc..vec..Vec$LT$alloc..string..String$GT$$GT$17h0acabf82e9883df2E+0x80>
1000054d8: 60 02 40 f9 	ldr	x0, [x19]
1000054dc: 08 05 08 8b 	add	x8, x8, x8, lsl #1
1000054e0: 01 f1 7d d3 	lsl	x1, x8, #3
1000054e4: 02 01 80 52 	mov	w2, #8
1000054e8: fd 7b 42 a9 	ldp	x29, x30, [sp, #32]
1000054ec: f4 4f 41 a9 	ldp	x20, x19, [sp, #16]
1000054f0: f6 57 c3 a8 	ldp	x22, x21, [sp], #48
1000054f4: 69 fa ff 17 	b	0x100003e98 <___rust_dealloc>
1000054f8: fd 7b 42 a9 	ldp	x29, x30, [sp, #32]
1000054fc: f4 4f 41 a9 	ldp	x20, x19, [sp, #16]
100005500: f6 57 c3 a8 	ldp	x22, x21, [sp], #48
100005504: c0 03 5f d6 	ret

0000000100005508 <__ZN4core3ptr65drop_in_place$LT$std..backtrace_rs..symbolize..gimli..Mapping$GT$17h574b03714ff665bdE>:
100005508: f6 57 bd a9 	stp	x22, x21, [sp, #-48]!
10000550c: f4 4f 01 a9 	stp	x20, x19, [sp, #16]
100005510: fd 7b 02 a9 	stp	x29, x30, [sp, #32]
100005514: fd 83 00 91 	add	x29, sp, #32
100005518: f3 03 00 aa 	mov	x19, x0
10000551c: b5 fc ff 97 	bl	0x1000047f0 <__ZN4core3ptr124drop_in_place$LT$addr2line..ResDwarf$LT$gimli..read..endian_slice..EndianSlice$LT$gimli..endianity..LittleEndian$GT$$GT$$GT$17h8f8473b5bf1b27a8E>
100005520: 60 02 01 91 	add	x0, x19, #64
100005524: 8c 00 00 94 	bl	0x100005754 <__ZN4core3ptr71drop_in_place$LT$std..backtrace_rs..symbolize..gimli..macho..Object$GT$17h7376e17532609500E>
100005528: 60 06 4c a9 	ldp	x0, x1, [x19, #192]
10000552c: 7b b7 00 94 	bl	0x100033318 <_write+0x100033318>
100005530: 68 72 40 f9 	ldr	x8, [x19, #224]
100005534: 08 02 00 b4 	cbz	x8, 0x100005574 <__ZN4core3ptr65drop_in_place$LT$std..backtrace_rs..symbolize..gimli..Mapping$GT$17h574b03714ff665bdE+0x6c>
100005538: 69 6a 40 f9 	ldr	x9, [x19, #208]
10000553c: 34 21 00 91 	add	x20, x9, #8
100005540: 08 05 08 8b 	add	x8, x8, x8, lsl #1
100005544: 15 f1 7d d3 	lsl	x21, x8, #3
100005548: 04 00 00 14 	b	0x100005558 <__ZN4core3ptr65drop_in_place$LT$std..backtrace_rs..symbolize..gimli..Mapping$GT$17h574b03714ff665bdE+0x50>
10000554c: 94 62 00 91 	add	x20, x20, #24
100005550: b5 62 00 f1 	subs	x21, x21, #24
100005554: 00 01 00 54 	b.eq	0x100005574 <__ZN4core3ptr65drop_in_place$LT$std..backtrace_rs..symbolize..gimli..Mapping$GT$17h574b03714ff665bdE+0x6c>
100005558: 81 02 40 f9 	ldr	x1, [x20]
10000555c: 81 ff ff b4 	cbz	x1, 0x10000554c <__ZN4core3ptr65drop_in_place$LT$std..backtrace_rs..symbolize..gimli..Mapping$GT$17h574b03714ff665bdE+0x44>
100005560: 80 82 5f f8 	ldur	x0, [x20, #-8]
100005564: e8 03 21 aa 	mvn	x8, x1
100005568: 02 fd 7f d3 	lsr	x2, x8, #63
10000556c: 4b fa ff 97 	bl	0x100003e98 <___rust_dealloc>
100005570: f7 ff ff 17 	b	0x10000554c <__ZN4core3ptr65drop_in_place$LT$std..backtrace_rs..symbolize..gimli..Mapping$GT$17h574b03714ff665bdE+0x44>
100005574: 68 6e 40 f9 	ldr	x8, [x19, #216]
100005578: c8 00 00 b4 	cbz	x8, 0x100005590 <__ZN4core3ptr65drop_in_place$LT$std..backtrace_rs..symbolize..gimli..Mapping$GT$17h574b03714ff665bdE+0x88>
10000557c: 60 6a 40 f9 	ldr	x0, [x19, #208]
100005580: 08 05 08 8b 	add	x8, x8, x8, lsl #1
100005584: 01 f1 7d d3 	lsl	x1, x8, #3
100005588: 02 01 80 52 	mov	w2, #8
10000558c: 43 fa ff 97 	bl	0x100003e98 <___rust_dealloc>
100005590: 68 76 40 f9 	ldr	x8, [x19, #232]
100005594: c8 00 00 b4 	cbz	x8, 0x1000055ac <__ZN4core3ptr65drop_in_place$LT$std..backtrace_rs..symbolize..gimli..Mapping$GT$17h574b03714ff665bdE+0xa4>
100005598: 60 06 4f a9 	ldp	x0, x1, [x19, #240]
10000559c: fd 7b 42 a9 	ldp	x29, x30, [sp, #32]
1000055a0: f4 4f 41 a9 	ldp	x20, x19, [sp, #16]
1000055a4: f6 57 c3 a8 	ldp	x22, x21, [sp], #48
1000055a8: 5c b7 00 14 	b	0x100033318 <_write+0x100033318>
1000055ac: fd 7b 42 a9 	ldp	x29, x30, [sp, #32]
1000055b0: f4 4f 41 a9 	ldp	x20, x19, [sp, #16]
1000055b4: f6 57 c3 a8 	ldp	x22, x21, [sp], #48
1000055b8: c0 03 5f d6 	ret
1000055bc: f4 03 00 aa 	mov	x20, x0
1000055c0: 04 00 00 14 	b	0x1000055d0 <__ZN4core3ptr65drop_in_place$LT$std..backtrace_rs..symbolize..gimli..Mapping$GT$17h574b03714ff665bdE+0xc8>
1000055c4: f4 03 00 aa 	mov	x20, x0
1000055c8: 60 02 01 91 	add	x0, x19, #64
1000055cc: 62 00 00 94 	bl	0x100005754 <__ZN4core3ptr71drop_in_place$LT$std..backtrace_rs..symbolize..gimli..macho..Object$GT$17h7376e17532609500E>
1000055d0: 60 06 4c a9 	ldp	x0, x1, [x19, #192]
1000055d4: 2e 00 00 94 	bl	0x10000568c <__ZN4core3ptr68drop_in_place$LT$std..backtrace_rs..symbolize..gimli..mmap..Mmap$GT$17h232444bfac54b333E>
1000055d8: 60 42 03 91 	add	x0, x19, #208
1000055dc: 2d 00 00 94 	bl	0x100005690 <__ZN4core3ptr70drop_in_place$LT$std..backtrace_rs..symbolize..gimli..stash..Stash$GT$17h34bd66f2fc0f88f7E>
1000055e0: e0 03 14 aa 	mov	x0, x20
1000055e4: 05 b7 00 94 	bl	0x1000331f8 <_write+0x1000331f8>
1000055e8: 94 b6 00 94 	bl	0x100033038 <__ZN4core9panicking15panic_no_unwind17h6c18a18997fce2b1E>
1000055ec: 93 b6 00 94 	bl	0x100033038 <__ZN4core9panicking15panic_no_unwind17h6c18a18997fce2b1E>

00000001000055f0 <__ZN4core3ptr67drop_in_place$LT$alloc..vec..Vec$LT$addr2line..LineSequence$GT$$GT$17h7db9a436657f74acE>:
1000055f0: f6 57 bd a9 	stp	x22, x21, [sp, #-48]!
1000055f4: f4 4f 01 a9 	stp	x20, x19, [sp, #16]
1000055f8: fd 7b 02 a9 	stp	x29, x30, [sp, #32]
1000055fc: fd 83 00 91 	add	x29, sp, #32
100005600: f3 03 00 aa 	mov	x19, x0
100005604: 08 08 40 f9 	ldr	x8, [x0, #16]
100005608: 08 02 00 b4 	cbz	x8, 0x100005648 <__ZN4core3ptr67drop_in_place$LT$alloc..vec..Vec$LT$addr2line..LineSequence$GT$$GT$17h7db9a436657f74acE+0x58>
10000560c: 69 02 40 f9 	ldr	x9, [x19]
100005610: 34 61 00 91 	add	x20, x9, #24
100005614: 15 e9 7b d3 	lsl	x21, x8, #5
100005618: 04 00 00 14 	b	0x100005628 <__ZN4core3ptr67drop_in_place$LT$alloc..vec..Vec$LT$addr2line..LineSequence$GT$$GT$17h7db9a436657f74acE+0x38>
10000561c: 94 82 00 91 	add	x20, x20, #32
100005620: b5 82 00 f1 	subs	x21, x21, #32
100005624: 20 01 00 54 	b.eq	0x100005648 <__ZN4core3ptr67drop_in_place$LT$alloc..vec..Vec$LT$addr2line..LineSequence$GT$$GT$17h7db9a436657f74acE+0x58>
100005628: 88 02 40 f9 	ldr	x8, [x20]
10000562c: 88 ff ff b4 	cbz	x8, 0x10000561c <__ZN4core3ptr67drop_in_place$LT$alloc..vec..Vec$LT$addr2line..LineSequence$GT$$GT$17h7db9a436657f74acE+0x2c>
100005630: 80 82 5f f8 	ldur	x0, [x20, #-8]
100005634: 08 05 08 8b 	add	x8, x8, x8, lsl #1
100005638: 01 f1 7d d3 	lsl	x1, x8, #3
10000563c: 02 01 80 52 	mov	w2, #8
100005640: 16 fa ff 97 	bl	0x100003e98 <___rust_dealloc>
100005644: f6 ff ff 17 	b	0x10000561c <__ZN4core3ptr67drop_in_place$LT$alloc..vec..Vec$LT$addr2line..LineSequence$GT$$GT$17h7db9a436657f74acE+0x2c>
100005648: 68 06 40 f9 	ldr	x8, [x19, #8]
10000564c: 08 01 00 b4 	cbz	x8, 0x10000566c <__ZN4core3ptr67drop_in_place$LT$alloc..vec..Vec$LT$addr2line..LineSequence$GT$$GT$17h7db9a436657f74acE+0x7c>
100005650: 60 02 40 f9 	ldr	x0, [x19]
100005654: 01 e9 7b d3 	lsl	x1, x8, #5
100005658: 02 01 80 52 	mov	w2, #8
10000565c: fd 7b 42 a9 	ldp	x29, x30, [sp, #32]
100005660: f4 4f 41 a9 	ldp	x20, x19, [sp, #16]
100005664: f6 57 c3 a8 	ldp	x22, x21, [sp], #48
100005668: 0c fa ff 17 	b	0x100003e98 <___rust_dealloc>
10000566c: fd 7b 42 a9 	ldp	x29, x30, [sp, #32]
100005670: f4 4f 41 a9 	ldp	x20, x19, [sp, #16]
100005674: f6 57 c3 a8 	ldp	x22, x21, [sp], #48
100005678: c0 03 5f d6 	ret

000000010000567c <__ZN4core3ptr67drop_in_place$LT$std..sys_common..rwlock..StaticRwLockReadGuard$GT$17h9c5598fb65baf196E>:
10000567c: 08 20 03 91 	add	x8, x0, #200
100005680: 09 00 80 92 	mov	x9, #-1
100005684: 08 01 29 f8 	<unknown>
100005688: 5a b7 00 14 	b	0x1000333f0 <_write+0x1000333f0>

000000010000568c <__ZN4core3ptr68drop_in_place$LT$std..backtrace_rs..symbolize..gimli..mmap..Mmap$GT$17h232444bfac54b333E>:
10000568c: 23 b7 00 14 	b	0x100033318 <_write+0x100033318>

0000000100005690 <__ZN4core3ptr70drop_in_place$LT$std..backtrace_rs..symbolize..gimli..stash..Stash$GT$17h34bd66f2fc0f88f7E>:
100005690: f6 57 bd a9 	stp	x22, x21, [sp, #-48]!
100005694: f4 4f 01 a9 	stp	x20, x19, [sp, #16]
100005698: fd 7b 02 a9 	stp	x29, x30, [sp, #32]
10000569c: fd 83 00 91 	add	x29, sp, #32
1000056a0: f3 03 00 aa 	mov	x19, x0
1000056a4: 08 08 40 f9 	ldr	x8, [x0, #16]
1000056a8: 08 02 00 b4 	cbz	x8, 0x1000056e8 <__ZN4core3ptr70drop_in_place$LT$std..backtrace_rs..symbolize..gimli..stash..Stash$GT$17h34bd66f2fc0f88f7E+0x58>
1000056ac: 69 02 40 f9 	ldr	x9, [x19]
1000056b0: 34 21 00 91 	add	x20, x9, #8
1000056b4: 08 05 08 8b 	add	x8, x8, x8, lsl #1
1000056b8: 15 f1 7d d3 	lsl	x21, x8, #3
1000056bc: 04 00 00 14 	b	0x1000056cc <__ZN4core3ptr70drop_in_place$LT$std..backtrace_rs..symbolize..gimli..stash..Stash$GT$17h34bd66f2fc0f88f7E+0x3c>
1000056c0: 94 62 00 91 	add	x20, x20, #24
1000056c4: b5 62 00 f1 	subs	x21, x21, #24
1000056c8: 00 01 00 54 	b.eq	0x1000056e8 <__ZN4core3ptr70drop_in_place$LT$std..backtrace_rs..symbolize..gimli..stash..Stash$GT$17h34bd66f2fc0f88f7E+0x58>
1000056cc: 81 02 40 f9 	ldr	x1, [x20]
1000056d0: 81 ff ff b4 	cbz	x1, 0x1000056c0 <__ZN4core3ptr70drop_in_place$LT$std..backtrace_rs..symbolize..gimli..stash..Stash$GT$17h34bd66f2fc0f88f7E+0x30>
1000056d4: 80 82 5f f8 	ldur	x0, [x20, #-8]
1000056d8: e8 03 21 aa 	mvn	x8, x1
1000056dc: 02 fd 7f d3 	lsr	x2, x8, #63
1000056e0: ee f9 ff 97 	bl	0x100003e98 <___rust_dealloc>
1000056e4: f7 ff ff 17 	b	0x1000056c0 <__ZN4core3ptr70drop_in_place$LT$std..backtrace_rs..symbolize..gimli..stash..Stash$GT$17h34bd66f2fc0f88f7E+0x30>
1000056e8: 68 06 40 f9 	ldr	x8, [x19, #8]
1000056ec: c8 00 00 b4 	cbz	x8, 0x100005704 <__ZN4core3ptr70drop_in_place$LT$std..backtrace_rs..symbolize..gimli..stash..Stash$GT$17h34bd66f2fc0f88f7E+0x74>
1000056f0: 60 02 40 f9 	ldr	x0, [x19]
1000056f4: 08 05 08 8b 	add	x8, x8, x8, lsl #1
1000056f8: 01 f1 7d d3 	lsl	x1, x8, #3
1000056fc: 02 01 80 52 	mov	w2, #8
100005700: e6 f9 ff 97 	bl	0x100003e98 <___rust_dealloc>
100005704: 68 0e 40 f9 	ldr	x8, [x19, #24]
100005708: c8 00 00 b4 	cbz	x8, 0x100005720 <__ZN4core3ptr70drop_in_place$LT$std..backtrace_rs..symbolize..gimli..stash..Stash$GT$17h34bd66f2fc0f88f7E+0x90>
10000570c: 60 06 42 a9 	ldp	x0, x1, [x19, #32]
100005710: fd 7b 42 a9 	ldp	x29, x30, [sp, #32]
100005714: f4 4f 41 a9 	ldp	x20, x19, [sp, #16]
100005718: f6 57 c3 a8 	ldp	x22, x21, [sp], #48
10000571c: ff b6 00 14 	b	0x100033318 <_write+0x100033318>
100005720: fd 7b 42 a9 	ldp	x29, x30, [sp, #32]
100005724: f4 4f 41 a9 	ldp	x20, x19, [sp, #16]
100005728: f6 57 c3 a8 	ldp	x22, x21, [sp], #48
10000572c: c0 03 5f d6 	ret

0000000100005730 <__ZN4core3ptr70drop_in_place$LT$std..panicking..begin_panic_handler..PanicPayload$GT$17h51ce084d46d73bb3E>:
100005730: e8 03 00 aa 	mov	x8, x0
100005734: 00 04 40 f9 	ldr	x0, [x0, #8]
100005738: c0 00 00 b4 	cbz	x0, 0x100005750 <__ZN4core3ptr70drop_in_place$LT$std..panicking..begin_panic_handler..PanicPayload$GT$17h51ce084d46d73bb3E+0x20>
10000573c: 01 09 40 f9 	ldr	x1, [x8, #16]
100005740: 81 00 00 b4 	cbz	x1, 0x100005750 <__ZN4core3ptr70drop_in_place$LT$std..panicking..begin_panic_handler..PanicPayload$GT$17h51ce084d46d73bb3E+0x20>
100005744: e8 03 21 aa 	mvn	x8, x1
100005748: 02 fd 7f d3 	lsr	x2, x8, #63
10000574c: d3 f9 ff 17 	b	0x100003e98 <___rust_dealloc>
100005750: c0 03 5f d6 	ret

0000000100005754 <__ZN4core3ptr71drop_in_place$LT$std..backtrace_rs..symbolize..gimli..macho..Object$GT$17h7376e17532609500E>:
100005754: f8 5f bc a9 	stp	x24, x23, [sp, #-64]!
100005758: f6 57 01 a9 	stp	x22, x21, [sp, #16]
10000575c: f4 4f 02 a9 	stp	x20, x19, [sp, #32]
100005760: fd 7b 03 a9 	stp	x29, x30, [sp, #48]
100005764: fd c3 00 91 	add	x29, sp, #48
100005768: f3 03 00 aa 	mov	x19, x0
10000576c: 08 14 40 f9 	ldr	x8, [x0, #40]
100005770: c8 00 00 b4 	cbz	x8, 0x100005788 <__ZN4core3ptr71drop_in_place$LT$std..backtrace_rs..symbolize..gimli..macho..Object$GT$17h7376e17532609500E+0x34>
100005774: 60 12 40 f9 	ldr	x0, [x19, #32]
100005778: 08 05 08 8b 	add	x8, x8, x8, lsl #1
10000577c: 01 f1 7d d3 	lsl	x1, x8, #3
100005780: 02 01 80 52 	mov	w2, #8
100005784: c5 f9 ff 97 	bl	0x100003e98 <___rust_dealloc>
100005788: 60 1e 40 f9 	ldr	x0, [x19, #56]
10000578c: a0 01 00 b4 	cbz	x0, 0x1000057c0 <__ZN4core3ptr71drop_in_place$LT$std..backtrace_rs..symbolize..gimli..macho..Object$GT$17h7376e17532609500E+0x6c>
100005790: 68 22 40 f9 	ldr	x8, [x19, #64]
100005794: a8 00 00 b4 	cbz	x8, 0x1000057a8 <__ZN4core3ptr71drop_in_place$LT$std..backtrace_rs..symbolize..gimli..macho..Object$GT$17h7376e17532609500E+0x54>
100005798: 08 09 08 8b 	add	x8, x8, x8, lsl #2
10000579c: 01 f1 7d d3 	lsl	x1, x8, #3
1000057a0: 02 01 80 52 	mov	w2, #8
1000057a4: bd f9 ff 97 	bl	0x100003e98 <___rust_dealloc>
1000057a8: 68 2e 40 f9 	ldr	x8, [x19, #88]
1000057ac: a8 00 00 b4 	cbz	x8, 0x1000057c0 <__ZN4core3ptr71drop_in_place$LT$std..backtrace_rs..symbolize..gimli..macho..Object$GT$17h7376e17532609500E+0x6c>
1000057b0: 60 2a 40 f9 	ldr	x0, [x19, #80]
1000057b4: 01 ed 7c d3 	lsl	x1, x8, #4
1000057b8: 02 01 80 52 	mov	w2, #8
1000057bc: b7 f9 ff 97 	bl	0x100003e98 <___rust_dealloc>
1000057c0: 68 3a 40 f9 	ldr	x8, [x19, #112]
1000057c4: 48 03 00 b4 	cbz	x8, 0x10000582c <__ZN4core3ptr71drop_in_place$LT$std..backtrace_rs..symbolize..gimli..macho..Object$GT$17h7376e17532609500E+0xd8>
1000057c8: 69 36 40 f9 	ldr	x9, [x19, #104]
1000057cc: 08 dd 78 d3 	lsl	x8, x8, #8
1000057d0: 16 01 04 d1 	sub	x22, x8, #256
1000057d4: 34 01 04 91 	add	x20, x9, #256
1000057d8: 05 00 00 14 	b	0x1000057ec <__ZN4core3ptr71drop_in_place$LT$std..backtrace_rs..symbolize..gimli..macho..Object$GT$17h7376e17532609500E+0x98>
1000057dc: d6 02 04 d1 	sub	x22, x22, #256
1000057e0: 94 02 04 91 	add	x20, x20, #256
1000057e4: df 02 04 b1 	cmn	x22, #256
1000057e8: e0 00 00 54 	b.eq	0x100005804 <__ZN4core3ptr71drop_in_place$LT$std..backtrace_rs..symbolize..gimli..macho..Object$GT$17h7376e17532609500E+0xb0>
1000057ec: 88 82 5b 38 	ldurb	w8, [x20, #-72]
1000057f0: 1f 05 00 71 	cmp	w8, #1
1000057f4: 48 ff ff 54 	b.hi	0x1000057dc <__ZN4core3ptr71drop_in_place$LT$std..backtrace_rs..symbolize..gimli..macho..Object$GT$17h7376e17532609500E+0x88>
1000057f8: 80 02 04 d1 	sub	x0, x20, #256
1000057fc: 43 ff ff 97 	bl	0x100005508 <__ZN4core3ptr65drop_in_place$LT$std..backtrace_rs..symbolize..gimli..Mapping$GT$17h574b03714ff665bdE>
100005800: f7 ff ff 17 	b	0x1000057dc <__ZN4core3ptr71drop_in_place$LT$std..backtrace_rs..symbolize..gimli..macho..Object$GT$17h7376e17532609500E+0x88>
100005804: 68 3a 40 f9 	ldr	x8, [x19, #112]
100005808: 28 01 00 b4 	cbz	x8, 0x10000582c <__ZN4core3ptr71drop_in_place$LT$std..backtrace_rs..symbolize..gimli..macho..Object$GT$17h7376e17532609500E+0xd8>
10000580c: 60 36 40 f9 	ldr	x0, [x19, #104]
100005810: 01 dd 78 d3 	lsl	x1, x8, #8
100005814: 02 01 80 52 	mov	w2, #8
100005818: fd 7b 43 a9 	ldp	x29, x30, [sp, #48]
10000581c: f4 4f 42 a9 	ldp	x20, x19, [sp, #32]
100005820: f6 57 41 a9 	ldp	x22, x21, [sp, #16]
100005824: f8 5f c4 a8 	ldp	x24, x23, [sp], #64
100005828: 9c f9 ff 17 	b	0x100003e98 <___rust_dealloc>
10000582c: fd 7b 43 a9 	ldp	x29, x30, [sp, #48]
100005830: f4 4f 42 a9 	ldp	x20, x19, [sp, #32]
100005834: f6 57 41 a9 	ldp	x22, x21, [sp, #16]
100005838: f8 5f c4 a8 	ldp	x24, x23, [sp], #64
10000583c: c0 03 5f d6 	ret
100005840: f5 03 00 aa 	mov	x21, x0
100005844: f6 00 00 b4 	cbz	x22, 0x100005860 <__ZN4core3ptr71drop_in_place$LT$std..backtrace_rs..symbolize..gimli..macho..Object$GT$17h7376e17532609500E+0x10c>
100005848: 97 02 04 91 	add	x23, x20, #256
10000584c: d6 02 04 d1 	sub	x22, x22, #256
100005850: e0 03 14 aa 	mov	x0, x20
100005854: c4 fb ff 97 	bl	0x100004764 <__ZN4core3ptr121drop_in_place$LT$core..option..Option$LT$core..option..Option$LT$std..backtrace_rs..symbolize..gimli..Mapping$GT$$GT$$GT$17hbf85724863f1de0aE>
100005858: f4 03 17 aa 	mov	x20, x23
10000585c: fa ff ff 17 	b	0x100005844 <__ZN4core3ptr71drop_in_place$LT$std..backtrace_rs..symbolize..gimli..macho..Object$GT$17h7376e17532609500E+0xf0>
100005860: 60 86 46 a9 	ldp	x0, x1, [x19, #104]
100005864: 52 0d 00 94 	bl	0x100008dac <__ZN5alloc5alloc8box_free17h54172cedeab6fc7bE>
100005868: e0 03 15 aa 	mov	x0, x21
10000586c: 63 b6 00 94 	bl	0x1000331f8 <_write+0x1000331f8>
100005870: f2 b5 00 94 	bl	0x100033038 <__ZN4core9panicking15panic_no_unwind17h6c18a18997fce2b1E>

0000000100005874 <__ZN4core3ptr72drop_in_place$LT$alloc..collections..btree..mem..replace..PanicGuard$GT$17h7efe9fc858c4f0a0E>:
100005874: e4 95 00 14 	b	0x10002b004 <__ZN93_$LT$alloc..collections..btree..mem..replace..PanicGuard$u20$as$u20$core..ops..drop..Drop$GT$4drop17h74201a2bb46c9bb7E>

0000000100005878 <__ZN4core3ptr72drop_in_place$LT$core..option..Option$LT$object..read..ObjectMap$GT$$GT$17hc83eacef61f34bd5E>:
100005878: f4 4f be a9 	stp	x20, x19, [sp, #-32]!
10000587c: fd 7b 01 a9 	stp	x29, x30, [sp, #16]
100005880: fd 43 00 91 	add	x29, sp, #16
100005884: f3 03 00 aa 	mov	x19, x0
100005888: 00 00 40 f9 	ldr	x0, [x0]
10000588c: e0 01 00 b4 	cbz	x0, 0x1000058c8 <__ZN4core3ptr72drop_in_place$LT$core..option..Option$LT$object..read..ObjectMap$GT$$GT$17hc83eacef61f34bd5E+0x50>
100005890: 68 06 40 f9 	ldr	x8, [x19, #8]
100005894: a8 00 00 b4 	cbz	x8, 0x1000058a8 <__ZN4core3ptr72drop_in_place$LT$core..option..Option$LT$object..read..ObjectMap$GT$$GT$17hc83eacef61f34bd5E+0x30>
100005898: 08 09 08 8b 	add	x8, x8, x8, lsl #2
10000589c: 01 f1 7d d3 	lsl	x1, x8, #3
1000058a0: 02 01 80 52 	mov	w2, #8
1000058a4: 7d f9 ff 97 	bl	0x100003e98 <___rust_dealloc>
1000058a8: 68 12 40 f9 	ldr	x8, [x19, #32]
1000058ac: e8 00 00 b4 	cbz	x8, 0x1000058c8 <__ZN4core3ptr72drop_in_place$LT$core..option..Option$LT$object..read..ObjectMap$GT$$GT$17hc83eacef61f34bd5E+0x50>
1000058b0: 60 0e 40 f9 	ldr	x0, [x19, #24]
1000058b4: 01 ed 7c d3 	lsl	x1, x8, #4
1000058b8: 02 01 80 52 	mov	w2, #8
1000058bc: fd 7b 41 a9 	ldp	x29, x30, [sp, #16]
1000058c0: f4 4f c2 a8 	ldp	x20, x19, [sp], #32
1000058c4: 75 f9 ff 17 	b	0x100003e98 <___rust_dealloc>
1000058c8: fd 7b 41 a9 	ldp	x29, x30, [sp, #16]
1000058cc: f4 4f c2 a8 	ldp	x20, x19, [sp], #32
1000058d0: c0 03 5f d6 	ret

00000001000058d4 <__ZN4core3ptr75drop_in_place$LT$core..option..Option$LT$alloc..ffi..c_str..CString$GT$$GT$17ha83862ff656d01ddE>:
1000058d4: 08 00 40 f9 	ldr	x8, [x0]
1000058d8: e8 00 00 b4 	cbz	x8, 0x1000058f4 <__ZN4core3ptr75drop_in_place$LT$core..option..Option$LT$alloc..ffi..c_str..CString$GT$$GT$17ha83862ff656d01ddE+0x20>
1000058dc: 1f 01 00 39 	strb	wzr, [x8]
1000058e0: 01 04 40 f9 	ldr	x1, [x0, #8]
1000058e4: 81 00 00 b4 	cbz	x1, 0x1000058f4 <__ZN4core3ptr75drop_in_place$LT$core..option..Option$LT$alloc..ffi..c_str..CString$GT$$GT$17ha83862ff656d01ddE+0x20>
1000058e8: 00 00 40 f9 	ldr	x0, [x0]
1000058ec: 22 00 80 52 	mov	w2, #1
1000058f0: 6a f9 ff 17 	b	0x100003e98 <___rust_dealloc>
1000058f4: c0 03 5f d6 	ret

00000001000058f8 <__ZN4core3ptr75drop_in_place$LT$std..sys..unix..locks..pthread_mutex..PthreadMutexAttr$GT$17hca8b5d4936ad5165E>:
1000058f8: b2 b6 00 14 	b	0x1000333c0 <_write+0x1000333c0>

00000001000058fc <__ZN4core3ptr77drop_in_place$LT$alloc..boxed..Box$LT$$u5b$alloc..string..String$u5d$$GT$$GT$17h13f0cd56ebbdb81aE>:
1000058fc: f6 57 bd a9 	stp	x22, x21, [sp, #-48]!
100005900: f4 4f 01 a9 	stp	x20, x19, [sp, #16]
100005904: fd 7b 02 a9 	stp	x29, x30, [sp, #32]
100005908: fd 83 00 91 	add	x29, sp, #32
10000590c: 08 04 40 f9 	ldr	x8, [x0, #8]
100005910: 68 03 00 b4 	cbz	x8, 0x10000597c <__ZN4core3ptr77drop_in_place$LT$alloc..boxed..Box$LT$$u5b$alloc..string..String$u5d$$GT$$GT$17h13f0cd56ebbdb81aE+0x80>
100005914: f3 03 00 aa 	mov	x19, x0
100005918: 09 00 40 f9 	ldr	x9, [x0]
10000591c: 34 21 00 91 	add	x20, x9, #8
100005920: 08 05 08 8b 	add	x8, x8, x8, lsl #1
100005924: 15 f1 7d d3 	lsl	x21, x8, #3
100005928: 04 00 00 14 	b	0x100005938 <__ZN4core3ptr77drop_in_place$LT$alloc..boxed..Box$LT$$u5b$alloc..string..String$u5d$$GT$$GT$17h13f0cd56ebbdb81aE+0x3c>
10000592c: 94 62 00 91 	add	x20, x20, #24
100005930: b5 62 00 f1 	subs	x21, x21, #24
100005934: 00 01 00 54 	b.eq	0x100005954 <__ZN4core3ptr77drop_in_place$LT$alloc..boxed..Box$LT$$u5b$alloc..string..String$u5d$$GT$$GT$17h13f0cd56ebbdb81aE+0x58>
100005938: 81 02 40 f9 	ldr	x1, [x20]
10000593c: 81 ff ff b4 	cbz	x1, 0x10000592c <__ZN4core3ptr77drop_in_place$LT$alloc..boxed..Box$LT$$u5b$alloc..string..String$u5d$$GT$$GT$17h13f0cd56ebbdb81aE+0x30>
100005940: 80 82 5f f8 	ldur	x0, [x20, #-8]
100005944: e8 03 21 aa 	mvn	x8, x1
100005948: 02 fd 7f d3 	lsr	x2, x8, #63
10000594c: 53 f9 ff 97 	bl	0x100003e98 <___rust_dealloc>
100005950: f7 ff ff 17 	b	0x10000592c <__ZN4core3ptr77drop_in_place$LT$alloc..boxed..Box$LT$$u5b$alloc..string..String$u5d$$GT$$GT$17h13f0cd56ebbdb81aE+0x30>
100005954: 68 06 40 f9 	ldr	x8, [x19, #8]
100005958: 28 01 00 b4 	cbz	x8, 0x10000597c <__ZN4core3ptr77drop_in_place$LT$alloc..boxed..Box$LT$$u5b$alloc..string..String$u5d$$GT$$GT$17h13f0cd56ebbdb81aE+0x80>
10000595c: 60 02 40 f9 	ldr	x0, [x19]
100005960: 08 05 08 8b 	add	x8, x8, x8, lsl #1
100005964: 01 f1 7d d3 	lsl	x1, x8, #3
100005968: 02 01 80 52 	mov	w2, #8
10000596c: fd 7b 42 a9 	ldp	x29, x30, [sp, #32]
100005970: f4 4f 41 a9 	ldp	x20, x19, [sp, #16]
100005974: f6 57 c3 a8 	ldp	x22, x21, [sp], #48
100005978: 48 f9 ff 17 	b	0x100003e98 <___rust_dealloc>
10000597c: fd 7b 42 a9 	ldp	x29, x30, [sp, #32]
100005980: f4 4f 41 a9 	ldp	x20, x19, [sp, #16]
100005984: f6 57 c3 a8 	ldp	x22, x21, [sp], #48
100005988: c0 03 5f d6 	ret

000000010000598c <__ZN4core3ptr78drop_in_place$LT$alloc..vec..Vec$LT$gimli..read..line..FileEntryFormat$GT$$GT$17h04f7ba8fa2cc48e9E>:
10000598c: 08 04 40 f9 	ldr	x8, [x0, #8]
100005990: a8 00 00 b4 	cbz	x8, 0x1000059a4 <__ZN4core3ptr78drop_in_place$LT$alloc..vec..Vec$LT$gimli..read..line..FileEntryFormat$GT$$GT$17h04f7ba8fa2cc48e9E+0x18>
100005994: 00 00 40 f9 	ldr	x0, [x0]
100005998: 01 f5 7e d3 	lsl	x1, x8, #2
10000599c: 42 00 80 52 	mov	w2, #2
1000059a0: 3e f9 ff 17 	b	0x100003e98 <___rust_dealloc>
1000059a4: c0 03 5f d6 	ret

00000001000059a8 <__ZN4core3ptr81drop_in_place$LT$$LP$usize$C$std..backtrace_rs..symbolize..gimli..Mapping$RP$$GT$17h4c29936dbd7d8430E>:
1000059a8: 00 20 00 91 	add	x0, x0, #8
1000059ac: d7 fe ff 17 	b	0x100005508 <__ZN4core3ptr65drop_in_place$LT$std..backtrace_rs..symbolize..gimli..Mapping$GT$17h574b03714ff665bdE>

00000001000059b0 <__ZN4core3ptr81drop_in_place$LT$core..result..Result$LT$$LP$$RP$$C$std..io..error..Error$GT$$GT$17h1d10aac0d47c2637E>:
1000059b0: f6 57 bd a9 	stp	x22, x21, [sp, #-48]!
1000059b4: f4 4f 01 a9 	stp	x20, x19, [sp, #16]
1000059b8: fd 7b 02 a9 	stp	x29, x30, [sp, #32]
1000059bc: fd 83 00 91 	add	x29, sp, #32
1000059c0: e0 02 00 b4 	cbz	x0, 0x100005a1c <__ZN4core3ptr81drop_in_place$LT$core..result..Result$LT$$LP$$RP$$C$std..io..error..Error$GT$$GT$17h1d10aac0d47c2637E+0x6c>
1000059c4: f4 03 00 aa 	mov	x20, x0
1000059c8: 08 04 40 92 	and	x8, x0, #0x3
1000059cc: 1f 05 00 f1 	cmp	x8, #1
1000059d0: 61 02 00 54 	b.ne	0x100005a1c <__ZN4core3ptr81drop_in_place$LT$core..result..Result$LT$$LP$$RP$$C$std..io..error..Error$GT$$GT$17h1d10aac0d47c2637E+0x6c>
1000059d4: f3 03 14 aa 	mov	x19, x20
1000059d8: 60 fe 5f f8 	ldr	x0, [x19, #-1]!
1000059dc: 68 06 40 f9 	ldr	x8, [x19, #8]
1000059e0: 08 01 40 f9 	ldr	x8, [x8]
1000059e4: 00 01 3f d6 	blr	x8
1000059e8: 88 72 40 f8 	ldur	x8, [x20, #7]
1000059ec: 01 05 40 f9 	ldr	x1, [x8, #8]
1000059f0: 81 00 00 b4 	cbz	x1, 0x100005a00 <__ZN4core3ptr81drop_in_place$LT$core..result..Result$LT$$LP$$RP$$C$std..io..error..Error$GT$$GT$17h1d10aac0d47c2637E+0x50>
1000059f4: 02 09 40 f9 	ldr	x2, [x8, #16]
1000059f8: 60 02 40 f9 	ldr	x0, [x19]
1000059fc: 27 f9 ff 97 	bl	0x100003e98 <___rust_dealloc>
100005a00: e0 03 13 aa 	mov	x0, x19
100005a04: 01 03 80 52 	mov	w1, #24
100005a08: 02 01 80 52 	mov	w2, #8
100005a0c: fd 7b 42 a9 	ldp	x29, x30, [sp, #32]
100005a10: f4 4f 41 a9 	ldp	x20, x19, [sp, #16]
100005a14: f6 57 c3 a8 	ldp	x22, x21, [sp], #48
100005a18: 20 f9 ff 17 	b	0x100003e98 <___rust_dealloc>
100005a1c: fd 7b 42 a9 	ldp	x29, x30, [sp, #32]
100005a20: f4 4f 41 a9 	ldp	x20, x19, [sp, #16]
100005a24: f6 57 c3 a8 	ldp	x22, x21, [sp], #48
100005a28: c0 03 5f d6 	ret
100005a2c: f5 03 00 aa 	mov	x21, x0
100005a30: 80 f2 5f f8 	ldur	x0, [x20, #-1]
100005a34: 88 72 40 f8 	ldur	x8, [x20, #7]
100005a38: 01 89 40 a9 	ldp	x1, x2, [x8, #8]
100005a3c: d6 0c 00 94 	bl	0x100008d94 <__ZN5alloc5alloc8box_free17h00f9913ac88f43c5E>
100005a40: e0 03 13 aa 	mov	x0, x19
100005a44: df 0c 00 94 	bl	0x100008dc0 <__ZN5alloc5alloc8box_free17h9931d7439991635eE>
100005a48: e0 03 15 aa 	mov	x0, x21
100005a4c: eb b5 00 94 	bl	0x1000331f8 <_write+0x1000331f8>

0000000100005a50 <__ZN4core3ptr82drop_in_place$LT$alloc..sync..ArcInner$LT$std..sys..unix..fs..InnerReadDir$GT$$GT$17h167f410323c64df5E>:
100005a50: f4 4f be a9 	stp	x20, x19, [sp, #-32]!
100005a54: fd 7b 01 a9 	stp	x29, x30, [sp, #16]
100005a58: fd 43 00 91 	add	x29, sp, #16
100005a5c: f3 03 00 aa 	mov	x19, x0
100005a60: 00 40 00 91 	add	x0, x0, #16
100005a64: ec 5e 00 94 	bl	0x10001d614 <__ZN65_$LT$std..sys..unix..fs..Dir$u20$as$u20$core..ops..drop..Drop$GT$4drop17h8f46cffb6a9cd864E>
100005a68: 61 12 40 f9 	ldr	x1, [x19, #32]
100005a6c: e1 00 00 b4 	cbz	x1, 0x100005a88 <__ZN4core3ptr82drop_in_place$LT$alloc..sync..ArcInner$LT$std..sys..unix..fs..InnerReadDir$GT$$GT$17h167f410323c64df5E+0x38>
100005a70: 60 0e 40 f9 	ldr	x0, [x19, #24]
100005a74: e8 03 21 aa 	mvn	x8, x1
100005a78: 02 fd 7f d3 	lsr	x2, x8, #63
100005a7c: fd 7b 41 a9 	ldp	x29, x30, [sp, #16]
100005a80: f4 4f c2 a8 	ldp	x20, x19, [sp], #32
100005a84: 05 f9 ff 17 	b	0x100003e98 <___rust_dealloc>
100005a88: fd 7b 41 a9 	ldp	x29, x30, [sp, #16]
100005a8c: f4 4f c2 a8 	ldp	x20, x19, [sp], #32
100005a90: c0 03 5f d6 	ret
100005a94: f4 03 00 aa 	mov	x20, x0
100005a98: 60 62 00 91 	add	x0, x19, #24
100005a9c: e2 fc ff 97 	bl	0x100004e24 <__ZN4core3ptr205drop_in_place$LT$$LT$alloc..boxed..Box$LT$dyn$u20$core..error..Error$u2b$core..marker..Send$u2b$core..marker..Sync$GT$$u20$as$u20$core..convert..From$LT$alloc..string..String$GT$$GT$..from..StringError$GT$17hefc62b84e80df53bE>
100005aa0: e0 03 14 aa 	mov	x0, x20
100005aa4: d5 b5 00 94 	bl	0x1000331f8 <_write+0x1000331f8>

0000000100005aa8 <__ZN4core3ptr83drop_in_place$LT$std..sys_common..thread_info..set..$u7b$$u7b$closure$u7d$$u7d$$GT$17h135e79fca31a6c54E>:
100005aa8: 08 0c 40 f9 	ldr	x8, [x0, #24]
100005aac: 09 00 80 92 	mov	x9, #-1
100005ab0: 08 01 69 f8 	<unknown>
100005ab4: 1f 05 00 f1 	cmp	x8, #1
100005ab8: 81 00 00 54 	b.ne	0x100005ac8 <__ZN4core3ptr83drop_in_place$LT$std..sys_common..thread_info..set..$u7b$$u7b$closure$u7d$$u7d$$GT$17h135e79fca31a6c54E+0x20>
100005abc: bf 39 03 d5 	dmb	ishld
100005ac0: 00 0c 40 f9 	ldr	x0, [x0, #24]
100005ac4: 4a 0c 00 14 	b	0x100008bec <__ZN5alloc4sync12Arc$LT$T$GT$9drop_slow17h940c2712cbbf3755E>
100005ac8: c0 03 5f d6 	ret

0000000100005acc <__ZN4core3ptr84drop_in_place$LT$std..io..stdio..set_output_capture..$u7b$$u7b$closure$u7d$$u7d$$GT$17hfcf6e53ce3ceb963E>:
100005acc: 08 00 40 f9 	ldr	x8, [x0]
100005ad0: 08 01 00 b4 	cbz	x8, 0x100005af0 <__ZN4core3ptr84drop_in_place$LT$std..io..stdio..set_output_capture..$u7b$$u7b$closure$u7d$$u7d$$GT$17hfcf6e53ce3ceb963E+0x24>
100005ad4: 09 00 80 92 	mov	x9, #-1
100005ad8: 08 01 69 f8 	<unknown>
100005adc: 1f 05 00 f1 	cmp	x8, #1
100005ae0: 81 00 00 54 	b.ne	0x100005af0 <__ZN4core3ptr84drop_in_place$LT$std..io..stdio..set_output_capture..$u7b$$u7b$closure$u7d$$u7d$$GT$17hfcf6e53ce3ceb963E+0x24>
100005ae4: bf 39 03 d5 	dmb	ishld
100005ae8: 00 00 40 f9 	ldr	x0, [x0]
100005aec: 61 0c 00 14 	b	0x100008c70 <__ZN5alloc4sync12Arc$LT$T$GT$9drop_slow17hb0f4e3a17d6d6042E>
100005af0: c0 03 5f d6 	ret

0000000100005af4 <__ZN4core3ptr86drop_in_place$LT$core..result..Result$LT$addr2line..Lines$C$gimli..read..Error$GT$$GT$17h8f3da527abfc6d8dE>:
100005af4: f6 57 bd a9 	stp	x22, x21, [sp, #-48]!
100005af8: f4 4f 01 a9 	stp	x20, x19, [sp, #16]
100005afc: fd 7b 02 a9 	stp	x29, x30, [sp, #32]
100005b00: fd 83 00 91 	add	x29, sp, #32
100005b04: 08 00 40 f9 	ldr	x8, [x0]
100005b08: 68 06 00 b4 	cbz	x8, 0x100005bd4 <__ZN4core3ptr86drop_in_place$LT$core..result..Result$LT$addr2line..Lines$C$gimli..read..Error$GT$$GT$17h8f3da527abfc6d8dE+0xe0>
100005b0c: f3 03 00 aa 	mov	x19, x0
100005b10: 09 04 40 f9 	ldr	x9, [x0, #8]
100005b14: c9 02 00 b4 	cbz	x9, 0x100005b6c <__ZN4core3ptr86drop_in_place$LT$core..result..Result$LT$addr2line..Lines$C$gimli..read..Error$GT$$GT$17h8f3da527abfc6d8dE+0x78>
100005b18: 14 21 00 91 	add	x20, x8, #8
100005b1c: 28 05 09 8b 	add	x8, x9, x9, lsl #1
100005b20: 15 f1 7d d3 	lsl	x21, x8, #3
100005b24: 04 00 00 14 	b	0x100005b34 <__ZN4core3ptr86drop_in_place$LT$core..result..Result$LT$addr2line..Lines$C$gimli..read..Error$GT$$GT$17h8f3da527abfc6d8dE+0x40>
100005b28: 94 62 00 91 	add	x20, x20, #24
100005b2c: b5 62 00 f1 	subs	x21, x21, #24
100005b30: 00 01 00 54 	b.eq	0x100005b50 <__ZN4core3ptr86drop_in_place$LT$core..result..Result$LT$addr2line..Lines$C$gimli..read..Error$GT$$GT$17h8f3da527abfc6d8dE+0x5c>
100005b34: 81 02 40 f9 	ldr	x1, [x20]
100005b38: 81 ff ff b4 	cbz	x1, 0x100005b28 <__ZN4core3ptr86drop_in_place$LT$core..result..Result$LT$addr2line..Lines$C$gimli..read..Error$GT$$GT$17h8f3da527abfc6d8dE+0x34>
100005b3c: 80 82 5f f8 	ldur	x0, [x20, #-8]
100005b40: e8 03 21 aa 	mvn	x8, x1
100005b44: 02 fd 7f d3 	lsr	x2, x8, #63
100005b48: d4 f8 ff 97 	bl	0x100003e98 <___rust_dealloc>
100005b4c: f7 ff ff 17 	b	0x100005b28 <__ZN4core3ptr86drop_in_place$LT$core..result..Result$LT$addr2line..Lines$C$gimli..read..Error$GT$$GT$17h8f3da527abfc6d8dE+0x34>
100005b50: 68 06 40 f9 	ldr	x8, [x19, #8]
100005b54: c8 00 00 b4 	cbz	x8, 0x100005b6c <__ZN4core3ptr86drop_in_place$LT$core..result..Result$LT$addr2line..Lines$C$gimli..read..Error$GT$$GT$17h8f3da527abfc6d8dE+0x78>
100005b58: 60 02 40 f9 	ldr	x0, [x19]
100005b5c: 08 05 08 8b 	add	x8, x8, x8, lsl #1
100005b60: 01 f1 7d d3 	lsl	x1, x8, #3
100005b64: 02 01 80 52 	mov	w2, #8
100005b68: cc f8 ff 97 	bl	0x100003e98 <___rust_dealloc>
100005b6c: 68 0e 40 f9 	ldr	x8, [x19, #24]
100005b70: 28 03 00 b4 	cbz	x8, 0x100005bd4 <__ZN4core3ptr86drop_in_place$LT$core..result..Result$LT$addr2line..Lines$C$gimli..read..Error$GT$$GT$17h8f3da527abfc6d8dE+0xe0>
100005b74: 69 0a 40 f9 	ldr	x9, [x19, #16]
100005b78: 34 61 00 91 	add	x20, x9, #24
100005b7c: 15 e9 7b d3 	lsl	x21, x8, #5
100005b80: 04 00 00 14 	b	0x100005b90 <__ZN4core3ptr86drop_in_place$LT$core..result..Result$LT$addr2line..Lines$C$gimli..read..Error$GT$$GT$17h8f3da527abfc6d8dE+0x9c>
100005b84: 94 82 00 91 	add	x20, x20, #32
100005b88: b5 82 00 f1 	subs	x21, x21, #32
100005b8c: 20 01 00 54 	b.eq	0x100005bb0 <__ZN4core3ptr86drop_in_place$LT$core..result..Result$LT$addr2line..Lines$C$gimli..read..Error$GT$$GT$17h8f3da527abfc6d8dE+0xbc>
100005b90: 88 02 40 f9 	ldr	x8, [x20]
100005b94: 88 ff ff b4 	cbz	x8, 0x100005b84 <__ZN4core3ptr86drop_in_place$LT$core..result..Result$LT$addr2line..Lines$C$gimli..read..Error$GT$$GT$17h8f3da527abfc6d8dE+0x90>
100005b98: 80 82 5f f8 	ldur	x0, [x20, #-8]
100005b9c: 08 05 08 8b 	add	x8, x8, x8, lsl #1
100005ba0: 01 f1 7d d3 	lsl	x1, x8, #3
100005ba4: 02 01 80 52 	mov	w2, #8
100005ba8: bc f8 ff 97 	bl	0x100003e98 <___rust_dealloc>
100005bac: f6 ff ff 17 	b	0x100005b84 <__ZN4core3ptr86drop_in_place$LT$core..result..Result$LT$addr2line..Lines$C$gimli..read..Error$GT$$GT$17h8f3da527abfc6d8dE+0x90>
100005bb0: 68 0e 40 f9 	ldr	x8, [x19, #24]
100005bb4: 08 01 00 b4 	cbz	x8, 0x100005bd4 <__ZN4core3ptr86drop_in_place$LT$core..result..Result$LT$addr2line..Lines$C$gimli..read..Error$GT$$GT$17h8f3da527abfc6d8dE+0xe0>
100005bb8: 60 0a 40 f9 	ldr	x0, [x19, #16]
100005bbc: 01 e9 7b d3 	lsl	x1, x8, #5
100005bc0: 02 01 80 52 	mov	w2, #8
100005bc4: fd 7b 42 a9 	ldp	x29, x30, [sp, #32]
100005bc8: f4 4f 41 a9 	ldp	x20, x19, [sp, #16]
100005bcc: f6 57 c3 a8 	ldp	x22, x21, [sp], #48
100005bd0: b2 f8 ff 17 	b	0x100003e98 <___rust_dealloc>
100005bd4: fd 7b 42 a9 	ldp	x29, x30, [sp, #32]
100005bd8: f4 4f 41 a9 	ldp	x20, x19, [sp, #16]
100005bdc: f6 57 c3 a8 	ldp	x22, x21, [sp], #48
100005be0: c0 03 5f d6 	ret

0000000100005be4 <__ZN4core3ptr86drop_in_place$LT$core..slice..sort..CopyOnDrop$LT$object..read..ObjectMapEntry$GT$$GT$17ha3dab72a0a9258e0E>:
100005be4: 00 04 40 ad 	ldp	q0, q1, [x0]
100005be8: 08 10 40 f9 	ldr	x8, [x0, #32]
100005bec: 28 10 00 f9 	str	x8, [x1, #32]
100005bf0: 20 04 00 ad 	stp	q0, q1, [x1]
100005bf4: c0 03 5f d6 	ret

0000000100005bf8 <__ZN4core3ptr88drop_in_place$LT$alloc..vec..Vec$LT$std..backtrace_rs..symbolize..gimli..Library$GT$$GT$17h2150ecbd48fa2dfeE>:
100005bf8: f6 57 bd a9 	stp	x22, x21, [sp, #-48]!
100005bfc: f4 4f 01 a9 	stp	x20, x19, [sp, #16]
100005c00: fd 7b 02 a9 	stp	x29, x30, [sp, #32]
100005c04: fd 83 00 91 	add	x29, sp, #32
100005c08: f3 03 00 aa 	mov	x19, x0
100005c0c: 08 08 40 f9 	ldr	x8, [x0, #16]
100005c10: c8 02 00 b4 	cbz	x8, 0x100005c68 <__ZN4core3ptr88drop_in_place$LT$alloc..vec..Vec$LT$std..backtrace_rs..symbolize..gimli..Library$GT$$GT$17h2150ecbd48fa2dfeE+0x70>
100005c14: 69 02 40 f9 	ldr	x9, [x19]
100005c18: 34 61 00 91 	add	x20, x9, #24
100005c1c: 09 07 80 52 	mov	w9, #56
100005c20: 15 7d 09 9b 	mul	x21, x8, x9
100005c24: 04 00 00 14 	b	0x100005c34 <__ZN4core3ptr88drop_in_place$LT$alloc..vec..Vec$LT$std..backtrace_rs..symbolize..gimli..Library$GT$$GT$17h2150ecbd48fa2dfeE+0x3c>
100005c28: 94 e2 00 91 	add	x20, x20, #56
100005c2c: b5 e2 00 f1 	subs	x21, x21, #56
100005c30: c0 01 00 54 	b.eq	0x100005c68 <__ZN4core3ptr88drop_in_place$LT$alloc..vec..Vec$LT$std..backtrace_rs..symbolize..gimli..Library$GT$$GT$17h2150ecbd48fa2dfeE+0x70>
100005c34: 81 02 5f f8 	ldur	x1, [x20, #-16]
100005c38: a1 00 00 b4 	cbz	x1, 0x100005c4c <__ZN4core3ptr88drop_in_place$LT$alloc..vec..Vec$LT$std..backtrace_rs..symbolize..gimli..Library$GT$$GT$17h2150ecbd48fa2dfeE+0x54>
100005c3c: 80 82 5e f8 	ldur	x0, [x20, #-24]
100005c40: e8 03 21 aa 	mvn	x8, x1
100005c44: 02 fd 7f d3 	lsr	x2, x8, #63
100005c48: 94 f8 ff 97 	bl	0x100003e98 <___rust_dealloc>
100005c4c: 88 06 40 f9 	ldr	x8, [x20, #8]
100005c50: c8 fe ff b4 	cbz	x8, 0x100005c28 <__ZN4core3ptr88drop_in_place$LT$alloc..vec..Vec$LT$std..backtrace_rs..symbolize..gimli..Library$GT$$GT$17h2150ecbd48fa2dfeE+0x30>
100005c54: 80 02 40 f9 	ldr	x0, [x20]
100005c58: 01 ed 7c d3 	lsl	x1, x8, #4
100005c5c: 02 01 80 52 	mov	w2, #8
100005c60: 8e f8 ff 97 	bl	0x100003e98 <___rust_dealloc>
100005c64: f1 ff ff 17 	b	0x100005c28 <__ZN4core3ptr88drop_in_place$LT$alloc..vec..Vec$LT$std..backtrace_rs..symbolize..gimli..Library$GT$$GT$17h2150ecbd48fa2dfeE+0x30>
100005c68: 68 06 40 f9 	ldr	x8, [x19, #8]
100005c6c: 28 01 00 b4 	cbz	x8, 0x100005c90 <__ZN4core3ptr88drop_in_place$LT$alloc..vec..Vec$LT$std..backtrace_rs..symbolize..gimli..Library$GT$$GT$17h2150ecbd48fa2dfeE+0x98>
100005c70: 60 02 40 f9 	ldr	x0, [x19]
100005c74: 09 07 80 52 	mov	w9, #56
100005c78: 01 7d 09 9b 	mul	x1, x8, x9
100005c7c: 02 01 80 52 	mov	w2, #8
100005c80: fd 7b 42 a9 	ldp	x29, x30, [sp, #32]
100005c84: f4 4f 41 a9 	ldp	x20, x19, [sp, #16]
100005c88: f6 57 c3 a8 	ldp	x22, x21, [sp], #48
100005c8c: 83 f8 ff 17 	b	0x100003e98 <___rust_dealloc>
100005c90: fd 7b 42 a9 	ldp	x29, x30, [sp, #32]
100005c94: f4 4f 41 a9 	ldp	x20, x19, [sp, #16]
100005c98: f6 57 c3 a8 	ldp	x22, x21, [sp], #48
100005c9c: c0 03 5f d6 	ret

0000000100005ca0 <__ZN4core3ptr88drop_in_place$LT$core..slice..sort..CopyOnDrop$LT$$LP$$RF$$u5b$u8$u5d$$C$u64$RP$$GT$$GT$17h6191ff4e3967c590E>:
100005ca0: 00 00 c0 3d 	ldr	q0, [x0]
100005ca4: 08 08 40 f9 	ldr	x8, [x0, #16]
100005ca8: 28 08 00 f9 	str	x8, [x1, #16]
100005cac: 20 00 80 3d 	str	q0, [x1]
100005cb0: c0 03 5f d6 	ret

0000000100005cb4 <__ZN4core3ptr88drop_in_place$LT$std..io..Write..write_fmt..Adapter$LT$alloc..vec..Vec$LT$u8$GT$$GT$$GT$17hbbfffef6173fb01cE>:
100005cb4: f4 4f be a9 	stp	x20, x19, [sp, #-32]!
100005cb8: fd 7b 01 a9 	stp	x29, x30, [sp, #16]
100005cbc: fd 43 00 91 	add	x29, sp, #16
100005cc0: 14 04 40 f9 	ldr	x20, [x0, #8]
100005cc4: 88 06 40 92 	and	x8, x20, #0x3
100005cc8: 9f 02 00 f1 	cmp	x20, #0
100005ccc: 00 19 41 fa 	ccmp	x8, #1, #0, ne
100005cd0: 80 00 00 54 	b.eq	0x100005ce0 <__ZN4core3ptr88drop_in_place$LT$std..io..Write..write_fmt..Adapter$LT$alloc..vec..Vec$LT$u8$GT$$GT$$GT$17hbbfffef6173fb01cE+0x2c>
100005cd4: fd 7b 41 a9 	ldp	x29, x30, [sp, #16]
100005cd8: f4 4f c2 a8 	ldp	x20, x19, [sp], #32
100005cdc: c0 03 5f d6 	ret
100005ce0: f3 03 14 aa 	mov	x19, x20
100005ce4: 60 fe 5f f8 	ldr	x0, [x19, #-1]!
100005ce8: 68 06 40 f9 	ldr	x8, [x19, #8]
100005cec: 08 01 40 f9 	ldr	x8, [x8]
100005cf0: 00 01 3f d6 	blr	x8
100005cf4: 88 72 40 f8 	ldur	x8, [x20, #7]
100005cf8: 01 05 40 f9 	ldr	x1, [x8, #8]
100005cfc: 81 00 00 b4 	cbz	x1, 0x100005d0c <__ZN4core3ptr88drop_in_place$LT$std..io..Write..write_fmt..Adapter$LT$alloc..vec..Vec$LT$u8$GT$$GT$$GT$17hbbfffef6173fb01cE+0x58>
100005d00: 02 09 40 f9 	ldr	x2, [x8, #16]
100005d04: 60 02 40 f9 	ldr	x0, [x19]
100005d08: 64 f8 ff 97 	bl	0x100003e98 <___rust_dealloc>
100005d0c: e0 03 13 aa 	mov	x0, x19
100005d10: 01 03 80 52 	mov	w1, #24
100005d14: 02 01 80 52 	mov	w2, #8
100005d18: fd 7b 41 a9 	ldp	x29, x30, [sp, #16]
100005d1c: f4 4f c2 a8 	ldp	x20, x19, [sp], #32
100005d20: 5e f8 ff 17 	b	0x100003e98 <___rust_dealloc>
100005d24: e8 03 14 aa 	mov	x8, x20
100005d28: f4 03 00 aa 	mov	x20, x0
100005d2c: 00 f1 5f f8 	ldur	x0, [x8, #-1]
100005d30: 08 71 40 f8 	ldur	x8, [x8, #7]
100005d34: 01 89 40 a9 	ldp	x1, x2, [x8, #8]
100005d38: 17 0c 00 94 	bl	0x100008d94 <__ZN5alloc5alloc8box_free17h00f9913ac88f43c5E>
100005d3c: e0 03 13 aa 	mov	x0, x19
100005d40: 20 0c 00 94 	bl	0x100008dc0 <__ZN5alloc5alloc8box_free17h9931d7439991635eE>
100005d44: e0 03 14 aa 	mov	x0, x20
100005d48: 2c b5 00 94 	bl	0x1000331f8 <_write+0x1000331f8>

0000000100005d4c <__ZN4core3ptr88drop_in_place$LT$std..sys_common..backtrace.._print_fmt..$u7b$$u7b$closure$u7d$$u7d$$GT$17h8bbec0c584629b87E>:
100005d4c: e8 03 00 aa 	mov	x8, x0
100005d50: 00 00 40 f9 	ldr	x0, [x0]
100005d54: c0 00 00 b4 	cbz	x0, 0x100005d6c <__ZN4core3ptr88drop_in_place$LT$std..sys_common..backtrace.._print_fmt..$u7b$$u7b$closure$u7d$$u7d$$GT$17h8bbec0c584629b87E+0x20>
100005d58: 01 05 40 f9 	ldr	x1, [x8, #8]
100005d5c: 81 00 00 b4 	cbz	x1, 0x100005d6c <__ZN4core3ptr88drop_in_place$LT$std..sys_common..backtrace.._print_fmt..$u7b$$u7b$closure$u7d$$u7d$$GT$17h8bbec0c584629b87E+0x20>
100005d60: e8 03 21 aa 	mvn	x8, x1
100005d64: 02 fd 7f d3 	lsr	x2, x8, #63
100005d68: 4c f8 ff 17 	b	0x100003e98 <___rust_dealloc>
100005d6c: c0 03 5f d6 	ret

0000000100005d70 <__ZN4core3ptr89drop_in_place$LT$alloc..boxed..Box$LT$std..sys..unix..locks..pthread_mutex..Mutex$GT$$GT$17h22990205436043ccE>:
100005d70: f4 4f be a9 	stp	x20, x19, [sp, #-32]!
100005d74: fd 7b 01 a9 	stp	x29, x30, [sp, #16]
100005d78: fd 43 00 91 	add	x29, sp, #16
100005d7c: f3 03 00 aa 	mov	x19, x0
100005d80: 00 00 40 f9 	ldr	x0, [x0]
100005d84: 80 b5 00 94 	bl	0x100033384 <_write+0x100033384>
100005d88: 60 02 40 f9 	ldr	x0, [x19]
100005d8c: 01 08 80 52 	mov	w1, #64
100005d90: 02 01 80 52 	mov	w2, #8
100005d94: fd 7b 41 a9 	ldp	x29, x30, [sp, #16]
100005d98: f4 4f c2 a8 	ldp	x20, x19, [sp], #32
100005d9c: 3f f8 ff 17 	b	0x100003e98 <___rust_dealloc>

0000000100005da0 <__ZN4core3ptr90drop_in_place$LT$std..io..buffered..bufwriter..BufWriter$LT$W$GT$..flush_buf..BufGuard$GT$17h86fa8b48fd925b9aE>:
100005da0: f4 4f be a9 	stp	x20, x19, [sp, #-32]!
100005da4: fd 7b 01 a9 	stp	x29, x30, [sp, #16]
100005da8: fd 43 00 91 	add	x29, sp, #16
100005dac: 81 01 00 b4 	cbz	x1, 0x100005ddc <__ZN4core3ptr90drop_in_place$LT$std..io..buffered..bufwriter..BufWriter$LT$W$GT$..flush_buf..BufGuard$GT$17h86fa8b48fd925b9aE+0x3c>
100005db0: f3 03 00 aa 	mov	x19, x0
100005db4: 08 08 40 f9 	ldr	x8, [x0, #16]
100005db8: 14 01 01 eb 	subs	x20, x8, x1
100005dbc: 63 01 00 54 	b.lo	0x100005de8 <__ZN4core3ptr90drop_in_place$LT$std..io..buffered..bufwriter..BufWriter$LT$W$GT$..flush_buf..BufGuard$GT$17h86fa8b48fd925b9aE+0x48>
100005dc0: 7f 0a 00 f9 	str	xzr, [x19, #16]
100005dc4: c0 00 00 54 	b.eq	0x100005ddc <__ZN4core3ptr90drop_in_place$LT$std..io..buffered..bufwriter..BufWriter$LT$W$GT$..flush_buf..BufGuard$GT$17h86fa8b48fd925b9aE+0x3c>
100005dc8: 60 02 40 f9 	ldr	x0, [x19]
100005dcc: 01 00 01 8b 	add	x1, x0, x1
100005dd0: e2 03 14 aa 	mov	x2, x20
100005dd4: 48 b5 00 94 	bl	0x1000332f4 <_write+0x1000332f4>
100005dd8: 74 0a 00 f9 	str	x20, [x19, #16]
100005ddc: fd 7b 41 a9 	ldp	x29, x30, [sp, #16]
100005de0: f4 4f c2 a8 	ldp	x20, x19, [sp], #32
100005de4: c0 03 5f d6 	ret
100005de8: 42 3b 1d 10 	adr	x2, #239464
100005dec: 1f 20 03 d5 	nop
100005df0: e0 03 01 aa 	mov	x0, x1
100005df4: e1 03 08 aa 	mov	x1, x8
100005df8: ce b4 00 94 	bl	0x100033130 <__ZN4core5slice5index24slice_end_index_len_fail17h43cb976450df7ff7E>

0000000100005dfc <__ZN4core3ptr95drop_in_place$LT$core..option..IntoIter$LT$std..backtrace_rs..symbolize..gimli..Library$GT$$GT$17hc382e4d2a3d62f59E>:
100005dfc: f4 4f be a9 	stp	x20, x19, [sp, #-32]!
100005e00: fd 7b 01 a9 	stp	x29, x30, [sp, #16]
100005e04: fd 43 00 91 	add	x29, sp, #16
100005e08: f3 03 00 aa 	mov	x19, x0
100005e0c: 00 00 40 f9 	ldr	x0, [x0]
100005e10: c0 01 00 b4 	cbz	x0, 0x100005e48 <__ZN4core3ptr95drop_in_place$LT$core..option..IntoIter$LT$std..backtrace_rs..symbolize..gimli..Library$GT$$GT$17hc382e4d2a3d62f59E+0x4c>
100005e14: 61 06 40 f9 	ldr	x1, [x19, #8]
100005e18: 81 00 00 b4 	cbz	x1, 0x100005e28 <__ZN4core3ptr95drop_in_place$LT$core..option..IntoIter$LT$std..backtrace_rs..symbolize..gimli..Library$GT$$GT$17hc382e4d2a3d62f59E+0x2c>
100005e1c: e8 03 21 aa 	mvn	x8, x1
100005e20: 02 fd 7f d3 	lsr	x2, x8, #63
100005e24: 1d f8 ff 97 	bl	0x100003e98 <___rust_dealloc>
100005e28: 68 12 40 f9 	ldr	x8, [x19, #32]
100005e2c: e8 00 00 b4 	cbz	x8, 0x100005e48 <__ZN4core3ptr95drop_in_place$LT$core..option..IntoIter$LT$std..backtrace_rs..symbolize..gimli..Library$GT$$GT$17hc382e4d2a3d62f59E+0x4c>
100005e30: 60 0e 40 f9 	ldr	x0, [x19, #24]
100005e34: 01 ed 7c d3 	lsl	x1, x8, #4
100005e38: 02 01 80 52 	mov	w2, #8
100005e3c: fd 7b 41 a9 	ldp	x29, x30, [sp, #16]
100005e40: f4 4f c2 a8 	ldp	x20, x19, [sp], #32
100005e44: 15 f8 ff 17 	b	0x100003e98 <___rust_dealloc>
100005e48: fd 7b 41 a9 	ldp	x29, x30, [sp, #16]
100005e4c: f4 4f c2 a8 	ldp	x20, x19, [sp], #32
100005e50: c0 03 5f d6 	ret

0000000100005e54 <__ZN4core3ptr95drop_in_place$LT$std..io..buffered..linewriter..LineWriter$LT$std..io..stdio..StdoutRaw$GT$$GT$17heccff1c70ee49a0aE>:
100005e54: f6 57 bd a9 	stp	x22, x21, [sp, #-48]!
100005e58: f4 4f 01 a9 	stp	x20, x19, [sp, #16]
100005e5c: fd 7b 02 a9 	stp	x29, x30, [sp, #32]
100005e60: fd 83 00 91 	add	x29, sp, #32
100005e64: f3 03 00 aa 	mov	x19, x0
100005e68: 08 60 40 39 	ldrb	w8, [x0, #24]
100005e6c: e8 02 00 35 	cbnz	w8, 0x100005ec8 <__ZN4core3ptr95drop_in_place$LT$std..io..buffered..linewriter..LineWriter$LT$std..io..stdio..StdoutRaw$GT$$GT$17heccff1c70ee49a0aE+0x74>
100005e70: e0 03 13 aa 	mov	x0, x19
100005e74: bd 47 00 94 	bl	0x100017d68 <__ZN3std2io8buffered9bufwriter18BufWriter$LT$W$GT$9flush_buf17h678db9eddda0857cE>
100005e78: f5 03 00 aa 	mov	x21, x0
100005e7c: 60 02 00 b4 	cbz	x0, 0x100005ec8 <__ZN4core3ptr95drop_in_place$LT$std..io..buffered..linewriter..LineWriter$LT$std..io..stdio..StdoutRaw$GT$$GT$17heccff1c70ee49a0aE+0x74>
100005e80: a8 06 40 92 	and	x8, x21, #0x3
100005e84: 1f 05 00 f1 	cmp	x8, #1
100005e88: 01 02 00 54 	b.ne	0x100005ec8 <__ZN4core3ptr95drop_in_place$LT$std..io..buffered..linewriter..LineWriter$LT$std..io..stdio..StdoutRaw$GT$$GT$17heccff1c70ee49a0aE+0x74>
100005e8c: f4 03 15 aa 	mov	x20, x21
100005e90: 80 fe 5f f8 	ldr	x0, [x20, #-1]!
100005e94: 88 06 40 f9 	ldr	x8, [x20, #8]
100005e98: 08 01 40 f9 	ldr	x8, [x8]
100005e9c: 00 01 3f d6 	blr	x8
100005ea0: a8 72 40 f8 	ldur	x8, [x21, #7]
100005ea4: 01 05 40 f9 	ldr	x1, [x8, #8]
100005ea8: 81 00 00 b4 	cbz	x1, 0x100005eb8 <__ZN4core3ptr95drop_in_place$LT$std..io..buffered..linewriter..LineWriter$LT$std..io..stdio..StdoutRaw$GT$$GT$17heccff1c70ee49a0aE+0x64>
100005eac: 02 09 40 f9 	ldr	x2, [x8, #16]
100005eb0: 80 02 40 f9 	ldr	x0, [x20]
100005eb4: f9 f7 ff 97 	bl	0x100003e98 <___rust_dealloc>
100005eb8: e0 03 14 aa 	mov	x0, x20
100005ebc: 01 03 80 52 	mov	w1, #24
100005ec0: 02 01 80 52 	mov	w2, #8
100005ec4: f5 f7 ff 97 	bl	0x100003e98 <___rust_dealloc>
100005ec8: 61 06 40 f9 	ldr	x1, [x19, #8]
100005ecc: 01 01 00 b4 	cbz	x1, 0x100005eec <__ZN4core3ptr95drop_in_place$LT$std..io..buffered..linewriter..LineWriter$LT$std..io..stdio..StdoutRaw$GT$$GT$17heccff1c70ee49a0aE+0x98>
100005ed0: 60 02 40 f9 	ldr	x0, [x19]
100005ed4: e8 03 21 aa 	mvn	x8, x1
100005ed8: 02 fd 7f d3 	lsr	x2, x8, #63
100005edc: fd 7b 42 a9 	ldp	x29, x30, [sp, #32]
100005ee0: f4 4f 41 a9 	ldp	x20, x19, [sp, #16]
100005ee4: f6 57 c3 a8 	ldp	x22, x21, [sp], #48
100005ee8: ec f7 ff 17 	b	0x100003e98 <___rust_dealloc>
100005eec: fd 7b 42 a9 	ldp	x29, x30, [sp, #32]
100005ef0: f4 4f 41 a9 	ldp	x20, x19, [sp, #16]
100005ef4: f6 57 c3 a8 	ldp	x22, x21, [sp], #48
100005ef8: c0 03 5f d6 	ret
100005efc: e8 03 15 aa 	mov	x8, x21
100005f00: f5 03 00 aa 	mov	x21, x0
100005f04: 00 f1 5f f8 	ldur	x0, [x8, #-1]
100005f08: 08 71 40 f8 	ldur	x8, [x8, #7]
100005f0c: 01 89 40 a9 	ldp	x1, x2, [x8, #8]
100005f10: a1 0b 00 94 	bl	0x100008d94 <__ZN5alloc5alloc8box_free17h00f9913ac88f43c5E>
100005f14: e0 03 14 aa 	mov	x0, x20
100005f18: aa 0b 00 94 	bl	0x100008dc0 <__ZN5alloc5alloc8box_free17h9931d7439991635eE>
100005f1c: 02 00 00 14 	b	0x100005f24 <__ZN4core3ptr95drop_in_place$LT$std..io..buffered..linewriter..LineWriter$LT$std..io..stdio..StdoutRaw$GT$$GT$17heccff1c70ee49a0aE+0xd0>
100005f20: f5 03 00 aa 	mov	x21, x0
100005f24: e0 03 13 aa 	mov	x0, x19
100005f28: bf fc ff 97 	bl	0x100005224 <__ZN4core3ptr46drop_in_place$LT$alloc..vec..Vec$LT$u8$GT$$GT$17h4fc52cdf42633c46E>
100005f2c: e0 03 15 aa 	mov	x0, x21
100005f30: b2 b4 00 94 	bl	0x1000331f8 <_write+0x1000331f8>
100005f34: 41 b4 00 94 	bl	0x100033038 <__ZN4core9panicking15panic_no_unwind17h6c18a18997fce2b1E>

0000000100005f38 <__ZN4core3str7pattern7Pattern15is_contained_in17ha7f57c29a33710a4E>:
100005f38: ff 43 02 d1 	sub	sp, sp, #144
100005f3c: f4 4f 07 a9 	stp	x20, x19, [sp, #112]
100005f40: fd 7b 08 a9 	stp	x29, x30, [sp, #128]
100005f44: fd 03 02 91 	add	x29, sp, #128
100005f48: e9 03 01 aa 	mov	x9, x1
100005f4c: ea 03 00 aa 	mov	x10, x0
100005f50: e8 23 00 91 	add	x8, sp, #8
100005f54: e0 03 02 aa 	mov	x0, x2
100005f58: e1 03 03 aa 	mov	x1, x3
100005f5c: e2 03 0a aa 	mov	x2, x10
100005f60: e3 03 09 aa 	mov	x3, x9
100005f64: ce a3 00 94 	bl	0x10002ee9c <__ZN4core3str7pattern11StrSearcher3new17h6f14195e0e077fa8E>
100005f68: e8 17 40 f9 	ldr	x8, [sp, #40]
100005f6c: c8 07 00 b4 	cbz	x8, 0x100006064 <__ZN4core3str7pattern7Pattern15is_contained_in17ha7f57c29a33710a4E+0x12c>
100005f70: ec 33 40 f9 	ldr	x12, [sp, #96]
100005f74: ea 87 40 a9 	ldp	x10, x1, [sp, #8]
100005f78: eb a3 41 a9 	ldp	x11, x8, [sp, #24]
100005f7c: 9f 05 00 b1 	cmn	x12, #1
100005f80: e0 0e 00 54 	b.eq	0x10000615c <__ZN4core3str7pattern7Pattern15is_contained_in17ha7f57c29a33710a4E+0x224>
100005f84: ed 2b 40 f9 	ldr	x13, [sp, #80]
100005f88: 0e 05 00 d1 	sub	x14, x8, #1
100005f8c: c9 01 0d 8b 	add	x9, x14, x13
100005f90: 3f 01 01 eb 	cmp	x9, x1
100005f94: a2 15 00 54 	b.hs	0x100006248 <__ZN4core3str7pattern7Pattern15is_contained_in17ha7f57c29a33710a4E+0x310>
100005f98: f1 3f 44 a9 	ldp	x17, x15, [sp, #64]
100005f9c: f0 1b 40 f9 	ldr	x16, [sp, #48]
100005fa0: 02 01 11 cb 	sub	x2, x8, x17
100005fa4: 03 06 00 d1 	sub	x3, x16, #1
100005fa8: 06 00 00 14 	b	0x100005fc0 <__ZN4core3str7pattern7Pattern15is_contained_in17ha7f57c29a33710a4E+0x88>
100005fac: 0c 00 80 d2 	mov	x12, #0
100005fb0: ad 01 08 8b 	add	x13, x13, x8
100005fb4: c9 01 0d 8b 	add	x9, x14, x13
100005fb8: 3f 01 01 eb 	cmp	x9, x1
100005fbc: 02 15 00 54 	b.hs	0x10000625c <__ZN4core3str7pattern7Pattern15is_contained_in17ha7f57c29a33710a4E+0x324>
100005fc0: 49 69 69 38 	ldrb	w9, [x10, x9]
100005fc4: e9 25 c9 9a 	lsr	x9, x15, x9
100005fc8: 29 ff 07 36 	tbz	w9, #0, 0x100005fac <__ZN4core3str7pattern7Pattern15is_contained_in17ha7f57c29a33710a4E+0x74>
100005fcc: 1f 02 0c eb 	cmp	x16, x12
100005fd0: 09 82 8c 9a 	csel	x9, x16, x12, hi
100005fd4: 60 01 09 8b 	add	x0, x11, x9
100005fd8: a6 01 09 8b 	add	x6, x13, x9
100005fdc: 04 01 09 eb 	subs	x4, x8, x9
100005fe0: e4 33 84 9a 	csel	x4, xzr, x4, lo
100005fe4: c4 01 00 b4 	cbz	x4, 0x10000601c <__ZN4core3str7pattern7Pattern15is_contained_in17ha7f57c29a33710a4E+0xe4>
100005fe8: e5 03 06 aa 	mov	x5, x6
100005fec: df 00 01 eb 	cmp	x6, x1
100005ff0: e2 13 00 54 	b.hs	0x10000626c <__ZN4core3str7pattern7Pattern15is_contained_in17ha7f57c29a33710a4E+0x334>
100005ff4: 07 14 40 38 	ldrb	w7, [x0], #1
100005ff8: 53 69 65 38 	ldrb	w19, [x10, x5]
100005ffc: a6 04 00 91 	add	x6, x5, #1
100006000: 84 04 00 d1 	sub	x4, x4, #1
100006004: ff 00 13 6b 	cmp	w7, w19
100006008: e0 fe ff 54 	b.eq	0x100005fe4 <__ZN4core3str7pattern7Pattern15is_contained_in17ha7f57c29a33710a4E+0xac>
10000600c: 0c 00 80 d2 	mov	x12, #0
100006010: a9 00 10 cb 	sub	x9, x5, x16
100006014: 2d 05 00 91 	add	x13, x9, #1
100006018: e7 ff ff 17 	b	0x100005fb4 <__ZN4core3str7pattern7Pattern15is_contained_in17ha7f57c29a33710a4E+0x7c>
10000601c: 44 01 0d 8b 	add	x4, x10, x13
100006020: e0 03 03 aa 	mov	x0, x3
100006024: 09 04 00 91 	add	x9, x0, #1
100006028: 9f 01 09 eb 	cmp	x12, x9
10000602c: 02 10 00 54 	b.hs	0x10000622c <__ZN4core3str7pattern7Pattern15is_contained_in17ha7f57c29a33710a4E+0x2f4>
100006030: 1f 00 08 eb 	cmp	x0, x8
100006034: 02 12 00 54 	b.hs	0x100006274 <__ZN4core3str7pattern7Pattern15is_contained_in17ha7f57c29a33710a4E+0x33c>
100006038: a9 01 00 8b 	add	x9, x13, x0
10000603c: 3f 01 01 eb 	cmp	x9, x1
100006040: 22 12 00 54 	b.hs	0x100006284 <__ZN4core3str7pattern7Pattern15is_contained_in17ha7f57c29a33710a4E+0x34c>
100006044: 69 69 60 38 	ldrb	w9, [x11, x0]
100006048: 85 68 60 38 	ldrb	w5, [x4, x0]
10000604c: 00 04 00 d1 	sub	x0, x0, #1
100006050: 3f 01 05 6b 	cmp	w9, w5
100006054: 80 fe ff 54 	b.eq	0x100006024 <__ZN4core3str7pattern7Pattern15is_contained_in17ha7f57c29a33710a4E+0xec>
100006058: ad 01 11 8b 	add	x13, x13, x17
10000605c: ec 03 02 aa 	mov	x12, x2
100006060: d5 ff ff 17 	b	0x100005fb4 <__ZN4core3str7pattern7Pattern15is_contained_in17ha7f57c29a33710a4E+0x7c>
100006064: e8 0b 41 39 	ldrb	w8, [sp, #66]
100006068: 08 0f 00 35 	cbnz	w8, 0x100006248 <__ZN4core3str7pattern7Pattern15is_contained_in17ha7f57c29a33710a4E+0x310>
10000606c: e0 87 40 a9 	ldp	x0, x1, [sp, #8]
100006070: e8 03 41 39 	ldrb	w8, [sp, #64]
100006074: e2 1b 40 f9 	ldr	x2, [sp, #48]
100006078: 1f 01 00 71 	cmp	w8, #0
10000607c: e9 17 9f 1a 	cset	w9, eq
100006080: 68 00 80 52 	mov	w8, #3
100006084: 04 00 00 14 	b	0x100006094 <__ZN4core3str7pattern7Pattern15is_contained_in17ha7f57c29a33710a4E+0x15c>
100006088: 2a 00 80 52 	mov	w10, #1
10000608c: 09 00 80 52 	mov	w9, #0
100006090: 42 01 02 8b 	add	x2, x10, x2
100006094: 02 01 00 b4 	cbz	x2, 0x1000060b4 <__ZN4core3str7pattern7Pattern15is_contained_in17ha7f57c29a33710a4E+0x17c>
100006098: 3f 00 02 eb 	cmp	x1, x2
10000609c: a9 00 00 54 	b.ls	0x1000060b0 <__ZN4core3str7pattern7Pattern15is_contained_in17ha7f57c29a33710a4E+0x178>
1000060a0: 0a 68 e2 38 	ldrsb	w10, [x0, x2]
1000060a4: 5f 01 01 31 	cmn	w10, #64
1000060a8: 6a 00 00 54 	b.ge	0x1000060b4 <__ZN4core3str7pattern7Pattern15is_contained_in17ha7f57c29a33710a4E+0x17c>
1000060ac: 80 00 00 14 	b	0x1000062ac <__ZN4core3str7pattern7Pattern15is_contained_in17ha7f57c29a33710a4E+0x374>
1000060b0: e1 0f 00 54 	b.ne	0x1000062ac <__ZN4core3str7pattern7Pattern15is_contained_in17ha7f57c29a33710a4E+0x374>
1000060b4: 5f 00 01 eb 	cmp	x2, x1
1000060b8: 20 0c 00 54 	b.eq	0x10000623c <__ZN4core3str7pattern7Pattern15is_contained_in17ha7f57c29a33710a4E+0x304>
1000060bc: 0c 00 02 8b 	add	x12, x0, x2
1000060c0: 8a 01 c0 39 	ldrsb	w10, [x12]
1000060c4: 4d 1d 00 12 	and	w13, w10, #0xff
1000060c8: 8a 00 f8 37 	tbnz	w10, #31, 0x1000060d8 <__ZN4core3str7pattern7Pattern15is_contained_in17ha7f57c29a33710a4E+0x1a0>
1000060cc: ea 03 0d aa 	mov	x10, x13
1000060d0: 09 03 00 37 	tbnz	w9, #0, 0x100006130 <__ZN4core3str7pattern7Pattern15is_contained_in17ha7f57c29a33710a4E+0x1f8>
1000060d4: 58 00 00 14 	b	0x100006234 <__ZN4core3str7pattern7Pattern15is_contained_in17ha7f57c29a33710a4E+0x2fc>
1000060d8: ab 11 00 12 	and	w11, w13, #0x1f
1000060dc: 8a 05 40 39 	ldrb	w10, [x12, #1]
1000060e0: 4a 15 00 12 	and	w10, w10, #0x3f
1000060e4: bf 81 03 71 	cmp	w13, #224
1000060e8: 83 01 00 54 	b.lo	0x100006118 <__ZN4core3str7pattern7Pattern15is_contained_in17ha7f57c29a33710a4E+0x1e0>
1000060ec: 8e 09 40 39 	ldrb	w14, [x12, #2]
1000060f0: ce 15 00 12 	and	w14, w14, #0x3f
1000060f4: 4e 15 1a 33 	bfi	w14, w10, #6, #6
1000060f8: bf c1 03 71 	cmp	w13, #240
1000060fc: 43 01 00 54 	b.lo	0x100006124 <__ZN4core3str7pattern7Pattern15is_contained_in17ha7f57c29a33710a4E+0x1ec>
100006100: 8a 0d 40 39 	ldrb	w10, [x12, #3]
100006104: 4a 15 00 12 	and	w10, w10, #0x3f
100006108: ca 2d 1a 33 	bfi	w10, w14, #6, #12
10000610c: 6a 09 0e 33 	bfi	w10, w11, #18, #3
100006110: 09 01 00 37 	tbnz	w9, #0, 0x100006130 <__ZN4core3str7pattern7Pattern15is_contained_in17ha7f57c29a33710a4E+0x1f8>
100006114: 48 00 00 14 	b	0x100006234 <__ZN4core3str7pattern7Pattern15is_contained_in17ha7f57c29a33710a4E+0x2fc>
100006118: 6a 11 1a 33 	bfi	w10, w11, #6, #5
10000611c: a9 00 00 37 	tbnz	w9, #0, 0x100006130 <__ZN4core3str7pattern7Pattern15is_contained_in17ha7f57c29a33710a4E+0x1f8>
100006120: 45 00 00 14 	b	0x100006234 <__ZN4core3str7pattern7Pattern15is_contained_in17ha7f57c29a33710a4E+0x2fc>
100006124: 6e 11 14 33 	bfi	w14, w11, #12, #5
100006128: ea 03 0e aa 	mov	x10, x14
10000612c: 49 08 00 36 	tbz	w9, #0, 0x100006234 <__ZN4core3str7pattern7Pattern15is_contained_in17ha7f57c29a33710a4E+0x2fc>
100006130: 5f 41 44 71 	cmp	w10, #272, lsl #12      ; =1114112
100006134: 80 08 00 54 	b.eq	0x100006244 <__ZN4core3str7pattern7Pattern15is_contained_in17ha7f57c29a33710a4E+0x30c>
100006138: 5f 01 02 71 	cmp	w10, #128
10000613c: 63 fa ff 54 	b.lo	0x100006088 <__ZN4core3str7pattern7Pattern15is_contained_in17ha7f57c29a33710a4E+0x150>
100006140: 5f 01 20 71 	cmp	w10, #2048
100006144: 62 00 00 54 	b.hs	0x100006150 <__ZN4core3str7pattern7Pattern15is_contained_in17ha7f57c29a33710a4E+0x218>
100006148: 4a 00 80 52 	mov	w10, #2
10000614c: d0 ff ff 17 	b	0x10000608c <__ZN4core3str7pattern7Pattern15is_contained_in17ha7f57c29a33710a4E+0x154>
100006150: 5f 41 40 71 	cmp	w10, #16, lsl #12       ; =65536
100006154: 0a 35 88 9a 	cinc	x10, x8, hs
100006158: cd ff ff 17 	b	0x10000608c <__ZN4core3str7pattern7Pattern15is_contained_in17ha7f57c29a33710a4E+0x154>
10000615c: ec 2b 40 f9 	ldr	x12, [sp, #80]
100006160: 0d 05 00 d1 	sub	x13, x8, #1
100006164: a9 01 0c 8b 	add	x9, x13, x12
100006168: 3f 01 01 eb 	cmp	x9, x1
10000616c: e2 06 00 54 	b.hs	0x100006248 <__ZN4core3str7pattern7Pattern15is_contained_in17ha7f57c29a33710a4E+0x310>
100006170: f0 3f 44 a9 	ldp	x16, x15, [sp, #64]
100006174: ee 1b 40 f9 	ldr	x14, [sp, #48]
100006178: d1 05 00 d1 	sub	x17, x14, #1
10000617c: 62 01 0e 8b 	add	x2, x11, x14
100006180: 00 01 0e eb 	subs	x0, x8, x14
100006184: e3 33 80 9a 	csel	x3, xzr, x0, lo
100006188: 06 00 00 14 	b	0x1000061a0 <__ZN4core3str7pattern7Pattern15is_contained_in17ha7f57c29a33710a4E+0x268>
10000618c: 8c 01 08 8b 	add	x12, x12, x8
100006190: 00 00 80 52 	mov	w0, #0
100006194: a9 01 0c 8b 	add	x9, x13, x12
100006198: 3f 01 01 eb 	cmp	x9, x1
10000619c: 82 05 00 54 	b.hs	0x10000624c <__ZN4core3str7pattern7Pattern15is_contained_in17ha7f57c29a33710a4E+0x314>
1000061a0: 49 69 69 38 	ldrb	w9, [x10, x9]
1000061a4: e9 25 c9 9a 	lsr	x9, x15, x9
1000061a8: 29 ff 07 36 	tbz	w9, #0, 0x10000618c <__ZN4core3str7pattern7Pattern15is_contained_in17ha7f57c29a33710a4E+0x254>
1000061ac: c5 01 0c 8b 	add	x5, x14, x12
1000061b0: e9 03 03 aa 	mov	x9, x3
1000061b4: e0 03 02 aa 	mov	x0, x2
1000061b8: a9 01 00 b4 	cbz	x9, 0x1000061ec <__ZN4core3str7pattern7Pattern15is_contained_in17ha7f57c29a33710a4E+0x2b4>
1000061bc: e4 03 05 aa 	mov	x4, x5
1000061c0: bf 00 01 eb 	cmp	x5, x1
1000061c4: 82 06 00 54 	b.hs	0x100006294 <__ZN4core3str7pattern7Pattern15is_contained_in17ha7f57c29a33710a4E+0x35c>
1000061c8: 06 14 40 38 	ldrb	w6, [x0], #1
1000061cc: 47 69 64 38 	ldrb	w7, [x10, x4]
1000061d0: 85 04 00 91 	add	x5, x4, #1
1000061d4: 29 05 00 d1 	sub	x9, x9, #1
1000061d8: df 00 07 6b 	cmp	w6, w7
1000061dc: e0 fe ff 54 	b.eq	0x1000061b8 <__ZN4core3str7pattern7Pattern15is_contained_in17ha7f57c29a33710a4E+0x280>
1000061e0: 89 00 0e cb 	sub	x9, x4, x14
1000061e4: 2c 05 00 91 	add	x12, x9, #1
1000061e8: ea ff ff 17 	b	0x100006190 <__ZN4core3str7pattern7Pattern15is_contained_in17ha7f57c29a33710a4E+0x258>
1000061ec: 44 01 0c 8b 	add	x4, x10, x12
1000061f0: e0 03 11 aa 	mov	x0, x17
1000061f4: 1f 04 00 b1 	cmn	x0, #1
1000061f8: e0 01 00 54 	b.eq	0x100006234 <__ZN4core3str7pattern7Pattern15is_contained_in17ha7f57c29a33710a4E+0x2fc>
1000061fc: 3f 02 08 eb 	cmp	x17, x8
100006200: a2 03 00 54 	b.hs	0x100006274 <__ZN4core3str7pattern7Pattern15is_contained_in17ha7f57c29a33710a4E+0x33c>
100006204: 89 01 00 8b 	add	x9, x12, x0
100006208: 3f 01 01 eb 	cmp	x9, x1
10000620c: c2 03 00 54 	b.hs	0x100006284 <__ZN4core3str7pattern7Pattern15is_contained_in17ha7f57c29a33710a4E+0x34c>
100006210: 69 69 60 38 	ldrb	w9, [x11, x0]
100006214: 85 68 60 38 	ldrb	w5, [x4, x0]
100006218: 00 04 00 d1 	sub	x0, x0, #1
10000621c: 3f 01 05 6b 	cmp	w9, w5
100006220: a0 fe ff 54 	b.eq	0x1000061f4 <__ZN4core3str7pattern7Pattern15is_contained_in17ha7f57c29a33710a4E+0x2bc>
100006224: 8c 01 10 8b 	add	x12, x12, x16
100006228: da ff ff 17 	b	0x100006190 <__ZN4core3str7pattern7Pattern15is_contained_in17ha7f57c29a33710a4E+0x258>
10000622c: ed 2b 00 f9 	str	x13, [sp, #80]
100006230: ec 33 00 f9 	str	x12, [sp, #96]
100006234: 20 00 80 52 	mov	w0, #1
100006238: 05 00 00 14 	b	0x10000624c <__ZN4core3str7pattern7Pattern15is_contained_in17ha7f57c29a33710a4E+0x314>
10000623c: 69 00 00 37 	tbnz	w9, #0, 0x100006248 <__ZN4core3str7pattern7Pattern15is_contained_in17ha7f57c29a33710a4E+0x310>
100006240: fd ff ff 17 	b	0x100006234 <__ZN4core3str7pattern7Pattern15is_contained_in17ha7f57c29a33710a4E+0x2fc>
100006244: e2 1b 00 f9 	str	x2, [sp, #48]
100006248: 00 00 80 52 	mov	w0, #0
10000624c: fd 7b 48 a9 	ldp	x29, x30, [sp, #128]
100006250: f4 4f 47 a9 	ldp	x20, x19, [sp, #112]
100006254: ff 43 02 91 	add	sp, sp, #144
100006258: c0 03 5f d6 	ret
10000625c: 00 00 80 52 	mov	w0, #0
100006260: ed 2b 00 f9 	str	x13, [sp, #80]
100006264: ec 33 00 f9 	str	x12, [sp, #96]
100006268: f9 ff ff 17 	b	0x10000624c <__ZN4core3str7pattern7Pattern15is_contained_in17ha7f57c29a33710a4E+0x314>
10000626c: a8 01 09 8b 	add	x8, x13, x9
100006270: 0a 00 00 14 	b	0x100006298 <__ZN4core3str7pattern7Pattern15is_contained_in17ha7f57c29a33710a4E+0x360>
100006274: 62 06 1d 10 	adr	x2, #237772
100006278: 1f 20 03 d5 	nop
10000627c: e1 03 08 aa 	mov	x1, x8
100006280: 5a b3 00 94 	bl	0x100032fe8 <__ZN4core9panicking18panic_bounds_check17h1dcb29c14d8acf38E>
100006284: a2 06 1d 10 	adr	x2, #237780
100006288: 1f 20 03 d5 	nop
10000628c: e0 03 09 aa 	mov	x0, x9
100006290: 56 b3 00 94 	bl	0x100032fe8 <__ZN4core9panicking18panic_bounds_check17h1dcb29c14d8acf38E>
100006294: 88 01 0e 8b 	add	x8, x12, x14
100006298: 3f 00 08 eb 	cmp	x1, x8
10000629c: 20 80 88 9a 	csel	x0, x1, x8, hi
1000062a0: 42 04 1d 10 	adr	x2, #237704
1000062a4: 1f 20 03 d5 	nop
1000062a8: 50 b3 00 94 	bl	0x100032fe8 <__ZN4core9panicking18panic_bounds_check17h1dcb29c14d8acf38E>
1000062ac: 24 23 1d 10 	adr	x4, #238692
1000062b0: 1f 20 03 d5 	nop
1000062b4: e3 03 01 aa 	mov	x3, x1
1000062b8: b2 b3 00 94 	bl	0x100033180 <__ZN4core3str16slice_error_fail17h62f180ff835834e9E>

00000001000062bc <__ZN4core5slice4sort12choose_pivot28_$u7b$$u7b$closure$u7d$$u7d$17hfb2467677c46e6edE>:
1000062bc: ff c3 01 d1 	sub	sp, sp, #112
1000062c0: fc 6f 01 a9 	stp	x28, x27, [sp, #16]
1000062c4: fa 67 02 a9 	stp	x26, x25, [sp, #32]
1000062c8: f8 5f 03 a9 	stp	x24, x23, [sp, #48]
1000062cc: f6 57 04 a9 	stp	x22, x21, [sp, #64]
1000062d0: f4 4f 05 a9 	stp	x20, x19, [sp, #80]
1000062d4: fd 7b 06 a9 	stp	x29, x30, [sp, #96]
1000062d8: fd 83 01 91 	add	x29, sp, #96
1000062dc: f6 03 03 aa 	mov	x22, x3
1000062e0: f3 03 02 aa 	mov	x19, x2
1000062e4: f5 03 01 aa 	mov	x21, x1
1000062e8: f4 03 00 aa 	mov	x20, x0
1000062ec: 19 04 40 f9 	ldr	x25, [x0, #8]
1000062f0: 58 00 40 f9 	ldr	x24, [x2]
1000062f4: 08 03 80 52 	mov	w8, #24
1000062f8: 09 67 08 9b 	madd	x9, x24, x8, x25
1000062fc: 3c 00 40 f9 	ldr	x28, [x1]
100006300: 88 67 08 9b 	madd	x8, x28, x8, x25
100006304: 37 6d 40 a9 	ldp	x23, x27, [x9]
100006308: 01 21 40 a9 	ldp	x1, x8, [x8]
10000630c: 7a 03 08 eb 	subs	x26, x27, x8
100006310: 62 33 88 9a 	csel	x2, x27, x8, lo
100006314: e0 03 17 aa 	mov	x0, x23
100006318: f1 b3 00 94 	bl	0x1000332dc <_write+0x1000332dc>
10000631c: 08 7c 40 93 	sxtw	x8, w0
100006320: 1f 00 00 71 	cmp	w0, #0
100006324: 48 03 88 9a 	csel	x8, x26, x8, eq
100006328: f5 07 00 f9 	str	x21, [sp, #8]
10000632c: 68 00 f8 b7 	tbnz	x8, #63, 0x100006338 <__ZN4core5slice4sort12choose_pivot28_$u7b$$u7b$closure$u7d$$u7d$17hfb2467677c46e6edE+0x7c>
100006330: fa 03 1c aa 	mov	x26, x28
100006334: 0d 00 00 14 	b	0x100006368 <__ZN4core5slice4sort12choose_pivot28_$u7b$$u7b$closure$u7d$$u7d$17hfb2467677c46e6edE+0xac>
100006338: b8 02 00 f9 	str	x24, [x21]
10000633c: 7c 02 00 f9 	str	x28, [x19]
100006340: 88 0e 40 f9 	ldr	x8, [x20, #24]
100006344: 09 01 40 f9 	ldr	x9, [x8]
100006348: 29 05 00 91 	add	x9, x9, #1
10000634c: 09 01 00 f9 	str	x9, [x8]
100006350: 99 06 40 f9 	ldr	x25, [x20, #8]
100006354: 08 03 80 52 	mov	w8, #24
100006358: 88 67 08 9b 	madd	x8, x28, x8, x25
10000635c: 17 6d 40 a9 	ldp	x23, x27, [x8]
100006360: fa 03 18 aa 	mov	x26, x24
100006364: f8 03 1c aa 	mov	x24, x28
100006368: dc 02 40 f9 	ldr	x28, [x22]
10000636c: 08 03 80 52 	mov	w8, #24
100006370: 88 67 08 9b 	madd	x8, x28, x8, x25
100006374: 00 21 40 a9 	ldp	x0, x8, [x8]
100006378: 15 01 1b eb 	subs	x21, x8, x27
10000637c: 02 31 9b 9a 	csel	x2, x8, x27, lo
100006380: e1 03 17 aa 	mov	x1, x23
100006384: d6 b3 00 94 	bl	0x1000332dc <_write+0x1000332dc>
100006388: 08 7c 40 93 	sxtw	x8, w0
10000638c: 1f 00 00 71 	cmp	w0, #0
100006390: a8 02 88 9a 	csel	x8, x21, x8, eq
100006394: 88 01 f8 b6 	tbz	x8, #63, 0x1000063c4 <__ZN4core5slice4sort12choose_pivot28_$u7b$$u7b$closure$u7d$$u7d$17hfb2467677c46e6edE+0x108>
100006398: 7c 02 00 f9 	str	x28, [x19]
10000639c: d8 02 00 f9 	str	x24, [x22]
1000063a0: 88 0e 40 f9 	ldr	x8, [x20, #24]
1000063a4: 09 01 40 f9 	ldr	x9, [x8]
1000063a8: 29 05 00 91 	add	x9, x9, #1
1000063ac: 09 01 00 f9 	str	x9, [x8]
1000063b0: 99 06 40 f9 	ldr	x25, [x20, #8]
1000063b4: 08 03 80 52 	mov	w8, #24
1000063b8: 88 67 08 9b 	madd	x8, x28, x8, x25
1000063bc: 17 6d 40 a9 	ldp	x23, x27, [x8]
1000063c0: f8 03 1c aa 	mov	x24, x28
1000063c4: 08 03 80 52 	mov	w8, #24
1000063c8: 48 67 08 9b 	madd	x8, x26, x8, x25
1000063cc: 01 21 40 a9 	ldp	x1, x8, [x8]
1000063d0: 75 03 08 eb 	subs	x21, x27, x8
1000063d4: 62 33 88 9a 	csel	x2, x27, x8, lo
1000063d8: e0 03 17 aa 	mov	x0, x23
1000063dc: c0 b3 00 94 	bl	0x1000332dc <_write+0x1000332dc>
1000063e0: 08 7c 40 93 	sxtw	x8, w0
1000063e4: 1f 00 00 71 	cmp	w0, #0
1000063e8: a8 02 88 9a 	csel	x8, x21, x8, eq
1000063ec: 08 01 f8 b6 	tbz	x8, #63, 0x10000640c <__ZN4core5slice4sort12choose_pivot28_$u7b$$u7b$closure$u7d$$u7d$17hfb2467677c46e6edE+0x150>
1000063f0: e8 07 40 f9 	ldr	x8, [sp, #8]
1000063f4: 18 01 00 f9 	str	x24, [x8]
1000063f8: 7a 02 00 f9 	str	x26, [x19]
1000063fc: 88 0e 40 f9 	ldr	x8, [x20, #24]
100006400: 09 01 40 f9 	ldr	x9, [x8]
100006404: 29 05 00 91 	add	x9, x9, #1
100006408: 09 01 00 f9 	str	x9, [x8]
10000640c: fd 7b 46 a9 	ldp	x29, x30, [sp, #96]
100006410: f4 4f 45 a9 	ldp	x20, x19, [sp, #80]
100006414: f6 57 44 a9 	ldp	x22, x21, [sp, #64]
100006418: f8 5f 43 a9 	ldp	x24, x23, [sp, #48]
10000641c: fa 67 42 a9 	ldp	x26, x25, [sp, #32]
100006420: fc 6f 41 a9 	ldp	x28, x27, [sp, #16]
100006424: ff c3 01 91 	add	sp, sp, #112
100006428: c0 03 5f d6 	ret

000000010000642c <__ZN4core5slice4sort7recurse17h4b7f156db9f6d48cE>:
10000642c: ff c3 06 d1 	sub	sp, sp, #432
100006430: fc 6f 15 a9 	stp	x28, x27, [sp, #336]
100006434: fa 67 16 a9 	stp	x26, x25, [sp, #352]
100006438: f8 5f 17 a9 	stp	x24, x23, [sp, #368]
10000643c: f6 57 18 a9 	stp	x22, x21, [sp, #384]
100006440: f4 4f 19 a9 	stp	x20, x19, [sp, #400]
100006444: fd 7b 1a a9 	stp	x29, x30, [sp, #416]
100006448: fd 83 06 91 	add	x29, sp, #416
10000644c: e2 07 00 f9 	str	x2, [sp, #8]
100006450: fe 03 01 aa 	mov	x30, x1
100006454: f3 03 00 aa 	mov	x19, x0
100006458: 3f 54 00 f1 	cmp	x1, #21
10000645c: 42 06 00 54 	b.hs	0x100006524 <__ZN4core5slice4sort7recurse17h4b7f156db9f6d48cE+0xf8>
100006460: fa 03 1e aa 	mov	x26, x30
100006464: f8 03 13 aa 	mov	x24, x19
100006468: 5f 0b 00 f1 	cmp	x26, #2
10000646c: 83 47 00 54 	b.lo	0x100006d5c <__ZN4core5slice4sort7recurse17h4b7f156db9f6d48cE+0x930>
100006470: 08 00 80 d2 	mov	x8, #0
100006474: 29 00 80 52 	mov	w9, #1
100006478: 0a 03 80 52 	mov	w10, #24
10000647c: eb 03 18 aa 	mov	x11, x24
100006480: 0a 00 00 14 	b	0x1000064a8 <__ZN4core5slice4sort7recurse17h4b7f156db9f6d48cE+0x7c>
100006484: ed 03 18 aa 	mov	x13, x24
100006488: e0 2f c0 3d 	ldr	q0, [sp, #176]
10000648c: a0 01 80 3d 	str	q0, [x13]
100006490: ac 09 00 f9 	str	x12, [x13, #16]
100006494: 29 05 00 91 	add	x9, x9, #1
100006498: 6b 61 00 91 	add	x11, x11, #24
10000649c: 08 05 00 d1 	sub	x8, x8, #1
1000064a0: 3f 01 1a eb 	cmp	x9, x26
1000064a4: c0 45 00 54 	b.eq	0x100006d5c <__ZN4core5slice4sort7recurse17h4b7f156db9f6d48cE+0x930>
1000064a8: 2e 61 0a 9b 	madd	x14, x9, x10, x24
1000064ac: cc 09 40 f9 	ldr	x12, [x14, #16]
1000064b0: cd 81 5f f8 	ldur	x13, [x14, #-8]
1000064b4: 9f 01 0d eb 	cmp	x12, x13
1000064b8: e2 fe ff 54 	b.hs	0x100006494 <__ZN4core5slice4sort7recurse17h4b7f156db9f6d48cE+0x68>
1000064bc: cd 61 00 d1 	sub	x13, x14, #24
1000064c0: c0 01 c0 3d 	ldr	q0, [x14]
1000064c4: e0 2f 80 3d 	str	q0, [sp, #176]
1000064c8: af 09 40 f9 	ldr	x15, [x13, #16]
1000064cc: cf 09 00 f9 	str	x15, [x14, #16]
1000064d0: a0 01 c0 3d 	ldr	q0, [x13]
1000064d4: c0 01 80 3d 	str	q0, [x14]
1000064d8: 2f 05 00 d1 	sub	x15, x9, #1
1000064dc: 6f fd ff b4 	cbz	x15, 0x100006488 <__ZN4core5slice4sort7recurse17h4b7f156db9f6d48cE+0x5c>
1000064e0: d0 01 5e f8 	ldur	x16, [x14, #-32]
1000064e4: ee 03 08 aa 	mov	x14, x8
1000064e8: ef 03 0b aa 	mov	x15, x11
1000064ec: 9f 01 10 eb 	cmp	x12, x16
1000064f0: c2 fc ff 54 	b.hs	0x100006488 <__ZN4core5slice4sort7recurse17h4b7f156db9f6d48cE+0x5c>
1000064f4: e0 81 de 3c 	ldur	q0, [x15, #-24]
1000064f8: e0 01 80 3d 	str	q0, [x15]
1000064fc: ed 81 5f f8 	ldur	x13, [x15, #-8]
100006500: ed 09 00 f9 	str	x13, [x15, #16]
100006504: ce 05 00 b1 	adds	x14, x14, #1
100006508: e2 fb ff 54 	b.hs	0x100006484 <__ZN4core5slice4sort7recurse17h4b7f156db9f6d48cE+0x58>
10000650c: ed 61 00 d1 	sub	x13, x15, #24
100006510: f0 01 5e f8 	ldur	x16, [x15, #-32]
100006514: ef 03 0d aa 	mov	x15, x13
100006518: 9f 01 10 eb 	cmp	x12, x16
10000651c: c3 fe ff 54 	b.lo	0x1000064f4 <__ZN4core5slice4sort7recurse17h4b7f156db9f6d48cE+0xc8>
100006520: da ff ff 17 	b	0x100006488 <__ZN4core5slice4sort7recurse17h4b7f156db9f6d48cE+0x5c>
100006524: f5 03 04 aa 	mov	x21, x4
100006528: f6 03 03 aa 	mov	x22, x3
10000652c: 21 00 80 52 	mov	w1, #1
100006530: 1c 03 80 52 	mov	w28, #24
100006534: e2 f3 7d b2 	orr	x2, xzr, #0xfffffffffffffff8
100006538: 3b 00 80 52 	mov	w27, #1
10000653c: 34 00 80 52 	mov	w20, #1
100006540: 77 03 14 0a 	and	w23, w27, w20
100006544: f8 03 13 aa 	mov	x24, x19
100006548: f9 03 1e aa 	mov	x25, x30
10000654c: 15 40 00 34 	cbz	w21, 0x100006d4c <__ZN4core5slice4sort7recurse17h4b7f156db9f6d48cE+0x920>
100006550: 1b 08 00 36 	tbz	w27, #0, 0x100006650 <__ZN4core5slice4sort7recurse17h4b7f156db9f6d48cE+0x224>
100006554: 29 ff 42 d3 	lsr	x9, x25, #2
100006558: 2a f9 7f d3 	lsl	x10, x9, #1
10000655c: 48 01 09 8b 	add	x8, x10, x9
100006560: 3f c7 00 f1 	cmp	x25, #49
100006564: 09 09 00 54 	b.ls	0x100006684 <__ZN4core5slice4sort7recurse17h4b7f156db9f6d48cE+0x258>
100006568: 2b 05 00 d1 	sub	x11, x9, #1
10000656c: 2c 05 00 91 	add	x12, x9, #1
100006570: 2d 61 1c 9b 	madd	x13, x9, x28, x24
100006574: ae 09 40 f9 	ldr	x14, [x13, #16]
100006578: af 81 5f f8 	ldur	x15, [x13, #-8]
10000657c: df 01 0f eb 	cmp	x14, x15
100006580: f0 21 8e 9a 	csel	x16, x15, x14, hs
100006584: f1 23 81 9a 	csel	x17, xzr, x1, hs
100006588: 20 21 8b 9a 	csel	x0, x9, x11, hs
10000658c: 69 21 89 9a 	csel	x9, x11, x9, hs
100006590: cb 21 8f 9a 	csel	x11, x14, x15, hs
100006594: ad 15 40 f9 	ldr	x13, [x13, #40]
100006598: bf 01 0b eb 	cmp	x13, x11
10000659c: 8c 31 80 9a 	csel	x12, x12, x0, lo
1000065a0: 2e 26 91 9a 	cinc	x14, x17, lo
1000065a4: ab 31 8b 9a 	csel	x11, x13, x11, lo
1000065a8: 7f 01 10 eb 	cmp	x11, x16
1000065ac: 29 31 8c 9a 	csel	x9, x9, x12, lo
1000065b0: cb 25 8e 9a 	cinc	x11, x14, lo
1000065b4: 4c 05 00 d1 	sub	x12, x10, #1
1000065b8: 4d 01 40 b2 	orr	x13, x10, #0x1
1000065bc: 4e 61 1c 9b 	madd	x14, x10, x28, x24
1000065c0: cf 09 40 f9 	ldr	x15, [x14, #16]
1000065c4: d0 81 5f f8 	ldur	x16, [x14, #-8]
1000065c8: ff 01 10 eb 	cmp	x15, x16
1000065cc: 11 22 8f 9a 	csel	x17, x16, x15, hs
1000065d0: 6b 25 8b 9a 	cinc	x11, x11, lo
1000065d4: 40 21 8c 9a 	csel	x0, x10, x12, hs
1000065d8: 8a 21 8a 9a 	csel	x10, x12, x10, hs
1000065dc: ec 21 90 9a 	csel	x12, x15, x16, hs
1000065e0: ce 15 40 f9 	ldr	x14, [x14, #40]
1000065e4: df 01 0c eb 	cmp	x14, x12
1000065e8: ad 31 80 9a 	csel	x13, x13, x0, lo
1000065ec: 6b 25 8b 9a 	cinc	x11, x11, lo
1000065f0: cc 31 8c 9a 	csel	x12, x14, x12, lo
1000065f4: 9f 01 11 eb 	cmp	x12, x17
1000065f8: 4a 31 8d 9a 	csel	x10, x10, x13, lo
1000065fc: 6b 25 8b 9a 	cinc	x11, x11, lo
100006600: 0c 05 00 d1 	sub	x12, x8, #1
100006604: 0d 05 00 91 	add	x13, x8, #1
100006608: 0e 61 1c 9b 	madd	x14, x8, x28, x24
10000660c: cf 09 40 f9 	ldr	x15, [x14, #16]
100006610: d0 81 5f f8 	ldur	x16, [x14, #-8]
100006614: ff 01 10 eb 	cmp	x15, x16
100006618: 11 22 8f 9a 	csel	x17, x16, x15, hs
10000661c: 6b 25 8b 9a 	cinc	x11, x11, lo
100006620: 00 21 8c 9a 	csel	x0, x8, x12, hs
100006624: 88 21 88 9a 	csel	x8, x12, x8, hs
100006628: ec 21 90 9a 	csel	x12, x15, x16, hs
10000662c: ce 15 40 f9 	ldr	x14, [x14, #40]
100006630: df 01 0c eb 	cmp	x14, x12
100006634: ad 31 80 9a 	csel	x13, x13, x0, lo
100006638: 6b 25 8b 9a 	cinc	x11, x11, lo
10000663c: cc 31 8c 9a 	csel	x12, x14, x12, lo
100006640: 9f 01 11 eb 	cmp	x12, x17
100006644: 08 31 8d 9a 	csel	x8, x8, x13, lo
100006648: 6b 25 8b 9a 	cinc	x11, x11, lo
10000664c: 0f 00 00 14 	b	0x100006688 <__ZN4core5slice4sort7recurse17h4b7f156db9f6d48cE+0x25c>
100006650: e0 03 18 aa 	mov	x0, x24
100006654: e1 03 19 aa 	mov	x1, x25
100006658: f4 03 1e aa 	mov	x20, x30
10000665c: 1f ab 00 94 	bl	0x1000312d8 <__ZN4core5slice4sort14break_patterns17hb5ca1d08ed256ecaE>
100006660: fe 03 14 aa 	mov	x30, x20
100006664: e2 f3 7d b2 	orr	x2, xzr, #0xfffffffffffffff8
100006668: 21 00 80 52 	mov	w1, #1
10000666c: b5 06 00 51 	sub	w21, w21, #1
100006670: 29 ff 42 d3 	lsr	x9, x25, #2
100006674: 2a f9 7f d3 	lsl	x10, x9, #1
100006678: 48 01 09 8b 	add	x8, x10, x9
10000667c: 3f c7 00 f1 	cmp	x25, #49
100006680: 48 f7 ff 54 	b.hi	0x100006568 <__ZN4core5slice4sort7recurse17h4b7f156db9f6d48cE+0x13c>
100006684: 0b 00 80 d2 	mov	x11, #0
100006688: 4c 61 1c 9b 	madd	x12, x10, x28, x24
10000668c: 8c 09 40 f9 	ldr	x12, [x12, #16]
100006690: 2d 61 1c 9b 	madd	x13, x9, x28, x24
100006694: ad 09 40 f9 	ldr	x13, [x13, #16]
100006698: 9f 01 0d eb 	cmp	x12, x13
10000669c: ae 21 8c 9a 	csel	x14, x13, x12, hs
1000066a0: 6b 25 8b 9a 	cinc	x11, x11, lo
1000066a4: 4f 21 89 9a 	csel	x15, x10, x9, hs
1000066a8: 3a 21 8a 9a 	csel	x26, x9, x10, hs
1000066ac: 8a 21 8d 9a 	csel	x10, x12, x13, hs
1000066b0: 09 61 1c 9b 	madd	x9, x8, x28, x24
1000066b4: 2c 09 40 f9 	ldr	x12, [x9, #16]
1000066b8: 9f 01 0a eb 	cmp	x12, x10
1000066bc: 09 31 8f 9a 	csel	x9, x8, x15, lo
1000066c0: 68 25 8b 9a 	cinc	x8, x11, lo
1000066c4: 8a 31 8a 9a 	csel	x10, x12, x10, lo
1000066c8: 5f 01 0e eb 	cmp	x10, x14
1000066cc: 22 01 00 54 	b.hs	0x1000066f0 <__ZN4core5slice4sort7recurse17h4b7f156db9f6d48cE+0x2c4>
1000066d0: 1f 2d 00 f1 	cmp	x8, #11
1000066d4: a2 01 00 54 	b.hs	0x100006708 <__ZN4core5slice4sort7recurse17h4b7f156db9f6d48cE+0x2dc>
1000066d8: 08 05 00 91 	add	x8, x8, #1
1000066dc: 1f 01 00 f1 	cmp	x8, #0
1000066e0: e8 17 9f 1a 	cset	w8, eq
1000066e4: e8 02 08 0a 	and	w8, w23, w8
1000066e8: e8 03 00 36 	tbz	w8, #0, 0x100006764 <__ZN4core5slice4sort7recurse17h4b7f156db9f6d48cE+0x338>
1000066ec: 6c 00 00 14 	b	0x10000689c <__ZN4core5slice4sort7recurse17h4b7f156db9f6d48cE+0x470>
1000066f0: fa 03 09 aa 	mov	x26, x9
1000066f4: 1f 01 00 f1 	cmp	x8, #0
1000066f8: e8 17 9f 1a 	cset	w8, eq
1000066fc: e8 02 08 0a 	and	w8, w23, w8
100006700: 28 03 00 36 	tbz	w8, #0, 0x100006764 <__ZN4core5slice4sort7recurse17h4b7f156db9f6d48cE+0x338>
100006704: 66 00 00 14 	b	0x10000689c <__ZN4core5slice4sort7recurse17h4b7f156db9f6d48cE+0x470>
100006708: 28 ff 41 d3 	lsr	x8, x25, #1
10000670c: 29 63 1c 9b 	madd	x9, x25, x28, x24
100006710: 29 61 00 d1 	sub	x9, x9, #24
100006714: ea 03 18 aa 	mov	x10, x24
100006718: 40 01 c0 3d 	ldr	q0, [x10]
10000671c: 4b 09 40 f9 	ldr	x11, [x10, #16]
100006720: eb 63 00 f9 	str	x11, [sp, #192]
100006724: e0 2f 80 3d 	str	q0, [sp, #176]
100006728: 20 01 c0 3d 	ldr	q0, [x9]
10000672c: 2b 09 40 f9 	ldr	x11, [x9, #16]
100006730: 4b 09 00 f9 	str	x11, [x10, #16]
100006734: 40 85 81 3c 	str	q0, [x10], #24
100006738: e0 2f c0 3d 	ldr	q0, [sp, #176]
10000673c: eb 63 40 f9 	ldr	x11, [sp, #192]
100006740: 2b 09 00 f9 	str	x11, [x9, #16]
100006744: 20 85 9e 3c 	str	q0, [x9], #-24
100006748: 08 05 00 d1 	sub	x8, x8, #1
10000674c: 68 fe ff b5 	cbnz	x8, 0x100006718 <__ZN4core5slice4sort7recurse17h4b7f156db9f6d48cE+0x2ec>
100006750: e8 03 3a aa 	mvn	x8, x26
100006754: 3a 03 08 8b 	add	x26, x25, x8
100006758: 28 00 80 52 	mov	w8, #1
10000675c: e8 02 08 0a 	and	w8, w23, w8
100006760: e8 09 00 37 	tbnz	w8, #0, 0x10000689c <__ZN4core5slice4sort7recurse17h4b7f156db9f6d48cE+0x470>
100006764: 36 0b 00 b4 	cbz	x22, 0x1000068c8 <__ZN4core5slice4sort7recurse17h4b7f156db9f6d48cE+0x49c>
100006768: 5f 03 19 eb 	cmp	x26, x25
10000676c: 82 30 00 54 	b.hs	0x100006d7c <__ZN4core5slice4sort7recurse17h4b7f156db9f6d48cE+0x950>
100006770: 49 63 1c 9b 	madd	x9, x26, x28, x24
100006774: c8 0a 40 f9 	ldr	x8, [x22, #16]
100006778: 2a 09 40 f9 	ldr	x10, [x9, #16]
10000677c: 1f 01 0a eb 	cmp	x8, x10
100006780: 03 0a 00 54 	b.lo	0x1000068c0 <__ZN4core5slice4sort7recurse17h4b7f156db9f6d48cE+0x494>
100006784: 08 00 80 d2 	mov	x8, #0
100006788: 00 03 c0 3d 	ldr	q0, [x24]
10000678c: 0a 0b 40 f9 	ldr	x10, [x24, #16]
100006790: ea 63 00 f9 	str	x10, [sp, #192]
100006794: e0 2f 80 3d 	str	q0, [sp, #176]
100006798: 20 01 c0 3d 	ldr	q0, [x9]
10000679c: 2a 09 40 f9 	ldr	x10, [x9, #16]
1000067a0: 0a 0b 00 f9 	str	x10, [x24, #16]
1000067a4: 00 03 80 3d 	str	q0, [x24]
1000067a8: e0 2f c0 3d 	ldr	q0, [sp, #176]
1000067ac: ea 63 40 f9 	ldr	x10, [sp, #192]
1000067b0: 2a 09 00 f9 	str	x10, [x9, #16]
1000067b4: 20 01 80 3d 	str	q0, [x9]
1000067b8: 0a 63 00 91 	add	x10, x24, #24
1000067bc: 09 0b 40 f9 	ldr	x9, [x24, #16]
1000067c0: 00 03 c0 3d 	ldr	q0, [x24]
1000067c4: e0 0f 80 3d 	str	q0, [sp, #48]
1000067c8: 0b a3 00 91 	add	x11, x24, #40
1000067cc: ec 03 19 aa 	mov	x12, x25
1000067d0: 2d 07 00 d1 	sub	x13, x25, #1
1000067d4: 1f 01 0d eb 	cmp	x8, x13
1000067d8: 42 01 00 54 	b.hs	0x100006800 <__ZN4core5slice4sort7recurse17h4b7f156db9f6d48cE+0x3d4>
1000067dc: 0e 2d 1c 9b 	madd	x14, x8, x28, x11
1000067e0: cf 01 40 f9 	ldr	x15, [x14]
1000067e4: 3f 01 0f eb 	cmp	x9, x15
1000067e8: c3 00 00 54 	b.lo	0x100006800 <__ZN4core5slice4sort7recurse17h4b7f156db9f6d48cE+0x3d4>
1000067ec: 08 05 00 91 	add	x8, x8, #1
1000067f0: ce 61 00 91 	add	x14, x14, #24
1000067f4: bf 01 08 eb 	cmp	x13, x8
1000067f8: 41 ff ff 54 	b.ne	0x1000067e0 <__ZN4core5slice4sort7recurse17h4b7f156db9f6d48cE+0x3b4>
1000067fc: e8 03 0d aa 	mov	x8, x13
100006800: 8d 09 1c 9b 	madd	x13, x12, x28, x2
100006804: 8c 05 00 d1 	sub	x12, x12, #1
100006808: 1f 01 0c eb 	cmp	x8, x12
10000680c: 02 03 00 54 	b.hs	0x10000686c <__ZN4core5slice4sort7recurse17h4b7f156db9f6d48cE+0x440>
100006810: 0e 6b 6d f8 	ldr	x14, [x24, x13]
100006814: ad 61 00 d1 	sub	x13, x13, #24
100006818: 3f 01 0e eb 	cmp	x9, x14
10000681c: 43 ff ff 54 	b.lo	0x100006804 <__ZN4core5slice4sort7recurse17h4b7f156db9f6d48cE+0x3d8>
100006820: 0d 29 1c 9b 	madd	x13, x8, x28, x10
100006824: 8e 61 1c 9b 	madd	x14, x12, x28, x24
100006828: a0 01 c0 3d 	ldr	q0, [x13]
10000682c: af 09 40 f9 	ldr	x15, [x13, #16]
100006830: ef 63 00 f9 	str	x15, [sp, #192]
100006834: e0 2f 80 3d 	str	q0, [sp, #176]
100006838: c0 01 c0 3d 	ldr	q0, [x14]
10000683c: cf 09 40 f9 	ldr	x15, [x14, #16]
100006840: af 09 00 f9 	str	x15, [x13, #16]
100006844: a0 01 80 3d 	str	q0, [x13]
100006848: e0 2f c0 3d 	ldr	q0, [sp, #176]
10000684c: ed 63 40 f9 	ldr	x13, [sp, #192]
100006850: cd 09 00 f9 	str	x13, [x14, #16]
100006854: c0 01 80 3d 	str	q0, [x14]
100006858: 08 05 00 91 	add	x8, x8, #1
10000685c: 8d 05 00 d1 	sub	x13, x12, #1
100006860: 1f 01 0d eb 	cmp	x8, x13
100006864: c3 fb ff 54 	b.lo	0x1000067dc <__ZN4core5slice4sort7recurse17h4b7f156db9f6d48cE+0x3b0>
100006868: e6 ff ff 17 	b	0x100006800 <__ZN4core5slice4sort7recurse17h4b7f156db9f6d48cE+0x3d4>
10000686c: 00 05 00 91 	add	x0, x8, #1
100006870: e0 0f c0 3d 	ldr	q0, [sp, #48]
100006874: 00 03 80 3d 	str	q0, [x24]
100006878: 09 0b 00 f9 	str	x9, [x24, #16]
10000687c: 3a 03 00 eb 	subs	x26, x25, x0
100006880: 83 29 00 54 	b.lo	0x100006db0 <__ZN4core5slice4sort7recurse17h4b7f156db9f6d48cE+0x984>
100006884: 08 61 1c 9b 	madd	x8, x8, x28, x24
100006888: 18 61 00 91 	add	x24, x8, #24
10000688c: f9 03 1a aa 	mov	x25, x26
100006890: 5f 57 00 f1 	cmp	x26, #21
100006894: c2 e5 ff 54 	b.hs	0x10000654c <__ZN4core5slice4sort7recurse17h4b7f156db9f6d48cE+0x120>
100006898: f4 fe ff 17 	b	0x100006468 <__ZN4core5slice4sort7recurse17h4b7f156db9f6d48cE+0x3c>
10000689c: e0 03 18 aa 	mov	x0, x24
1000068a0: e1 03 19 aa 	mov	x1, x25
1000068a4: f4 03 1e aa 	mov	x20, x30
1000068a8: 7e ac 00 94 	bl	0x100031aa0 <__ZN4core5slice4sort22partial_insertion_sort17h6126f8ebbbae4142E>
1000068ac: fe 03 14 aa 	mov	x30, x20
1000068b0: e2 f3 7d b2 	orr	x2, xzr, #0xfffffffffffffff8
1000068b4: 21 00 80 52 	mov	w1, #1
1000068b8: 60 f5 07 36 	tbz	w0, #0, 0x100006764 <__ZN4core5slice4sort7recurse17h4b7f156db9f6d48cE+0x338>
1000068bc: 28 01 00 14 	b	0x100006d5c <__ZN4core5slice4sort7recurse17h4b7f156db9f6d48cE+0x930>
1000068c0: f3 03 18 aa 	mov	x19, x24
1000068c4: fe 03 19 aa 	mov	x30, x25
1000068c8: 5f 03 1e eb 	cmp	x26, x30
1000068cc: 22 26 00 54 	b.hs	0x100006d90 <__ZN4core5slice4sort7recurse17h4b7f156db9f6d48cE+0x964>
1000068d0: 48 4f 1c 9b 	madd	x8, x26, x28, x19
1000068d4: 60 02 c0 3d 	ldr	q0, [x19]
1000068d8: 69 0a 40 f9 	ldr	x9, [x19, #16]
1000068dc: e9 63 00 f9 	str	x9, [sp, #192]
1000068e0: e0 2f 80 3d 	str	q0, [sp, #176]
1000068e4: 00 01 c0 3d 	ldr	q0, [x8]
1000068e8: 09 09 40 f9 	ldr	x9, [x8, #16]
1000068ec: 69 0a 00 f9 	str	x9, [x19, #16]
1000068f0: 60 02 80 3d 	str	q0, [x19]
1000068f4: e0 2f c0 3d 	ldr	q0, [sp, #176]
1000068f8: e9 63 40 f9 	ldr	x9, [sp, #192]
1000068fc: 09 09 00 f9 	str	x9, [x8, #16]
100006900: 00 01 80 3d 	str	q0, [x8]
100006904: 60 02 c0 3d 	ldr	q0, [x19]
100006908: 6a 0a 40 f9 	ldr	x10, [x19, #16]
10000690c: ea 13 00 f9 	str	x10, [sp, #32]
100006910: e0 07 80 3d 	str	q0, [sp, #16]
100006914: 08 00 80 d2 	mov	x8, #0
100006918: c1 07 00 f1 	subs	x1, x30, #1
10000691c: 80 01 00 54 	b.eq	0x10000694c <__ZN4core5slice4sort7recurse17h4b7f156db9f6d48cE+0x520>
100006920: 69 a2 00 91 	add	x9, x19, #40
100006924: 77 55 95 52 	mov	w23, #43691
100006928: 2b 01 40 f9 	ldr	x11, [x9]
10000692c: 7f 01 0a eb 	cmp	x11, x10
100006930: 02 01 00 54 	b.hs	0x100006950 <__ZN4core5slice4sort7recurse17h4b7f156db9f6d48cE+0x524>
100006934: 08 05 00 91 	add	x8, x8, #1
100006938: 29 61 00 91 	add	x9, x9, #24
10000693c: 3f 00 08 eb 	cmp	x1, x8
100006940: 41 ff ff 54 	b.ne	0x100006928 <__ZN4core5slice4sort7recurse17h4b7f156db9f6d48cE+0x4fc>
100006944: e8 03 01 aa 	mov	x8, x1
100006948: 02 00 00 14 	b	0x100006950 <__ZN4core5slice4sort7recurse17h4b7f156db9f6d48cE+0x524>
10000694c: 77 55 95 52 	mov	w23, #43691
100006950: 6b 62 00 91 	add	x11, x19, #24
100006954: 1f 01 01 eb 	cmp	x8, x1
100006958: 0c 31 81 9a 	csel	x12, x8, x1, lo
10000695c: cd 0b 1c 9b 	madd	x13, x30, x28, x2
100006960: e9 03 1e aa 	mov	x9, x30
100006964: 29 05 00 d1 	sub	x9, x9, #1
100006968: 3f 01 08 eb 	cmp	x9, x8
10000696c: c9 00 00 54 	b.ls	0x100006984 <__ZN4core5slice4sort7recurse17h4b7f156db9f6d48cE+0x558>
100006970: 6e 6a 6d f8 	ldr	x14, [x19, x13]
100006974: ad 61 00 d1 	sub	x13, x13, #24
100006978: df 01 0a eb 	cmp	x14, x10
10000697c: 42 ff ff 54 	b.hs	0x100006964 <__ZN4core5slice4sort7recurse17h4b7f156db9f6d48cE+0x538>
100006980: 02 00 00 14 	b	0x100006988 <__ZN4core5slice4sort7recurse17h4b7f156db9f6d48cE+0x55c>
100006984: e9 03 0c aa 	mov	x9, x12
100006988: 2c 01 08 eb 	subs	x12, x9, x8
10000698c: 43 22 00 54 	b.lo	0x100006dd4 <__ZN4core5slice4sort7recurse17h4b7f156db9f6d48cE+0x9a8>
100006990: 3f 01 01 eb 	cmp	x9, x1
100006994: 68 21 00 54 	b.hi	0x100006dc0 <__ZN4core5slice4sort7recurse17h4b7f156db9f6d48cE+0x994>
100006998: 0d 00 80 d2 	mov	x13, #0
10000699c: 10 00 80 d2 	mov	x16, #0
1000069a0: 0e 00 80 d2 	mov	x14, #0
1000069a4: 11 00 80 d2 	mov	x17, #0
1000069a8: 0b 2d 1c 9b 	madd	x11, x8, x28, x11
1000069ac: 8c 2d 1c 9b 	madd	x12, x12, x28, x11
1000069b0: 00 10 80 52 	mov	w0, #128
1000069b4: 01 10 80 52 	mov	w1, #128
1000069b8: ef 03 0b aa 	mov	x15, x11
1000069bc: 10 00 00 14 	b	0x1000069fc <__ZN4core5slice4sort7recurse17h4b7f156db9f6d48cE+0x5d0>
1000069c0: a0 03 d9 3c 	ldur	q0, [x29, #-112]
1000069c4: a3 03 5a f8 	ldur	x3, [x29, #-96]
1000069c8: 84 30 1c 9b 	madd	x4, x4, x28, x12
1000069cc: 83 08 00 f9 	str	x3, [x4, #16]
1000069d0: 80 00 80 3d 	str	q0, [x4]
1000069d4: 31 06 00 91 	add	x17, x17, #1
1000069d8: 10 06 00 91 	add	x16, x16, #1
1000069dc: 3f 02 0e eb 	cmp	x17, x14
1000069e0: 23 00 9f 9a 	csel	x3, x1, xzr, eq
1000069e4: 6f 3c 1c 9b 	madd	x15, x3, x28, x15
1000069e8: 1f 02 0d eb 	cmp	x16, x13
1000069ec: e3 17 80 da 	csneg	x3, xzr, x0, ne
1000069f0: 6c 30 1c 9b 	madd	x12, x3, x28, x12
1000069f4: 5f 0c 0c f1 	cmp	x2, #771
1000069f8: 63 0e 00 54 	b.lo	0x100006bc4 <__ZN4core5slice4sort7recurse17h4b7f156db9f6d48cE+0x798>
1000069fc: 83 01 0f cb 	sub	x3, x12, x15
100006a00: 62 fc 43 d3 	lsr	x2, x3, #3
100006a04: 5f 0c 0c f1 	cmp	x2, #771
100006a08: 63 01 00 54 	b.lo	0x100006a34 <__ZN4core5slice4sort7recurse17h4b7f156db9f6d48cE+0x608>
100006a0c: 3f 02 0e eb 	cmp	x17, x14
100006a10: c0 03 00 54 	b.eq	0x100006a88 <__ZN4core5slice4sort7recurse17h4b7f156db9f6d48cE+0x65c>
100006a14: 1f 02 0d eb 	cmp	x16, x13
100006a18: 40 06 00 54 	b.eq	0x100006ae0 <__ZN4core5slice4sort7recurse17h4b7f156db9f6d48cE+0x6b4>
100006a1c: c3 01 11 cb 	sub	x3, x14, x17
100006a20: a4 01 10 cb 	sub	x4, x13, x16
100006a24: 7f 00 04 eb 	cmp	x3, x4
100006a28: 63 30 84 9a 	csel	x3, x3, x4, lo
100006a2c: 43 08 00 b5 	cbnz	x3, 0x100006b34 <__ZN4core5slice4sort7recurse17h4b7f156db9f6d48cE+0x708>
100006a30: eb ff ff 17 	b	0x1000069dc <__ZN4core5slice4sort7recurse17h4b7f156db9f6d48cE+0x5b0>
100006a34: 63 3c 00 12 	and	w3, w3, #0xffff
100006a38: 63 7c 17 1b 	mul	w3, w3, w23
100006a3c: 63 7c 14 53 	lsr	w3, w3, #20
100006a40: 3f 02 0e eb 	cmp	x17, x14
100006a44: e4 27 9f 1a 	cset	w4, lo
100006a48: 1f 02 0d eb 	cmp	x16, x13
100006a4c: e5 27 9f 1a 	cset	w5, lo
100006a50: 84 00 05 2a 	orr	w4, w4, w5
100006a54: 65 00 02 d1 	sub	x5, x3, #128
100006a58: 9f 00 00 71 	cmp	w4, #0
100006a5c: a3 10 83 9a 	csel	x3, x5, x3, ne
100006a60: 3f 02 0e eb 	cmp	x17, x14
100006a64: 60 30 80 9a 	csel	x0, x3, x0, lo
100006a68: 21 30 83 9a 	csel	x1, x1, x3, lo
100006a6c: 65 fc 41 d3 	lsr	x5, x3, #1
100006a70: 63 00 05 cb 	sub	x3, x3, x5
100006a74: 9f 00 00 72 	tst	w4, #0x1
100006a78: 00 10 83 9a 	csel	x0, x0, x3, ne
100006a7c: 21 10 85 9a 	csel	x1, x1, x5, ne
100006a80: 3f 02 0e eb 	cmp	x17, x14
100006a84: 81 fc ff 54 	b.ne	0x100006a14 <__ZN4core5slice4sort7recurse17h4b7f156db9f6d48cE+0x5e8>
100006a88: 41 02 00 b4 	cbz	x1, 0x100006ad0 <__ZN4core5slice4sort7recurse17h4b7f156db9f6d48cE+0x6a4>
100006a8c: 03 00 80 d2 	mov	x3, #0
100006a90: ee c3 00 91 	add	x14, sp, #48
100006a94: f1 03 0f aa 	mov	x17, x15
100006a98: e4 03 0e aa 	mov	x4, x14
100006a9c: 83 14 00 38 	strb	w3, [x4], #1
100006aa0: 65 04 00 91 	add	x5, x3, #1
100006aa4: 23 0a 40 f9 	ldr	x3, [x17, #16]
100006aa8: 7f 00 0a eb 	cmp	x3, x10
100006aac: ce 31 84 9a 	csel	x14, x14, x4, lo
100006ab0: 31 62 00 91 	add	x17, x17, #24
100006ab4: e3 03 05 aa 	mov	x3, x5
100006ab8: 3f 00 05 eb 	cmp	x1, x5
100006abc: e1 fe ff 54 	b.ne	0x100006a98 <__ZN4core5slice4sort7recurse17h4b7f156db9f6d48cE+0x66c>
100006ac0: f1 c3 00 91 	add	x17, sp, #48
100006ac4: 1f 02 0d eb 	cmp	x16, x13
100006ac8: a1 fa ff 54 	b.ne	0x100006a1c <__ZN4core5slice4sort7recurse17h4b7f156db9f6d48cE+0x5f0>
100006acc: 05 00 00 14 	b	0x100006ae0 <__ZN4core5slice4sort7recurse17h4b7f156db9f6d48cE+0x6b4>
100006ad0: ee c3 00 91 	add	x14, sp, #48
100006ad4: f1 c3 00 91 	add	x17, sp, #48
100006ad8: 1f 02 0d eb 	cmp	x16, x13
100006adc: 01 fa ff 54 	b.ne	0x100006a1c <__ZN4core5slice4sort7recurse17h4b7f156db9f6d48cE+0x5f0>
100006ae0: c0 01 00 b4 	cbz	x0, 0x100006b18 <__ZN4core5slice4sort7recurse17h4b7f156db9f6d48cE+0x6ec>
100006ae4: 03 00 80 d2 	mov	x3, #0
100006ae8: 90 21 00 d1 	sub	x16, x12, #8
100006aec: ed c3 02 91 	add	x13, sp, #176
100006af0: e4 03 0d aa 	mov	x4, x13
100006af4: 83 14 00 38 	strb	w3, [x4], #1
100006af8: 65 04 00 91 	add	x5, x3, #1
100006afc: 03 86 5e f8 	ldr	x3, [x16], #-24
100006b00: 7f 00 0a eb 	cmp	x3, x10
100006b04: ad 21 84 9a 	csel	x13, x13, x4, hs
100006b08: e3 03 05 aa 	mov	x3, x5
100006b0c: 1f 00 05 eb 	cmp	x0, x5
100006b10: 01 ff ff 54 	b.ne	0x100006af0 <__ZN4core5slice4sort7recurse17h4b7f156db9f6d48cE+0x6c4>
100006b14: 02 00 00 14 	b	0x100006b1c <__ZN4core5slice4sort7recurse17h4b7f156db9f6d48cE+0x6f0>
100006b18: ed c3 02 91 	add	x13, sp, #176
100006b1c: f0 c3 02 91 	add	x16, sp, #176
100006b20: c3 01 11 cb 	sub	x3, x14, x17
100006b24: a4 01 10 cb 	sub	x4, x13, x16
100006b28: 7f 00 04 eb 	cmp	x3, x4
100006b2c: 63 30 84 9a 	csel	x3, x3, x4, lo
100006b30: 63 f5 ff b4 	cbz	x3, 0x1000069dc <__ZN4core5slice4sort7recurse17h4b7f156db9f6d48cE+0x5b0>
100006b34: 24 02 40 39 	ldrb	w4, [x17]
100006b38: 84 3c 1c 9b 	madd	x4, x4, x28, x15
100006b3c: 80 00 c0 3d 	ldr	q0, [x4]
100006b40: 84 08 40 f9 	ldr	x4, [x4, #16]
100006b44: a4 03 1a f8 	stur	x4, [x29, #-96]
100006b48: a0 03 99 3c 	stur	q0, [x29, #-112]
100006b4c: 05 02 40 39 	ldrb	w5, [x16]
100006b50: e4 03 25 aa 	mvn	x4, x5
100006b54: 86 30 1c 9b 	madd	x6, x4, x28, x12
100006b58: 27 02 40 39 	ldrb	w7, [x17]
100006b5c: e7 3c 1c 9b 	madd	x7, x7, x28, x15
100006b60: d4 08 40 f9 	ldr	x20, [x6, #16]
100006b64: c0 00 c0 3d 	ldr	q0, [x6]
100006b68: e0 00 80 3d 	str	q0, [x7]
100006b6c: f4 08 00 f9 	str	x20, [x7, #16]
100006b70: 63 04 00 f1 	subs	x3, x3, #1
100006b74: 60 f2 ff 54 	b.eq	0x1000069c0 <__ZN4core5slice4sort7recurse17h4b7f156db9f6d48cE+0x594>
100006b78: 24 1e 40 38 	ldrb	w4, [x17, #1]!
100006b7c: 86 3c 1c 9b 	madd	x6, x4, x28, x15
100006b80: e4 03 25 2a 	mvn	w4, w5
100006b84: 84 dc 78 b2 	orr	x4, x4, #0xffffffffffffff00
100006b88: 84 30 1c 9b 	madd	x4, x4, x28, x12
100006b8c: c5 08 40 f9 	ldr	x5, [x6, #16]
100006b90: c0 00 c0 3d 	ldr	q0, [x6]
100006b94: 80 00 80 3d 	str	q0, [x4]
100006b98: 85 08 00 f9 	str	x5, [x4, #16]
100006b9c: 05 1e 40 38 	ldrb	w5, [x16, #1]!
100006ba0: e4 03 25 aa 	mvn	x4, x5
100006ba4: 87 30 1c 9b 	madd	x7, x4, x28, x12
100006ba8: f4 08 40 f9 	ldr	x20, [x7, #16]
100006bac: e0 00 c0 3d 	ldr	q0, [x7]
100006bb0: c0 00 80 3d 	str	q0, [x6]
100006bb4: d4 08 00 f9 	str	x20, [x6, #16]
100006bb8: 63 04 00 f1 	subs	x3, x3, #1
100006bbc: e1 fd ff 54 	b.ne	0x100006b78 <__ZN4core5slice4sort7recurse17h4b7f156db9f6d48cE+0x74c>
100006bc0: 80 ff ff 17 	b	0x1000069c0 <__ZN4core5slice4sort7recurse17h4b7f156db9f6d48cE+0x594>
100006bc4: 3f 02 0e eb 	cmp	x17, x14
100006bc8: e2 07 00 54 	b.hs	0x100006cc4 <__ZN4core5slice4sort7recurse17h4b7f156db9f6d48cE+0x898>
100006bcc: ca fd 5f 38 	ldrb	w10, [x14, #-1]!
100006bd0: 4d 3d 1c 9b 	madd	x13, x10, x28, x15
100006bd4: 8a 61 00 d1 	sub	x10, x12, #24
100006bd8: a0 01 c0 3d 	ldr	q0, [x13]
100006bdc: b0 09 40 f9 	ldr	x16, [x13, #16]
100006be0: b0 03 1a f8 	stur	x16, [x29, #-96]
100006be4: a0 03 99 3c 	stur	q0, [x29, #-112]
100006be8: 80 81 de 3c 	ldur	q0, [x12, #-24]
100006bec: 90 81 5f f8 	ldur	x16, [x12, #-8]
100006bf0: b0 09 00 f9 	str	x16, [x13, #16]
100006bf4: a0 01 80 3d 	str	q0, [x13]
100006bf8: a0 03 d9 3c 	ldur	q0, [x29, #-112]
100006bfc: ad 03 5a f8 	ldur	x13, [x29, #-96]
100006c00: 8d 81 1f f8 	stur	x13, [x12, #-8]
100006c04: 80 81 9e 3c 	stur	q0, [x12, #-24]
100006c08: ec 03 0a aa 	mov	x12, x10
100006c0c: 3f 02 0e eb 	cmp	x17, x14
100006c10: e3 fd ff 54 	b.lo	0x100006bcc <__ZN4core5slice4sort7recurse17h4b7f156db9f6d48cE+0x7a0>
100006c14: 4a 01 0b cb 	sub	x10, x10, x11
100006c18: eb f3 01 b2 	mov	x11, #-6148914691236517206
100006c1c: 6b 55 95 f2 	movk	x11, #43691
100006c20: 4a 7d cb 9b 	umulh	x10, x10, x11
100006c24: e0 07 c0 3d 	ldr	q0, [sp, #16]
100006c28: eb 13 40 f9 	ldr	x11, [sp, #32]
100006c2c: 1a 11 4a 8b 	add	x26, x8, x10, lsr #4
100006c30: 6b 0a 00 f9 	str	x11, [x19, #16]
100006c34: 60 02 80 3d 	str	q0, [x19]
100006c38: ca 03 1a eb 	subs	x10, x30, x26
100006c3c: 09 0b 00 54 	b.ls	0x100006d9c <__ZN4core5slice4sort7recurse17h4b7f156db9f6d48cE+0x970>
100006c40: 3f 01 08 eb 	cmp	x9, x8
100006c44: f4 87 9f 1a 	cset	w20, ls
100006c48: 58 4f 1c 9b 	madd	x24, x26, x28, x19
100006c4c: 60 02 c0 3d 	ldr	q0, [x19]
100006c50: 68 0a 40 f9 	ldr	x8, [x19, #16]
100006c54: e8 63 00 f9 	str	x8, [sp, #192]
100006c58: e0 2f 80 3d 	str	q0, [sp, #176]
100006c5c: 00 03 c0 3d 	ldr	q0, [x24]
100006c60: 08 0b 40 f9 	ldr	x8, [x24, #16]
100006c64: 68 0a 00 f9 	str	x8, [x19, #16]
100006c68: 60 02 80 3d 	str	q0, [x19]
100006c6c: e0 2f c0 3d 	ldr	q0, [sp, #176]
100006c70: e8 63 40 f9 	ldr	x8, [sp, #192]
100006c74: 08 0b 00 f9 	str	x8, [x24, #16]
100006c78: 00 03 80 3d 	str	q0, [x24]
100006c7c: 5f 03 0a eb 	cmp	x26, x10
100006c80: 48 33 8a 9a 	csel	x8, x26, x10, lo
100006c84: 1f 0d 5e eb 	cmp	x8, x30, lsr #3
100006c88: fb 37 9f 1a 	cset	w27, hs
100006c8c: 17 63 00 91 	add	x23, x24, #24
100006c90: 59 05 00 d1 	sub	x25, x10, #1
100006c94: 5f 03 19 eb 	cmp	x26, x25
100006c98: 02 04 00 54 	b.hs	0x100006d18 <__ZN4core5slice4sort7recurse17h4b7f156db9f6d48cE+0x8ec>
100006c9c: e0 03 13 aa 	mov	x0, x19
100006ca0: e1 03 1a aa 	mov	x1, x26
100006ca4: e2 07 40 f9 	ldr	x2, [sp, #8]
100006ca8: e3 03 16 aa 	mov	x3, x22
100006cac: e4 03 15 aa 	mov	x4, x21
100006cb0: df fd ff 97 	bl	0x10000642c <__ZN4core5slice4sort7recurse17h4b7f156db9f6d48cE>
100006cb4: f6 03 18 aa 	mov	x22, x24
100006cb8: fa 03 19 aa 	mov	x26, x25
100006cbc: f3 03 17 aa 	mov	x19, x23
100006cc0: 1c 00 00 14 	b	0x100006d30 <__ZN4core5slice4sort7recurse17h4b7f156db9f6d48cE+0x904>
100006cc4: ea 03 0f aa 	mov	x10, x15
100006cc8: 1f 02 0d eb 	cmp	x16, x13
100006ccc: 42 fa ff 54 	b.hs	0x100006c14 <__ZN4core5slice4sort7recurse17h4b7f156db9f6d48cE+0x7e8>
100006cd0: ae fd 5f 38 	ldrb	w14, [x13, #-1]!
100006cd4: ee 03 2e aa 	mvn	x14, x14
100006cd8: ce 31 1c 9b 	madd	x14, x14, x28, x12
100006cdc: 40 01 c0 3d 	ldr	q0, [x10]
100006ce0: 4f 09 40 f9 	ldr	x15, [x10, #16]
100006ce4: af 03 1a f8 	stur	x15, [x29, #-96]
100006ce8: a0 03 99 3c 	stur	q0, [x29, #-112]
100006cec: c0 01 c0 3d 	ldr	q0, [x14]
100006cf0: cf 09 40 f9 	ldr	x15, [x14, #16]
100006cf4: 4f 09 00 f9 	str	x15, [x10, #16]
100006cf8: 40 85 81 3c 	str	q0, [x10], #24
100006cfc: a0 03 d9 3c 	ldur	q0, [x29, #-112]
100006d00: af 03 5a f8 	ldur	x15, [x29, #-96]
100006d04: cf 09 00 f9 	str	x15, [x14, #16]
100006d08: c0 01 80 3d 	str	q0, [x14]
100006d0c: 1f 02 0d eb 	cmp	x16, x13
100006d10: 03 fe ff 54 	b.lo	0x100006cd0 <__ZN4core5slice4sort7recurse17h4b7f156db9f6d48cE+0x8a4>
100006d14: c0 ff ff 17 	b	0x100006c14 <__ZN4core5slice4sort7recurse17h4b7f156db9f6d48cE+0x7e8>
100006d18: e0 03 17 aa 	mov	x0, x23
100006d1c: e1 03 19 aa 	mov	x1, x25
100006d20: e2 07 40 f9 	ldr	x2, [sp, #8]
100006d24: e3 03 18 aa 	mov	x3, x24
100006d28: e4 03 15 aa 	mov	x4, x21
100006d2c: c0 fd ff 97 	bl	0x10000642c <__ZN4core5slice4sort7recurse17h4b7f156db9f6d48cE>
100006d30: fe 03 1a aa 	mov	x30, x26
100006d34: f8 03 13 aa 	mov	x24, x19
100006d38: 5f 57 00 f1 	cmp	x26, #21
100006d3c: 21 00 80 52 	mov	w1, #1
100006d40: e2 f3 7d b2 	orr	x2, xzr, #0xfffffffffffffff8
100006d44: e2 bf ff 54 	b.hs	0x100006540 <__ZN4core5slice4sort7recurse17h4b7f156db9f6d48cE+0x114>
100006d48: c8 fd ff 17 	b	0x100006468 <__ZN4core5slice4sort7recurse17h4b7f156db9f6d48cE+0x3c>
100006d4c: e0 03 18 aa 	mov	x0, x24
100006d50: e1 03 19 aa 	mov	x1, x25
100006d54: e2 07 40 f9 	ldr	x2, [sp, #8]
100006d58: c8 ac 00 94 	bl	0x100032078 <__ZN4core5slice4sort8heapsort17haeb1450ae00b9c26E>
100006d5c: fd 7b 5a a9 	ldp	x29, x30, [sp, #416]
100006d60: f4 4f 59 a9 	ldp	x20, x19, [sp, #400]
100006d64: f6 57 58 a9 	ldp	x22, x21, [sp, #384]
100006d68: f8 5f 57 a9 	ldp	x24, x23, [sp, #368]
100006d6c: fa 67 56 a9 	ldp	x26, x25, [sp, #352]
100006d70: fc 6f 55 a9 	ldp	x28, x27, [sp, #336]
100006d74: ff c3 06 91 	add	sp, sp, #432
100006d78: c0 03 5f d6 	ret
100006d7c: 22 b1 1c 10 	adr	x2, #235044
100006d80: 1f 20 03 d5 	nop
100006d84: e0 03 1a aa 	mov	x0, x26
100006d88: e1 03 19 aa 	mov	x1, x25
100006d8c: 97 b0 00 94 	bl	0x100032fe8 <__ZN4core9panicking18panic_bounds_check17h1dcb29c14d8acf38E>
100006d90: 42 b4 1c 10 	adr	x2, #235144
100006d94: 1f 20 03 d5 	nop
100006d98: 03 00 00 14 	b	0x100006da4 <__ZN4core5slice4sort7recurse17h4b7f156db9f6d48cE+0x978>
100006d9c: 62 b5 1c 10 	adr	x2, #235180
100006da0: 1f 20 03 d5 	nop
100006da4: e0 03 1a aa 	mov	x0, x26
100006da8: e1 03 1e aa 	mov	x1, x30
100006dac: 8f b0 00 94 	bl	0x100032fe8 <__ZN4core9panicking18panic_bounds_check17h1dcb29c14d8acf38E>
100006db0: 42 b0 1c 10 	adr	x2, #235016
100006db4: 1f 20 03 d5 	nop
100006db8: e1 03 19 aa 	mov	x1, x25
100006dbc: da b0 00 94 	bl	0x100033124 <__ZN4core5slice5index26slice_start_index_len_fail17h8b035d44bb631b40E>
100006dc0: 82 b3 1c 10 	adr	x2, #235120
100006dc4: 1f 20 03 d5 	nop
100006dc8: e0 03 09 aa 	mov	x0, x9
100006dcc: d9 b0 00 94 	bl	0x100033130 <__ZN4core5slice5index24slice_end_index_len_fail17h43cb976450df7ff7E>
100006dd0: 06 00 00 14 	b	0x100006de8 <__ZN4core5slice4sort7recurse17h4b7f156db9f6d48cE+0x9bc>
100006dd4: e2 b2 1c 10 	adr	x2, #235100
100006dd8: 1f 20 03 d5 	nop
100006ddc: e0 03 08 aa 	mov	x0, x8
100006de0: e1 03 09 aa 	mov	x1, x9
100006de4: d6 b0 00 94 	bl	0x10003313c <__ZN4core5slice5index22slice_index_order_fail17he3be83252d5beb3cE>
100006de8: 20 00 20 d4 	brk	#0x1
100006dec: 01 00 00 14 	b	0x100006df0 <__ZN4core5slice4sort7recurse17h4b7f156db9f6d48cE+0x9c4>
100006df0: f4 03 00 aa 	mov	x20, x0
100006df4: e0 43 00 91 	add	x0, sp, #16
100006df8: e1 03 13 aa 	mov	x1, x19
100006dfc: a9 fb ff 97 	bl	0x100005ca0 <__ZN4core3ptr88drop_in_place$LT$core..slice..sort..CopyOnDrop$LT$$LP$$RF$$u5b$u8$u5d$$C$u64$RP$$GT$$GT$17h6191ff4e3967c590E>
100006e00: e0 03 14 aa 	mov	x0, x20
100006e04: fd b0 00 94 	bl	0x1000331f8 <_write+0x1000331f8>

0000000100006e08 <__ZN4core5slice4sort7recurse17h8d372cd56ce673b9E>:
100006e08: fc 6f ba a9 	stp	x28, x27, [sp, #-96]!
100006e0c: fa 67 01 a9 	stp	x26, x25, [sp, #16]
100006e10: f8 5f 02 a9 	stp	x24, x23, [sp, #32]
100006e14: f6 57 03 a9 	stp	x22, x21, [sp, #48]
100006e18: f4 4f 04 a9 	stp	x20, x19, [sp, #64]
100006e1c: fd 7b 05 a9 	stp	x29, x30, [sp, #80]
100006e20: fd 43 01 91 	add	x29, sp, #80
100006e24: ff 43 07 d1 	sub	sp, sp, #464
100006e28: e4 47 00 b9 	str	w4, [sp, #68]
100006e2c: e2 1b 00 f9 	str	x2, [sp, #48]
100006e30: 3f 54 00 f1 	cmp	x1, #21
100006e34: a2 08 00 54 	b.hs	0x100006f48 <__ZN4core5slice4sort7recurse17h8d372cd56ce673b9E+0x140>
100006e38: fa 03 01 aa 	mov	x26, x1
100006e3c: f8 03 00 aa 	mov	x24, x0
100006e40: 5f 0b 00 f1 	cmp	x26, #2
100006e44: 43 4f 00 54 	b.lo	0x10000782c <__ZN4core5slice4sort7recurse17h8d372cd56ce673b9E+0xa24>
100006e48: 16 00 80 d2 	mov	x22, #0
100006e4c: 35 00 80 52 	mov	w21, #1
100006e50: f7 03 18 aa 	mov	x23, x24
100006e54: 0a 00 00 14 	b	0x100006e7c <__ZN4core5slice4sort7recurse17h8d372cd56ce673b9E+0x74>
100006e58: fb 03 18 aa 	mov	x27, x24
100006e5c: 73 67 00 a9 	stp	x19, x25, [x27]
100006e60: e8 2b 40 f9 	ldr	x8, [sp, #80]
100006e64: 68 0b 00 f9 	str	x8, [x27, #16]
100006e68: b5 06 00 91 	add	x21, x21, #1
100006e6c: f7 62 00 91 	add	x23, x23, #24
100006e70: d6 06 00 d1 	sub	x22, x22, #1
100006e74: bf 02 1a eb 	cmp	x21, x26
100006e78: a0 4d 00 54 	b.eq	0x10000782c <__ZN4core5slice4sort7recurse17h8d372cd56ce673b9E+0xa24>
100006e7c: 08 03 80 52 	mov	w8, #24
100006e80: b4 62 08 9b 	madd	x20, x21, x8, x24
100006e84: fb 03 14 aa 	mov	x27, x20
100006e88: 61 8f 5e f8 	ldr	x1, [x27, #-24]!
100006e8c: 93 66 40 a9 	ldp	x19, x25, [x20]
100006e90: 88 02 5f f8 	ldur	x8, [x20, #-16]
100006e94: 3c 03 08 eb 	subs	x28, x25, x8
100006e98: 22 33 88 9a 	csel	x2, x25, x8, lo
100006e9c: e0 03 13 aa 	mov	x0, x19
100006ea0: 0f b1 00 94 	bl	0x1000332dc <_write+0x1000332dc>
100006ea4: 08 7c 40 93 	sxtw	x8, w0
100006ea8: 1f 00 00 71 	cmp	w0, #0
100006eac: 88 03 88 9a 	csel	x8, x28, x8, eq
100006eb0: c8 fd ff b6 	tbz	x8, #63, 0x100006e68 <__ZN4core5slice4sort7recurse17h8d372cd56ce673b9E+0x60>
100006eb4: 88 0a 40 f9 	ldr	x8, [x20, #16]
100006eb8: e8 2b 00 f9 	str	x8, [sp, #80]
100006ebc: 60 03 c0 3d 	ldr	q0, [x27]
100006ec0: 80 02 80 3d 	str	q0, [x20]
100006ec4: 68 0b 40 f9 	ldr	x8, [x27, #16]
100006ec8: 88 0a 00 f9 	str	x8, [x20, #16]
100006ecc: a8 06 00 d1 	sub	x8, x21, #1
100006ed0: 68 fc ff b4 	cbz	x8, 0x100006e5c <__ZN4core5slice4sort7recurse17h8d372cd56ce673b9E+0x54>
100006ed4: 81 22 7d a9 	ldp	x1, x8, [x20, #-48]
100006ed8: 34 03 08 eb 	subs	x20, x25, x8
100006edc: 22 33 88 9a 	csel	x2, x25, x8, lo
100006ee0: e0 03 13 aa 	mov	x0, x19
100006ee4: fe b0 00 94 	bl	0x1000332dc <_write+0x1000332dc>
100006ee8: 08 7c 40 93 	sxtw	x8, w0
100006eec: 1f 00 00 71 	cmp	w0, #0
100006ef0: 89 02 88 9a 	csel	x9, x20, x8, eq
100006ef4: f4 03 16 aa 	mov	x20, x22
100006ef8: e8 03 17 aa 	mov	x8, x23
100006efc: 09 fb ff b6 	tbz	x9, #63, 0x100006e5c <__ZN4core5slice4sort7recurse17h8d372cd56ce673b9E+0x54>
100006f00: 00 81 de 3c 	ldur	q0, [x8, #-24]
100006f04: 00 01 80 3d 	str	q0, [x8]
100006f08: 09 81 5f f8 	ldur	x9, [x8, #-8]
100006f0c: 09 09 00 f9 	str	x9, [x8, #16]
100006f10: 94 06 00 b1 	adds	x20, x20, #1
100006f14: 22 fa ff 54 	b.hs	0x100006e58 <__ZN4core5slice4sort7recurse17h8d372cd56ce673b9E+0x50>
100006f18: 1b 61 00 d1 	sub	x27, x8, #24
100006f1c: 01 21 7d a9 	ldp	x1, x8, [x8, #-48]
100006f20: 3c 03 08 eb 	subs	x28, x25, x8
100006f24: 22 33 88 9a 	csel	x2, x25, x8, lo
100006f28: e0 03 13 aa 	mov	x0, x19
100006f2c: ec b0 00 94 	bl	0x1000332dc <_write+0x1000332dc>
100006f30: 08 7c 40 93 	sxtw	x8, w0
100006f34: 1f 00 00 71 	cmp	w0, #0
100006f38: 89 03 88 9a 	csel	x9, x28, x8, eq
100006f3c: e8 03 1b aa 	mov	x8, x27
100006f40: 09 fe ff b7 	tbnz	x9, #63, 0x100006f00 <__ZN4core5slice4sort7recurse17h8d372cd56ce673b9E+0xf8>
100006f44: c6 ff ff 17 	b	0x100006e5c <__ZN4core5slice4sort7recurse17h8d372cd56ce673b9E+0x54>
100006f48: fc 03 03 aa 	mov	x28, x3
100006f4c: e0 07 01 a9 	stp	x0, x1, [sp, #16]
100006f50: b6 03 04 d1 	sub	x22, x29, #256
100006f54: 28 00 80 52 	mov	w8, #1
100006f58: e8 3b 00 b9 	str	w8, [sp, #56]
100006f5c: 33 00 80 52 	mov	w19, #1
100006f60: e8 3b 40 b9 	ldr	w8, [sp, #56]
100006f64: 08 01 13 0a 	and	w8, w8, w19
100006f68: e8 2b 00 b9 	str	w8, [sp, #40]
100006f6c: f8 67 41 a9 	ldp	x24, x25, [sp, #16]
100006f70: fc 13 00 f9 	str	x28, [sp, #32]
100006f74: e8 47 40 b9 	ldr	w8, [sp, #68]
100006f78: 28 45 00 34 	cbz	w8, 0x10000781c <__ZN4core5slice4sort7recurse17h8d372cd56ce673b9E+0xa14>
100006f7c: e8 3b 40 b9 	ldr	w8, [sp, #56]
100006f80: 48 17 00 36 	tbz	w8, #0, 0x100007268 <__ZN4core5slice4sort7recurse17h8d372cd56ce673b9E+0x460>
100006f84: 28 ff 42 d3 	lsr	x8, x25, #2
100006f88: 13 f9 7f d3 	lsl	x19, x8, #1
100006f8c: e8 cf 06 a9 	stp	x8, x19, [sp, #104]
100006f90: 74 02 08 8b 	add	x20, x19, x8
100006f94: f4 ff 07 a9 	stp	x20, xzr, [sp, #120]
100006f98: e9 1b 40 f9 	ldr	x9, [sp, #48]
100006f9c: a9 63 30 a9 	stp	x9, x24, [x29, #-256]
100006fa0: e9 03 02 91 	add	x9, sp, #128
100006fa4: b9 27 31 a9 	stp	x25, x9, [x29, #-240]
100006fa8: 3f c7 00 f1 	cmp	x25, #49
100006fac: 89 03 00 54 	b.ls	0x10000701c <__ZN4core5slice4sort7recurse17h8d372cd56ce673b9E+0x214>
100006fb0: 09 05 00 d1 	sub	x9, x8, #1
100006fb4: a9 03 18 f8 	stur	x9, [x29, #-128]
100006fb8: 08 05 00 91 	add	x8, x8, #1
100006fbc: e8 53 00 f9 	str	x8, [sp, #160]
100006fc0: a0 03 04 d1 	sub	x0, x29, #256
100006fc4: a1 03 02 d1 	sub	x1, x29, #128
100006fc8: e2 a3 01 91 	add	x2, sp, #104
100006fcc: e3 83 02 91 	add	x3, sp, #160
100006fd0: bb fc ff 97 	bl	0x1000062bc <__ZN4core5slice4sort12choose_pivot28_$u7b$$u7b$closure$u7d$$u7d$17hfb2467677c46e6edE>
100006fd4: 68 06 00 d1 	sub	x8, x19, #1
100006fd8: a8 03 18 f8 	stur	x8, [x29, #-128]
100006fdc: 68 02 40 b2 	orr	x8, x19, #0x1
100006fe0: e8 53 00 f9 	str	x8, [sp, #160]
100006fe4: a0 03 04 d1 	sub	x0, x29, #256
100006fe8: a1 03 02 d1 	sub	x1, x29, #128
100006fec: e2 c3 01 91 	add	x2, sp, #112
100006ff0: e3 83 02 91 	add	x3, sp, #160
100006ff4: b2 fc ff 97 	bl	0x1000062bc <__ZN4core5slice4sort12choose_pivot28_$u7b$$u7b$closure$u7d$$u7d$17hfb2467677c46e6edE>
100006ff8: 88 06 00 d1 	sub	x8, x20, #1
100006ffc: a8 03 18 f8 	stur	x8, [x29, #-128]
100007000: 88 06 00 91 	add	x8, x20, #1
100007004: e8 53 00 f9 	str	x8, [sp, #160]
100007008: a0 03 04 d1 	sub	x0, x29, #256
10000700c: a1 03 02 d1 	sub	x1, x29, #128
100007010: e2 e3 01 91 	add	x2, sp, #120
100007014: e3 83 02 91 	add	x3, sp, #160
100007018: a9 fc ff 97 	bl	0x1000062bc <__ZN4core5slice4sort12choose_pivot28_$u7b$$u7b$closure$u7d$$u7d$17hfb2467677c46e6edE>
10000701c: a0 03 04 d1 	sub	x0, x29, #256
100007020: e1 a3 01 91 	add	x1, sp, #104
100007024: e2 c3 01 91 	add	x2, sp, #112
100007028: e3 e3 01 91 	add	x3, sp, #120
10000702c: a4 fc ff 97 	bl	0x1000062bc <__ZN4core5slice4sort12choose_pivot28_$u7b$$u7b$closure$u7d$$u7d$17hfb2467677c46e6edE>
100007030: e8 43 40 f9 	ldr	x8, [sp, #128]
100007034: 1f 31 00 f1 	cmp	x8, #12
100007038: 22 01 00 54 	b.hs	0x10000705c <__ZN4core5slice4sort7recurse17h8d372cd56ce673b9E+0x254>
10000703c: fa 3b 40 f9 	ldr	x26, [sp, #112]
100007040: 1f 01 00 f1 	cmp	x8, #0
100007044: e8 17 9f 1a 	cset	w8, eq
100007048: 14 03 80 52 	mov	w20, #24
10000704c: e9 2b 40 b9 	ldr	w9, [sp, #40]
100007050: 28 01 08 0a 	and	w8, w9, w8
100007054: 88 03 00 36 	tbz	w8, #0, 0x1000070c4 <__ZN4core5slice4sort7recurse17h8d372cd56ce673b9E+0x2bc>
100007058: 8b 00 00 14 	b	0x100007284 <__ZN4core5slice4sort7recurse17h8d372cd56ce673b9E+0x47c>
10000705c: 28 ff 41 d3 	lsr	x8, x25, #1
100007060: 14 03 80 52 	mov	w20, #24
100007064: 29 63 14 9b 	madd	x9, x25, x20, x24
100007068: 29 61 00 d1 	sub	x9, x9, #24
10000706c: ea 03 18 aa 	mov	x10, x24
100007070: 40 01 c0 3d 	ldr	q0, [x10]
100007074: 4b 09 40 f9 	ldr	x11, [x10, #16]
100007078: ab 03 11 f8 	stur	x11, [x29, #-240]
10000707c: c0 02 80 3d 	str	q0, [x22]
100007080: 20 01 c0 3d 	ldr	q0, [x9]
100007084: 2b 09 40 f9 	ldr	x11, [x9, #16]
100007088: 4b 09 00 f9 	str	x11, [x10, #16]
10000708c: 40 85 81 3c 	str	q0, [x10], #24
100007090: c0 02 c0 3d 	ldr	q0, [x22]
100007094: ab 03 51 f8 	ldur	x11, [x29, #-240]
100007098: 2b 09 00 f9 	str	x11, [x9, #16]
10000709c: 20 85 9e 3c 	str	q0, [x9], #-24
1000070a0: 08 05 00 d1 	sub	x8, x8, #1
1000070a4: 68 fe ff b5 	cbnz	x8, 0x100007070 <__ZN4core5slice4sort7recurse17h8d372cd56ce673b9E+0x268>
1000070a8: e8 3b 40 f9 	ldr	x8, [sp, #112]
1000070ac: e8 03 28 aa 	mvn	x8, x8
1000070b0: 3a 03 08 8b 	add	x26, x25, x8
1000070b4: 28 00 80 52 	mov	w8, #1
1000070b8: e9 2b 40 b9 	ldr	w9, [sp, #40]
1000070bc: 28 01 08 0a 	and	w8, w9, w8
1000070c0: 28 0e 00 37 	tbnz	w8, #0, 0x100007284 <__ZN4core5slice4sort7recurse17h8d372cd56ce673b9E+0x47c>
1000070c4: bc 0e 00 b4 	cbz	x28, 0x100007298 <__ZN4core5slice4sort7recurse17h8d372cd56ce673b9E+0x490>
1000070c8: 5f 03 19 eb 	cmp	x26, x25
1000070cc: 02 3c 00 54 	b.hs	0x10000784c <__ZN4core5slice4sort7recurse17h8d372cd56ce673b9E+0xa44>
1000070d0: 55 63 14 9b 	madd	x21, x26, x20, x24
1000070d4: 80 23 40 a9 	ldp	x0, x8, [x28]
1000070d8: a1 26 40 a9 	ldp	x1, x9, [x21]
1000070dc: 13 01 09 eb 	subs	x19, x8, x9
1000070e0: 02 31 89 9a 	csel	x2, x8, x9, lo
1000070e4: 7e b0 00 94 	bl	0x1000332dc <_write+0x1000332dc>
1000070e8: 08 7c 40 93 	sxtw	x8, w0
1000070ec: 1f 00 00 71 	cmp	w0, #0
1000070f0: 68 02 88 9a 	csel	x8, x19, x8, eq
1000070f4: 68 0d f8 b7 	tbnz	x8, #63, 0x1000072a0 <__ZN4core5slice4sort7recurse17h8d372cd56ce673b9E+0x498>
1000070f8: 14 00 80 d2 	mov	x20, #0
1000070fc: 00 03 c0 3d 	ldr	q0, [x24]
100007100: 08 0b 40 f9 	ldr	x8, [x24, #16]
100007104: a8 03 11 f8 	stur	x8, [x29, #-240]
100007108: c0 02 80 3d 	str	q0, [x22]
10000710c: a0 02 c0 3d 	ldr	q0, [x21]
100007110: a8 0a 40 f9 	ldr	x8, [x21, #16]
100007114: 08 0b 00 f9 	str	x8, [x24, #16]
100007118: 00 03 80 3d 	str	q0, [x24]
10000711c: c0 02 c0 3d 	ldr	q0, [x22]
100007120: a8 03 51 f8 	ldur	x8, [x29, #-240]
100007124: a8 0a 00 f9 	str	x8, [x21, #16]
100007128: a0 02 80 3d 	str	q0, [x21]
10000712c: 08 63 00 91 	add	x8, x24, #24
100007130: e8 27 00 f9 	str	x8, [sp, #72]
100007134: 1a 03 40 f9 	ldr	x26, [x24]
100007138: 00 83 c0 3c 	ldur	q0, [x24, #8]
10000713c: e0 17 80 3d 	str	q0, [sp, #80]
100007140: 16 00 66 9e 	fmov	x22, d0
100007144: 15 83 00 91 	add	x21, x24, #32
100007148: fc 03 19 aa 	mov	x28, x25
10000714c: 3b 07 00 d1 	sub	x27, x25, #1
100007150: 9f 02 1b eb 	cmp	x20, x27
100007154: 62 02 00 54 	b.hs	0x1000071a0 <__ZN4core5slice4sort7recurse17h8d372cd56ce673b9E+0x398>
100007158: f7 03 15 aa 	mov	x23, x21
10000715c: 08 03 80 52 	mov	w8, #24
100007160: 93 56 08 9b 	madd	x19, x20, x8, x21
100007164: 61 a2 7f a9 	ldp	x1, x8, [x19, #-8]
100007168: d5 02 08 eb 	subs	x21, x22, x8
10000716c: c2 32 88 9a 	csel	x2, x22, x8, lo
100007170: e0 03 1a aa 	mov	x0, x26
100007174: 5a b0 00 94 	bl	0x1000332dc <_write+0x1000332dc>
100007178: 08 7c 40 93 	sxtw	x8, w0
10000717c: 1f 00 00 71 	cmp	w0, #0
100007180: a8 02 88 9a 	csel	x8, x21, x8, eq
100007184: c8 00 f8 b7 	tbnz	x8, #63, 0x10000719c <__ZN4core5slice4sort7recurse17h8d372cd56ce673b9E+0x394>
100007188: 94 06 00 91 	add	x20, x20, #1
10000718c: 73 62 00 91 	add	x19, x19, #24
100007190: 7f 03 14 eb 	cmp	x27, x20
100007194: 81 fe ff 54 	b.ne	0x100007164 <__ZN4core5slice4sort7recurse17h8d372cd56ce673b9E+0x35c>
100007198: f4 03 1b aa 	mov	x20, x27
10000719c: f5 03 17 aa 	mov	x21, x23
1000071a0: 08 03 80 52 	mov	w8, #24
1000071a4: 9b 63 08 9b 	madd	x27, x28, x8, x24
1000071a8: 9c 07 00 d1 	sub	x28, x28, #1
1000071ac: 9f 02 1c eb 	cmp	x20, x28
1000071b0: e2 03 00 54 	b.hs	0x10000722c <__ZN4core5slice4sort7recurse17h8d372cd56ce673b9E+0x424>
1000071b4: 61 a3 fe a9 	ldp	x1, x8, [x27, #-24]!
1000071b8: d3 02 08 eb 	subs	x19, x22, x8
1000071bc: c2 32 88 9a 	csel	x2, x22, x8, lo
1000071c0: e0 03 1a aa 	mov	x0, x26
1000071c4: 46 b0 00 94 	bl	0x1000332dc <_write+0x1000332dc>
1000071c8: 08 7c 40 93 	sxtw	x8, w0
1000071cc: 1f 00 00 71 	cmp	w0, #0
1000071d0: 68 02 88 9a 	csel	x8, x19, x8, eq
1000071d4: a8 fe ff b7 	tbnz	x8, #63, 0x1000071a8 <__ZN4core5slice4sort7recurse17h8d372cd56ce673b9E+0x3a0>
1000071d8: e8 27 40 f9 	ldr	x8, [sp, #72]
1000071dc: 09 03 80 52 	mov	w9, #24
1000071e0: 88 22 09 9b 	madd	x8, x20, x9, x8
1000071e4: 00 01 c0 3d 	ldr	q0, [x8]
1000071e8: 09 09 40 f9 	ldr	x9, [x8, #16]
1000071ec: a9 03 11 f8 	stur	x9, [x29, #-240]
1000071f0: aa 03 04 d1 	sub	x10, x29, #256
1000071f4: 40 01 80 3d 	str	q0, [x10]
1000071f8: 60 03 c0 3d 	ldr	q0, [x27]
1000071fc: 69 0b 40 f9 	ldr	x9, [x27, #16]
100007200: 09 09 00 f9 	str	x9, [x8, #16]
100007204: 00 01 80 3d 	str	q0, [x8]
100007208: 40 01 c0 3d 	ldr	q0, [x10]
10000720c: a8 03 51 f8 	ldur	x8, [x29, #-240]
100007210: 68 0b 00 f9 	str	x8, [x27, #16]
100007214: 60 03 80 3d 	str	q0, [x27]
100007218: 94 06 00 91 	add	x20, x20, #1
10000721c: 9b 07 00 d1 	sub	x27, x28, #1
100007220: 9f 02 1b eb 	cmp	x20, x27
100007224: a3 f9 ff 54 	b.lo	0x100007158 <__ZN4core5slice4sort7recurse17h8d372cd56ce673b9E+0x350>
100007228: de ff ff 17 	b	0x1000071a0 <__ZN4core5slice4sort7recurse17h8d372cd56ce673b9E+0x398>
10000722c: 80 06 00 91 	add	x0, x20, #1
100007230: 1a 03 00 f9 	str	x26, [x24]
100007234: e0 17 c0 3d 	ldr	q0, [sp, #80]
100007238: 00 83 80 3c 	stur	q0, [x24, #8]
10000723c: 3a 03 00 eb 	subs	x26, x25, x0
100007240: c3 32 00 54 	b.lo	0x100007898 <__ZN4core5slice4sort7recurse17h8d372cd56ce673b9E+0xa90>
100007244: 08 03 80 52 	mov	w8, #24
100007248: 88 62 08 9b 	madd	x8, x20, x8, x24
10000724c: 18 61 00 91 	add	x24, x8, #24
100007250: f9 03 1a aa 	mov	x25, x26
100007254: 5f 57 00 f1 	cmp	x26, #21
100007258: fc 13 40 f9 	ldr	x28, [sp, #32]
10000725c: b6 03 04 d1 	sub	x22, x29, #256
100007260: a2 e8 ff 54 	b.hs	0x100006f74 <__ZN4core5slice4sort7recurse17h8d372cd56ce673b9E+0x16c>
100007264: f7 fe ff 17 	b	0x100006e40 <__ZN4core5slice4sort7recurse17h8d372cd56ce673b9E+0x38>
100007268: e0 03 18 aa 	mov	x0, x24
10000726c: e1 03 19 aa 	mov	x1, x25
100007270: 1a a8 00 94 	bl	0x1000312d8 <__ZN4core5slice4sort14break_patterns17hb5ca1d08ed256ecaE>
100007274: e8 47 40 b9 	ldr	w8, [sp, #68]
100007278: 08 05 00 51 	sub	w8, w8, #1
10000727c: e8 47 00 b9 	str	w8, [sp, #68]
100007280: 41 ff ff 17 	b	0x100006f84 <__ZN4core5slice4sort7recurse17h8d372cd56ce673b9E+0x17c>
100007284: e0 03 18 aa 	mov	x0, x24
100007288: e1 03 19 aa 	mov	x1, x25
10000728c: 7a a8 00 94 	bl	0x100031474 <__ZN4core5slice4sort22partial_insertion_sort17h11a744eb2a4fed90E>
100007290: a0 f1 07 36 	tbz	w0, #0, 0x1000070c4 <__ZN4core5slice4sort7recurse17h8d372cd56ce673b9E+0x2bc>
100007294: 66 01 00 14 	b	0x10000782c <__ZN4core5slice4sort7recurse17h8d372cd56ce673b9E+0xa24>
100007298: f8 67 41 a9 	ldp	x24, x25, [sp, #16]
10000729c: 59 2f 00 b4 	cbz	x25, 0x100007884 <__ZN4core5slice4sort7recurse17h8d372cd56ce673b9E+0xa7c>
1000072a0: 5f 03 19 eb 	cmp	x26, x25
1000072a4: e2 2d 00 54 	b.hs	0x100007860 <__ZN4core5slice4sort7recurse17h8d372cd56ce673b9E+0xa58>
1000072a8: 15 03 80 52 	mov	w21, #24
1000072ac: 48 63 14 9b 	madd	x8, x26, x20, x24
1000072b0: 00 03 c0 3d 	ldr	q0, [x24]
1000072b4: 09 0b 40 f9 	ldr	x9, [x24, #16]
1000072b8: a9 03 11 f8 	stur	x9, [x29, #-240]
1000072bc: c0 02 80 3d 	str	q0, [x22]
1000072c0: 00 01 c0 3d 	ldr	q0, [x8]
1000072c4: 09 09 40 f9 	ldr	x9, [x8, #16]
1000072c8: 09 0b 00 f9 	str	x9, [x24, #16]
1000072cc: 00 03 80 3d 	str	q0, [x24]
1000072d0: c0 02 c0 3d 	ldr	q0, [x22]
1000072d4: a9 03 51 f8 	ldur	x9, [x29, #-240]
1000072d8: 09 09 00 f9 	str	x9, [x8, #16]
1000072dc: 00 01 80 3d 	str	q0, [x8]
1000072e0: 08 0b 40 f9 	ldr	x8, [x24, #16]
1000072e4: 00 03 c0 3d 	ldr	q0, [x24]
1000072e8: e0 23 80 3d 	str	q0, [sp, #128]
1000072ec: e8 4b 00 f9 	str	x8, [sp, #144]
1000072f0: fa 5f 48 a9 	ldp	x26, x23, [sp, #128]
1000072f4: f9 0f 00 f9 	str	x25, [sp, #24]
1000072f8: 3b 07 00 f1 	subs	x27, x25, #1
1000072fc: 40 02 00 54 	b.eq	0x100007344 <__ZN4core5slice4sort7recurse17h8d372cd56ce673b9E+0x53c>
100007300: 19 00 80 d2 	mov	x25, #0
100007304: 13 83 00 91 	add	x19, x24, #32
100007308: 60 a2 7f a9 	ldp	x0, x8, [x19, #-8]
10000730c: 14 01 17 eb 	subs	x20, x8, x23
100007310: 02 31 97 9a 	csel	x2, x8, x23, lo
100007314: e1 03 1a aa 	mov	x1, x26
100007318: f1 af 00 94 	bl	0x1000332dc <_write+0x1000332dc>
10000731c: 08 7c 40 93 	sxtw	x8, w0
100007320: 1f 00 00 71 	cmp	w0, #0
100007324: 88 02 88 9a 	csel	x8, x20, x8, eq
100007328: 08 01 f8 b6 	tbz	x8, #63, 0x100007348 <__ZN4core5slice4sort7recurse17h8d372cd56ce673b9E+0x540>
10000732c: 39 07 00 91 	add	x25, x25, #1
100007330: 73 62 00 91 	add	x19, x19, #24
100007334: 7f 03 19 eb 	cmp	x27, x25
100007338: 81 fe ff 54 	b.ne	0x100007308 <__ZN4core5slice4sort7recurse17h8d372cd56ce673b9E+0x500>
10000733c: f9 03 1b aa 	mov	x25, x27
100007340: 02 00 00 14 	b	0x100007348 <__ZN4core5slice4sort7recurse17h8d372cd56ce673b9E+0x540>
100007344: 19 00 80 d2 	mov	x25, #0
100007348: 14 63 00 91 	add	x20, x24, #24
10000734c: 3f 03 1b eb 	cmp	x25, x27
100007350: 28 33 9b 9a 	csel	x8, x25, x27, lo
100007354: e8 2b 00 f9 	str	x8, [sp, #80]
100007358: f3 0f 40 f9 	ldr	x19, [sp, #24]
10000735c: 68 62 15 9b 	madd	x8, x19, x21, x24
100007360: 15 61 00 d1 	sub	x21, x8, #24
100007364: 73 06 00 d1 	sub	x19, x19, #1
100007368: 7f 02 19 eb 	cmp	x19, x25
10000736c: 69 01 00 54 	b.ls	0x100007398 <__ZN4core5slice4sort7recurse17h8d372cd56ce673b9E+0x590>
100007370: a0 a2 fe a8 	ldp	x0, x8, [x21], #-24
100007374: 16 01 17 eb 	subs	x22, x8, x23
100007378: 02 31 97 9a 	csel	x2, x8, x23, lo
10000737c: e1 03 1a aa 	mov	x1, x26
100007380: d7 af 00 94 	bl	0x1000332dc <_write+0x1000332dc>
100007384: 08 7c 40 93 	sxtw	x8, w0
100007388: 1f 00 00 71 	cmp	w0, #0
10000738c: c8 02 88 9a 	csel	x8, x22, x8, eq
100007390: a8 fe ff b6 	tbz	x8, #63, 0x100007364 <__ZN4core5slice4sort7recurse17h8d372cd56ce673b9E+0x55c>
100007394: 02 00 00 14 	b	0x10000739c <__ZN4core5slice4sort7recurse17h8d372cd56ce673b9E+0x594>
100007398: f3 2b 40 f9 	ldr	x19, [sp, #80]
10000739c: 68 02 19 eb 	subs	x8, x19, x25
1000073a0: f8 0b 00 f9 	str	x24, [sp, #16]
1000073a4: e3 28 00 54 	b.lo	0x1000078c0 <__ZN4core5slice4sort7recurse17h8d372cd56ce673b9E+0xab8>
1000073a8: f3 03 00 f9 	str	x19, [sp]
1000073ac: 7f 02 1b eb 	cmp	x19, x27
1000073b0: c8 27 00 54 	b.hi	0x1000078a8 <__ZN4core5slice4sort7recurse17h8d372cd56ce673b9E+0xaa0>
1000073b4: 15 00 80 d2 	mov	x21, #0
1000073b8: 18 00 80 d2 	mov	x24, #0
1000073bc: 13 00 80 d2 	mov	x19, #0
1000073c0: 1c 00 80 d2 	mov	x28, #0
1000073c4: 09 03 80 52 	mov	w9, #24
1000073c8: 36 53 09 9b 	madd	x22, x25, x9, x20
1000073cc: 0e 03 80 52 	mov	w14, #24
1000073d0: 1b 59 0e 9b 	madd	x27, x8, x14, x22
1000073d4: 0f 10 80 52 	mov	w15, #128
1000073d8: 10 10 80 52 	mov	w16, #128
1000073dc: f6 07 00 f9 	str	x22, [sp, #8]
1000073e0: f9 1f 00 f9 	str	x25, [sp, #56]
1000073e4: 11 00 00 14 	b	0x100007428 <__ZN4core5slice4sort7recurse17h8d372cd56ce673b9E+0x620>
1000073e8: a8 03 04 d1 	sub	x8, x29, #256
1000073ec: 00 21 c0 3d 	ldr	q0, [x8, #128]
1000073f0: a8 03 59 f8 	ldur	x8, [x29, #-112]
1000073f4: 29 6d 0e 9b 	madd	x9, x9, x14, x27
1000073f8: 28 09 00 f9 	str	x8, [x9, #16]
1000073fc: 20 01 80 3d 	str	q0, [x9]
100007400: 9c 07 00 91 	add	x28, x28, #1
100007404: 18 07 00 91 	add	x24, x24, #1
100007408: 9f 03 13 eb 	cmp	x28, x19
10000740c: 08 02 9f 9a 	csel	x8, x16, xzr, eq
100007410: 16 59 0e 9b 	madd	x22, x8, x14, x22
100007414: 1f 03 15 eb 	cmp	x24, x21
100007418: e8 17 8f da 	csneg	x8, xzr, x15, ne
10000741c: 1b 6d 0e 9b 	madd	x27, x8, x14, x27
100007420: 3f 0e 0c f1 	cmp	x17, #771
100007424: 63 12 00 54 	b.lo	0x100007670 <__ZN4core5slice4sort7recurse17h8d372cd56ce673b9E+0x868>
100007428: 68 03 16 cb 	sub	x8, x27, x22
10000742c: 11 fd 43 d3 	lsr	x17, x8, #3
100007430: 3f 0e 0c f1 	cmp	x17, #771
100007434: 62 02 00 54 	b.hs	0x100007480 <__ZN4core5slice4sort7recurse17h8d372cd56ce673b9E+0x678>
100007438: 08 3d 00 12 	and	w8, w8, #0xffff
10000743c: 69 55 95 52 	mov	w9, #43691
100007440: 08 7d 09 1b 	mul	w8, w8, w9
100007444: 08 7d 14 53 	lsr	w8, w8, #20
100007448: 9f 03 13 eb 	cmp	x28, x19
10000744c: e9 27 9f 1a 	cset	w9, lo
100007450: 1f 03 15 eb 	cmp	x24, x21
100007454: ea 27 9f 1a 	cset	w10, lo
100007458: 29 01 0a 2a 	orr	w9, w9, w10
10000745c: 0a 01 02 d1 	sub	x10, x8, #128
100007460: 3f 01 00 71 	cmp	w9, #0
100007464: 48 11 88 9a 	csel	x8, x10, x8, ne
100007468: 9f 03 13 eb 	cmp	x28, x19
10000746c: 0f 31 8f 9a 	csel	x15, x8, x15, lo
100007470: 10 32 88 9a 	csel	x16, x16, x8, lo
100007474: 69 00 00 37 	tbnz	w9, #0, 0x100007480 <__ZN4core5slice4sort7recurse17h8d372cd56ce673b9E+0x678>
100007478: 10 fd 41 d3 	lsr	x16, x8, #1
10000747c: 0f 01 10 cb 	sub	x15, x8, x16
100007480: 9f 03 13 eb 	cmp	x28, x19
100007484: a0 05 00 54 	b.eq	0x100007538 <__ZN4core5slice4sort7recurse17h8d372cd56ce673b9E+0x730>
100007488: 1f 03 15 eb 	cmp	x24, x21
10000748c: c0 09 00 54 	b.eq	0x1000075c4 <__ZN4core5slice4sort7recurse17h8d372cd56ce673b9E+0x7bc>
100007490: 68 02 1c cb 	sub	x8, x19, x28
100007494: a9 02 18 cb 	sub	x9, x21, x24
100007498: 1f 01 09 eb 	cmp	x8, x9
10000749c: 08 31 89 9a 	csel	x8, x8, x9, lo
1000074a0: 48 fb ff b4 	cbz	x8, 0x100007408 <__ZN4core5slice4sort7recurse17h8d372cd56ce673b9E+0x600>
1000074a4: 89 03 40 39 	ldrb	w9, [x28]
1000074a8: 29 59 0e 9b 	madd	x9, x9, x14, x22
1000074ac: 20 01 c0 3d 	ldr	q0, [x9]
1000074b0: 29 09 40 f9 	ldr	x9, [x9, #16]
1000074b4: a9 03 19 f8 	stur	x9, [x29, #-112]
1000074b8: a9 03 04 d1 	sub	x9, x29, #256
1000074bc: 20 21 80 3d 	str	q0, [x9, #128]
1000074c0: 0a 03 40 39 	ldrb	w10, [x24]
1000074c4: e9 03 2a aa 	mvn	x9, x10
1000074c8: 2b 6d 0e 9b 	madd	x11, x9, x14, x27
1000074cc: 8c 03 40 39 	ldrb	w12, [x28]
1000074d0: 8c 59 0e 9b 	madd	x12, x12, x14, x22
1000074d4: 6d 09 40 f9 	ldr	x13, [x11, #16]
1000074d8: 60 01 c0 3d 	ldr	q0, [x11]
1000074dc: 80 01 80 3d 	str	q0, [x12]
1000074e0: 8d 09 00 f9 	str	x13, [x12, #16]
1000074e4: 08 05 00 f1 	subs	x8, x8, #1
1000074e8: 00 f8 ff 54 	b.eq	0x1000073e8 <__ZN4core5slice4sort7recurse17h8d372cd56ce673b9E+0x5e0>
1000074ec: 89 1f 40 38 	ldrb	w9, [x28, #1]!
1000074f0: 2b 59 0e 9b 	madd	x11, x9, x14, x22
1000074f4: e9 03 2a 2a 	mvn	w9, w10
1000074f8: 29 dd 78 b2 	orr	x9, x9, #0xffffffffffffff00
1000074fc: 29 6d 0e 9b 	madd	x9, x9, x14, x27
100007500: 6a 09 40 f9 	ldr	x10, [x11, #16]
100007504: 60 01 c0 3d 	ldr	q0, [x11]
100007508: 20 01 80 3d 	str	q0, [x9]
10000750c: 2a 09 00 f9 	str	x10, [x9, #16]
100007510: 0a 1f 40 38 	ldrb	w10, [x24, #1]!
100007514: e9 03 2a aa 	mvn	x9, x10
100007518: 2c 6d 0e 9b 	madd	x12, x9, x14, x27
10000751c: 8d 09 40 f9 	ldr	x13, [x12, #16]
100007520: 80 01 c0 3d 	ldr	q0, [x12]
100007524: 60 01 80 3d 	str	q0, [x11]
100007528: 6d 09 00 f9 	str	x13, [x11, #16]
10000752c: 08 05 00 f1 	subs	x8, x8, #1
100007530: e1 fd ff 54 	b.ne	0x1000074ec <__ZN4core5slice4sort7recurse17h8d372cd56ce673b9E+0x6e4>
100007534: ad ff ff 17 	b	0x1000073e8 <__ZN4core5slice4sort7recurse17h8d372cd56ce673b9E+0x5e0>
100007538: f0 03 00 b4 	cbz	x16, 0x1000075b4 <__ZN4core5slice4sort7recurse17h8d372cd56ce673b9E+0x7ac>
10000753c: f1 db 04 a9 	stp	x17, x22, [sp, #72]
100007540: ef 17 00 f9 	str	x15, [sp, #40]
100007544: 08 00 80 d2 	mov	x8, #0
100007548: f3 83 02 91 	add	x19, sp, #160
10000754c: fc 03 16 aa 	mov	x28, x22
100007550: 19 05 00 91 	add	x25, x8, #1
100007554: 68 02 00 39 	strb	w8, [x19]
100007558: 80 a3 c1 a8 	ldp	x0, x8, [x28], #24
10000755c: 14 01 17 eb 	subs	x20, x8, x23
100007560: 02 31 97 9a 	csel	x2, x8, x23, lo
100007564: e1 03 1a aa 	mov	x1, x26
100007568: f6 03 10 aa 	mov	x22, x16
10000756c: 5c af 00 94 	bl	0x1000332dc <_write+0x1000332dc>
100007570: f0 03 16 aa 	mov	x16, x22
100007574: 08 7c 40 93 	sxtw	x8, w0
100007578: 1f 00 00 71 	cmp	w0, #0
10000757c: 88 02 88 9a 	csel	x8, x20, x8, eq
100007580: e8 03 28 aa 	mvn	x8, x8
100007584: 73 fe 48 8b 	add	x19, x19, x8, lsr #63
100007588: e8 03 19 aa 	mov	x8, x25
10000758c: df 02 19 eb 	cmp	x22, x25
100007590: 01 fe ff 54 	b.ne	0x100007550 <__ZN4core5slice4sort7recurse17h8d372cd56ce673b9E+0x748>
100007594: fc 83 02 91 	add	x28, sp, #160
100007598: 0e 03 80 52 	mov	w14, #24
10000759c: f9 1f 40 f9 	ldr	x25, [sp, #56]
1000075a0: ef 17 40 f9 	ldr	x15, [sp, #40]
1000075a4: f1 db 44 a9 	ldp	x17, x22, [sp, #72]
1000075a8: 1f 03 15 eb 	cmp	x24, x21
1000075ac: 21 f7 ff 54 	b.ne	0x100007490 <__ZN4core5slice4sort7recurse17h8d372cd56ce673b9E+0x688>
1000075b0: 05 00 00 14 	b	0x1000075c4 <__ZN4core5slice4sort7recurse17h8d372cd56ce673b9E+0x7bc>
1000075b4: f3 83 02 91 	add	x19, sp, #160
1000075b8: fc 83 02 91 	add	x28, sp, #160
1000075bc: 1f 03 15 eb 	cmp	x24, x21
1000075c0: 81 f6 ff 54 	b.ne	0x100007490 <__ZN4core5slice4sort7recurse17h8d372cd56ce673b9E+0x688>
1000075c4: 6f 04 00 b4 	cbz	x15, 0x100007650 <__ZN4core5slice4sort7recurse17h8d372cd56ce673b9E+0x848>
1000075c8: f1 db 04 a9 	stp	x17, x22, [sp, #72]
1000075cc: f0 17 00 f9 	str	x16, [sp, #40]
1000075d0: 08 00 80 d2 	mov	x8, #0
1000075d4: 78 63 00 d1 	sub	x24, x27, #24
1000075d8: b5 03 04 d1 	sub	x21, x29, #256
1000075dc: 14 05 00 91 	add	x20, x8, #1
1000075e0: a8 02 00 39 	strb	w8, [x21]
1000075e4: 00 a3 fe a8 	ldp	x0, x8, [x24], #-24
1000075e8: 19 01 17 eb 	subs	x25, x8, x23
1000075ec: 02 31 97 9a 	csel	x2, x8, x23, lo
1000075f0: e1 03 1a aa 	mov	x1, x26
1000075f4: f6 03 1a aa 	mov	x22, x26
1000075f8: fa 03 0f aa 	mov	x26, x15
1000075fc: 38 af 00 94 	bl	0x1000332dc <_write+0x1000332dc>
100007600: ef 03 1a aa 	mov	x15, x26
100007604: fa 03 16 aa 	mov	x26, x22
100007608: 08 7c 40 93 	sxtw	x8, w0
10000760c: 1f 00 00 71 	cmp	w0, #0
100007610: 28 03 88 9a 	csel	x8, x25, x8, eq
100007614: b5 fe 48 8b 	add	x21, x21, x8, lsr #63
100007618: e8 03 14 aa 	mov	x8, x20
10000761c: ff 01 14 eb 	cmp	x15, x20
100007620: e1 fd ff 54 	b.ne	0x1000075dc <__ZN4core5slice4sort7recurse17h8d372cd56ce673b9E+0x7d4>
100007624: b8 03 04 d1 	sub	x24, x29, #256
100007628: 0e 03 80 52 	mov	w14, #24
10000762c: f9 1f 40 f9 	ldr	x25, [sp, #56]
100007630: f1 db 44 a9 	ldp	x17, x22, [sp, #72]
100007634: f0 17 40 f9 	ldr	x16, [sp, #40]
100007638: 68 02 1c cb 	sub	x8, x19, x28
10000763c: a9 02 18 cb 	sub	x9, x21, x24
100007640: 1f 01 09 eb 	cmp	x8, x9
100007644: 08 31 89 9a 	csel	x8, x8, x9, lo
100007648: e8 f2 ff b5 	cbnz	x8, 0x1000074a4 <__ZN4core5slice4sort7recurse17h8d372cd56ce673b9E+0x69c>
10000764c: 6f ff ff 17 	b	0x100007408 <__ZN4core5slice4sort7recurse17h8d372cd56ce673b9E+0x600>
100007650: b5 03 04 d1 	sub	x21, x29, #256
100007654: b8 03 04 d1 	sub	x24, x29, #256
100007658: 68 02 1c cb 	sub	x8, x19, x28
10000765c: a9 02 18 cb 	sub	x9, x21, x24
100007660: 1f 01 09 eb 	cmp	x8, x9
100007664: 08 31 89 9a 	csel	x8, x8, x9, lo
100007668: e8 f1 ff b5 	cbnz	x8, 0x1000074a4 <__ZN4core5slice4sort7recurse17h8d372cd56ce673b9E+0x69c>
10000766c: 67 ff ff 17 	b	0x100007408 <__ZN4core5slice4sort7recurse17h8d372cd56ce673b9E+0x600>
100007670: 9f 03 13 eb 	cmp	x28, x19
100007674: ab 03 04 d1 	sub	x11, x29, #256
100007678: e2 08 00 54 	b.hs	0x100007794 <__ZN4core5slice4sort7recurse17h8d372cd56ce673b9E+0x98c>
10000767c: 68 fe 5f 38 	ldrb	w8, [x19, #-1]!
100007680: 09 59 0e 9b 	madd	x9, x8, x14, x22
100007684: 68 63 00 d1 	sub	x8, x27, #24
100007688: 20 01 c0 3d 	ldr	q0, [x9]
10000768c: 2a 09 40 f9 	ldr	x10, [x9, #16]
100007690: aa 03 19 f8 	stur	x10, [x29, #-112]
100007694: 60 21 80 3d 	str	q0, [x11, #128]
100007698: 60 83 de 3c 	ldur	q0, [x27, #-24]
10000769c: 6a 83 5f f8 	ldur	x10, [x27, #-8]
1000076a0: 2a 09 00 f9 	str	x10, [x9, #16]
1000076a4: 20 01 80 3d 	str	q0, [x9]
1000076a8: 60 21 c0 3d 	ldr	q0, [x11, #128]
1000076ac: a9 03 59 f8 	ldur	x9, [x29, #-112]
1000076b0: 69 83 1f f8 	stur	x9, [x27, #-8]
1000076b4: 60 83 9e 3c 	stur	q0, [x27, #-24]
1000076b8: fb 03 08 aa 	mov	x27, x8
1000076bc: 9f 03 13 eb 	cmp	x28, x19
1000076c0: e3 fd ff 54 	b.lo	0x10000767c <__ZN4core5slice4sort7recurse17h8d372cd56ce673b9E+0x874>
1000076c4: 0a 03 80 52 	mov	w10, #24
1000076c8: e9 d3 40 a9 	ldp	x9, x20, [sp, #8]
1000076cc: 08 01 09 cb 	sub	x8, x8, x9
1000076d0: e9 f3 01 b2 	mov	x9, #-6148914691236517206
1000076d4: 69 55 95 f2 	movk	x9, #43691
1000076d8: 08 7d c9 9b 	umulh	x8, x8, x9
1000076dc: e0 23 c0 3d 	ldr	q0, [sp, #128]
1000076e0: e9 4b 40 f9 	ldr	x9, [sp, #144]
1000076e4: 3a 13 48 8b 	add	x26, x25, x8, lsr #4
1000076e8: 89 0a 00 f9 	str	x9, [x20, #16]
1000076ec: 80 02 80 3d 	str	q0, [x20]
1000076f0: e1 0f 40 f9 	ldr	x1, [sp, #24]
1000076f4: 28 00 1a eb 	subs	x8, x1, x26
1000076f8: e9 0b 00 54 	b.ls	0x100007874 <__ZN4core5slice4sort7recurse17h8d372cd56ce673b9E+0xa6c>
1000076fc: e9 03 40 f9 	ldr	x9, [sp]
100007700: 3f 01 19 eb 	cmp	x9, x25
100007704: f3 87 9f 1a 	cset	w19, ls
100007708: 5c 53 0a 9b 	madd	x28, x26, x10, x20
10000770c: 80 02 c0 3d 	ldr	q0, [x20]
100007710: 89 0a 40 f9 	ldr	x9, [x20, #16]
100007714: a9 03 11 f8 	stur	x9, [x29, #-240]
100007718: 60 01 80 3d 	str	q0, [x11]
10000771c: 80 03 c0 3d 	ldr	q0, [x28]
100007720: 89 0b 40 f9 	ldr	x9, [x28, #16]
100007724: 89 0a 00 f9 	str	x9, [x20, #16]
100007728: 80 02 80 3d 	str	q0, [x20]
10000772c: 60 01 c0 3d 	ldr	q0, [x11]
100007730: a9 03 51 f8 	ldur	x9, [x29, #-240]
100007734: 89 0b 00 f9 	str	x9, [x28, #16]
100007738: 80 03 80 3d 	str	q0, [x28]
10000773c: 5f 03 08 eb 	cmp	x26, x8
100007740: 49 33 88 9a 	csel	x9, x26, x8, lo
100007744: 3f 0d 41 eb 	cmp	x9, x1, lsr #3
100007748: e9 37 9f 1a 	cset	w9, hs
10000774c: e9 3b 00 b9 	str	w9, [sp, #56]
100007750: 97 63 00 91 	add	x23, x28, #24
100007754: 19 05 00 d1 	sub	x25, x8, #1
100007758: 5f 03 19 eb 	cmp	x26, x25
10000775c: 62 04 00 54 	b.hs	0x1000077e8 <__ZN4core5slice4sort7recurse17h8d372cd56ce673b9E+0x9e0>
100007760: e0 03 14 aa 	mov	x0, x20
100007764: e1 03 1a aa 	mov	x1, x26
100007768: e2 1b 40 f9 	ldr	x2, [sp, #48]
10000776c: e3 13 40 f9 	ldr	x3, [sp, #32]
100007770: e4 47 40 b9 	ldr	w4, [sp, #68]
100007774: a5 fd ff 97 	bl	0x100006e08 <__ZN4core5slice4sort7recurse17h8d372cd56ce673b9E>
100007778: fa 03 19 aa 	mov	x26, x25
10000777c: f8 03 17 aa 	mov	x24, x23
100007780: f7 67 01 a9 	stp	x23, x25, [sp, #16]
100007784: 3f 57 00 f1 	cmp	x25, #21
100007788: b6 03 04 d1 	sub	x22, x29, #256
10000778c: a2 be ff 54 	b.hs	0x100006f60 <__ZN4core5slice4sort7recurse17h8d372cd56ce673b9E+0x158>
100007790: ac fd ff 17 	b	0x100006e40 <__ZN4core5slice4sort7recurse17h8d372cd56ce673b9E+0x38>
100007794: e8 03 16 aa 	mov	x8, x22
100007798: 1f 03 15 eb 	cmp	x24, x21
10000779c: 42 f9 ff 54 	b.hs	0x1000076c4 <__ZN4core5slice4sort7recurse17h8d372cd56ce673b9E+0x8bc>
1000077a0: a9 fe 5f 38 	ldrb	w9, [x21, #-1]!
1000077a4: e9 03 29 aa 	mvn	x9, x9
1000077a8: 29 6d 0e 9b 	madd	x9, x9, x14, x27
1000077ac: 00 01 c0 3d 	ldr	q0, [x8]
1000077b0: 0a 09 40 f9 	ldr	x10, [x8, #16]
1000077b4: aa 03 19 f8 	stur	x10, [x29, #-112]
1000077b8: 60 21 80 3d 	str	q0, [x11, #128]
1000077bc: 20 01 c0 3d 	ldr	q0, [x9]
1000077c0: 2a 09 40 f9 	ldr	x10, [x9, #16]
1000077c4: 0a 09 00 f9 	str	x10, [x8, #16]
1000077c8: 00 85 81 3c 	str	q0, [x8], #24
1000077cc: 60 21 c0 3d 	ldr	q0, [x11, #128]
1000077d0: aa 03 59 f8 	ldur	x10, [x29, #-112]
1000077d4: 2a 09 00 f9 	str	x10, [x9, #16]
1000077d8: 20 01 80 3d 	str	q0, [x9]
1000077dc: 1f 03 15 eb 	cmp	x24, x21
1000077e0: 03 fe ff 54 	b.lo	0x1000077a0 <__ZN4core5slice4sort7recurse17h8d372cd56ce673b9E+0x998>
1000077e4: b8 ff ff 17 	b	0x1000076c4 <__ZN4core5slice4sort7recurse17h8d372cd56ce673b9E+0x8bc>
1000077e8: e0 03 17 aa 	mov	x0, x23
1000077ec: e1 03 19 aa 	mov	x1, x25
1000077f0: e2 1b 40 f9 	ldr	x2, [sp, #48]
1000077f4: e3 03 1c aa 	mov	x3, x28
1000077f8: e4 47 40 b9 	ldr	w4, [sp, #68]
1000077fc: 83 fd ff 97 	bl	0x100006e08 <__ZN4core5slice4sort7recurse17h8d372cd56ce673b9E>
100007800: f8 03 14 aa 	mov	x24, x20
100007804: fc 13 40 f9 	ldr	x28, [sp, #32]
100007808: f4 6b 01 a9 	stp	x20, x26, [sp, #16]
10000780c: 5f 57 00 f1 	cmp	x26, #21
100007810: b6 03 04 d1 	sub	x22, x29, #256
100007814: 62 ba ff 54 	b.hs	0x100006f60 <__ZN4core5slice4sort7recurse17h8d372cd56ce673b9E+0x158>
100007818: 8a fd ff 17 	b	0x100006e40 <__ZN4core5slice4sort7recurse17h8d372cd56ce673b9E+0x38>
10000781c: e0 03 18 aa 	mov	x0, x24
100007820: e1 03 19 aa 	mov	x1, x25
100007824: e2 1b 40 f9 	ldr	x2, [sp, #48]
100007828: 46 a9 00 94 	bl	0x100031d40 <__ZN4core5slice4sort8heapsort17h3c057fe104e58584E>
10000782c: ff 43 07 91 	add	sp, sp, #464
100007830: fd 7b 45 a9 	ldp	x29, x30, [sp, #80]
100007834: f4 4f 44 a9 	ldp	x20, x19, [sp, #64]
100007838: f6 57 43 a9 	ldp	x22, x21, [sp, #48]
10000783c: f8 5f 42 a9 	ldp	x24, x23, [sp, #32]
100007840: fa 67 41 a9 	ldp	x26, x25, [sp, #16]
100007844: fc 6f c6 a8 	ldp	x28, x27, [sp], #96
100007848: c0 03 5f d6 	ret
10000784c: a2 5a 1c 10 	adr	x2, #232276
100007850: 1f 20 03 d5 	nop
100007854: e0 03 1a aa 	mov	x0, x26
100007858: e1 03 19 aa 	mov	x1, x25
10000785c: e3 ad 00 94 	bl	0x100032fe8 <__ZN4core9panicking18panic_bounds_check17h1dcb29c14d8acf38E>
100007860: c2 5d 1c 10 	adr	x2, #232376
100007864: 1f 20 03 d5 	nop
100007868: e0 03 1a aa 	mov	x0, x26
10000786c: e1 03 19 aa 	mov	x1, x25
100007870: de ad 00 94 	bl	0x100032fe8 <__ZN4core9panicking18panic_bounds_check17h1dcb29c14d8acf38E>
100007874: a2 5e 1c 10 	adr	x2, #232404
100007878: 1f 20 03 d5 	nop
10000787c: e0 03 1a aa 	mov	x0, x26
100007880: da ad 00 94 	bl	0x100032fe8 <__ZN4core9panicking18panic_bounds_check17h1dcb29c14d8acf38E>
100007884: a2 5c 1c 10 	adr	x2, #232340
100007888: 1f 20 03 d5 	nop
10000788c: 00 00 80 d2 	mov	x0, #0
100007890: 01 00 80 d2 	mov	x1, #0
100007894: d5 ad 00 94 	bl	0x100032fe8 <__ZN4core9panicking18panic_bounds_check17h1dcb29c14d8acf38E>
100007898: 02 59 1c 10 	adr	x2, #232224
10000789c: 1f 20 03 d5 	nop
1000078a0: e1 03 19 aa 	mov	x1, x25
1000078a4: 20 ae 00 94 	bl	0x100033124 <__ZN4core5slice5index26slice_start_index_len_fail17h8b035d44bb631b40E>
1000078a8: 42 5c 1c 10 	adr	x2, #232328
1000078ac: 1f 20 03 d5 	nop
1000078b0: e0 03 40 f9 	ldr	x0, [sp]
1000078b4: e1 03 1b aa 	mov	x1, x27
1000078b8: 1e ae 00 94 	bl	0x100033130 <__ZN4core5slice5index24slice_end_index_len_fail17h43cb976450df7ff7E>
1000078bc: 06 00 00 14 	b	0x1000078d4 <__ZN4core5slice4sort7recurse17h8d372cd56ce673b9E+0xacc>
1000078c0: 82 5b 1c 10 	adr	x2, #232304
1000078c4: 1f 20 03 d5 	nop
1000078c8: e0 03 19 aa 	mov	x0, x25
1000078cc: e1 03 13 aa 	mov	x1, x19
1000078d0: 1b ae 00 94 	bl	0x10003313c <__ZN4core5slice5index22slice_index_order_fail17he3be83252d5beb3cE>
1000078d4: 20 00 20 d4 	brk	#0x1
1000078d8: 01 00 00 14 	b	0x1000078dc <__ZN4core5slice4sort7recurse17h8d372cd56ce673b9E+0xad4>
1000078dc: f4 03 00 aa 	mov	x20, x0
1000078e0: e0 03 02 91 	add	x0, sp, #128
1000078e4: e1 0b 40 f9 	ldr	x1, [sp, #16]
1000078e8: ee f8 ff 97 	bl	0x100005ca0 <__ZN4core3ptr88drop_in_place$LT$core..slice..sort..CopyOnDrop$LT$$LP$$RF$$u5b$u8$u5d$$C$u64$RP$$GT$$GT$17h6191ff4e3967c590E>
1000078ec: e0 03 14 aa 	mov	x0, x20
1000078f0: 42 ae 00 94 	bl	0x1000331f8 <_write+0x1000331f8>

00000001000078f4 <__ZN4core5slice4sort7recurse17hb5e6567a348f40cbE>:
1000078f4: ff 43 07 d1 	sub	sp, sp, #464
1000078f8: fc 6f 17 a9 	stp	x28, x27, [sp, #368]
1000078fc: fa 67 18 a9 	stp	x26, x25, [sp, #384]
100007900: f8 5f 19 a9 	stp	x24, x23, [sp, #400]
100007904: f6 57 1a a9 	stp	x22, x21, [sp, #416]
100007908: f4 4f 1b a9 	stp	x20, x19, [sp, #432]
10000790c: fd 7b 1c a9 	stp	x29, x30, [sp, #448]
100007910: fd 03 07 91 	add	x29, sp, #448
100007914: e2 07 00 f9 	str	x2, [sp, #8]
100007918: f7 03 01 aa 	mov	x23, x1
10000791c: f3 03 00 aa 	mov	x19, x0
100007920: 3f 54 00 f1 	cmp	x1, #21
100007924: a2 06 00 54 	b.hs	0x1000079f8 <__ZN4core5slice4sort7recurse17hb5e6567a348f40cbE+0x104>
100007928: fa 03 17 aa 	mov	x26, x23
10000792c: f8 03 13 aa 	mov	x24, x19
100007930: 5f 0b 00 f1 	cmp	x26, #2
100007934: 23 48 00 54 	b.lo	0x100008238 <__ZN4core5slice4sort7recurse17hb5e6567a348f40cbE+0x944>
100007938: 08 00 80 d2 	mov	x8, #0
10000793c: 29 00 80 52 	mov	w9, #1
100007940: 0a 05 80 52 	mov	w10, #40
100007944: eb 03 18 aa 	mov	x11, x24
100007948: 0b 00 00 14 	b	0x100007974 <__ZN4core5slice4sort7recurse17hb5e6567a348f40cbE+0x80>
10000794c: ed 03 18 aa 	mov	x13, x24
100007950: ac 01 00 f9 	str	x12, [x13]
100007954: e0 07 46 ad 	ldp	q0, q1, [sp, #192]
100007958: a1 81 81 3c 	stur	q1, [x13, #24]
10000795c: a0 81 80 3c 	stur	q0, [x13, #8]
100007960: 29 05 00 91 	add	x9, x9, #1
100007964: 6b a1 00 91 	add	x11, x11, #40
100007968: 08 05 00 d1 	sub	x8, x8, #1
10000796c: 3f 01 1a eb 	cmp	x9, x26
100007970: 40 46 00 54 	b.eq	0x100008238 <__ZN4core5slice4sort7recurse17hb5e6567a348f40cbE+0x944>
100007974: 2e 61 0a 9b 	madd	x14, x9, x10, x24
100007978: ed 03 0e aa 	mov	x13, x14
10000797c: af 8d 5d f8 	ldr	x15, [x13, #-40]!
100007980: cc 01 40 f9 	ldr	x12, [x14]
100007984: 9f 01 0f eb 	cmp	x12, x15
100007988: c2 fe ff 54 	b.hs	0x100007960 <__ZN4core5slice4sort7recurse17hb5e6567a348f40cbE+0x6c>
10000798c: c0 81 c0 3c 	ldur	q0, [x14, #8]
100007990: c1 81 c1 3c 	ldur	q1, [x14, #24]
100007994: e0 07 06 ad 	stp	q0, q1, [sp, #192]
100007998: a0 05 40 ad 	ldp	q0, q1, [x13]
10000799c: c0 05 00 ad 	stp	q0, q1, [x14]
1000079a0: af 11 40 f9 	ldr	x15, [x13, #32]
1000079a4: cf 11 00 f9 	str	x15, [x14, #32]
1000079a8: 2f 05 00 d1 	sub	x15, x9, #1
1000079ac: 2f fd ff b4 	cbz	x15, 0x100007950 <__ZN4core5slice4sort7recurse17hb5e6567a348f40cbE+0x5c>
1000079b0: d0 01 5b f8 	ldur	x16, [x14, #-80]
1000079b4: ee 03 08 aa 	mov	x14, x8
1000079b8: ef 03 0b aa 	mov	x15, x11
1000079bc: 9f 01 10 eb 	cmp	x12, x16
1000079c0: 82 fc ff 54 	b.hs	0x100007950 <__ZN4core5slice4sort7recurse17hb5e6567a348f40cbE+0x5c>
1000079c4: e0 81 dd 3c 	ldur	q0, [x15, #-40]
1000079c8: e1 81 de 3c 	ldur	q1, [x15, #-24]
1000079cc: e0 05 00 ad 	stp	q0, q1, [x15]
1000079d0: ed 81 5f f8 	ldur	x13, [x15, #-8]
1000079d4: ed 11 00 f9 	str	x13, [x15, #32]
1000079d8: ce 05 00 b1 	adds	x14, x14, #1
1000079dc: 82 fb ff 54 	b.hs	0x10000794c <__ZN4core5slice4sort7recurse17hb5e6567a348f40cbE+0x58>
1000079e0: ed a1 00 d1 	sub	x13, x15, #40
1000079e4: f0 01 5b f8 	ldur	x16, [x15, #-80]
1000079e8: ef 03 0d aa 	mov	x15, x13
1000079ec: 9f 01 10 eb 	cmp	x12, x16
1000079f0: a3 fe ff 54 	b.lo	0x1000079c4 <__ZN4core5slice4sort7recurse17hb5e6567a348f40cbE+0xd0>
1000079f4: d7 ff ff 17 	b	0x100007950 <__ZN4core5slice4sort7recurse17hb5e6567a348f40cbE+0x5c>
1000079f8: f5 03 04 aa 	mov	x21, x4
1000079fc: f6 03 03 aa 	mov	x22, x3
100007a00: 21 00 80 52 	mov	w1, #1
100007a04: 1c 05 80 52 	mov	w28, #40
100007a08: 3b 00 80 52 	mov	w27, #1
100007a0c: 34 00 80 52 	mov	w20, #1
100007a10: 74 03 14 0a 	and	w20, w27, w20
100007a14: f8 03 13 aa 	mov	x24, x19
100007a18: f9 03 17 aa 	mov	x25, x23
100007a1c: 75 40 00 34 	cbz	w21, 0x100008228 <__ZN4core5slice4sort7recurse17hb5e6567a348f40cbE+0x934>
100007a20: 1b 08 00 36 	tbz	w27, #0, 0x100007b20 <__ZN4core5slice4sort7recurse17hb5e6567a348f40cbE+0x22c>
100007a24: 29 ff 42 d3 	lsr	x9, x25, #2
100007a28: 2a f9 7f d3 	lsl	x10, x9, #1
100007a2c: 48 01 09 8b 	add	x8, x10, x9
100007a30: 3f c7 00 f1 	cmp	x25, #49
100007a34: a9 08 00 54 	b.ls	0x100007b48 <__ZN4core5slice4sort7recurse17hb5e6567a348f40cbE+0x254>
100007a38: 2b 05 00 d1 	sub	x11, x9, #1
100007a3c: 2c 05 00 91 	add	x12, x9, #1
100007a40: 2d 61 1c 9b 	madd	x13, x9, x28, x24
100007a44: ae 01 40 f9 	ldr	x14, [x13]
100007a48: af 81 5d f8 	ldur	x15, [x13, #-40]
100007a4c: df 01 0f eb 	cmp	x14, x15
100007a50: f0 21 8e 9a 	csel	x16, x15, x14, hs
100007a54: f1 23 81 9a 	csel	x17, xzr, x1, hs
100007a58: 20 21 8b 9a 	csel	x0, x9, x11, hs
100007a5c: 69 21 89 9a 	csel	x9, x11, x9, hs
100007a60: cb 21 8f 9a 	csel	x11, x14, x15, hs
100007a64: ad 15 40 f9 	ldr	x13, [x13, #40]
100007a68: bf 01 0b eb 	cmp	x13, x11
100007a6c: 8c 31 80 9a 	csel	x12, x12, x0, lo
100007a70: 2e 26 91 9a 	cinc	x14, x17, lo
100007a74: ab 31 8b 9a 	csel	x11, x13, x11, lo
100007a78: 7f 01 10 eb 	cmp	x11, x16
100007a7c: 29 31 8c 9a 	csel	x9, x9, x12, lo
100007a80: cb 25 8e 9a 	cinc	x11, x14, lo
100007a84: 4c 05 00 d1 	sub	x12, x10, #1
100007a88: 4d 01 40 b2 	orr	x13, x10, #0x1
100007a8c: 4e 61 1c 9b 	madd	x14, x10, x28, x24
100007a90: cf 01 40 f9 	ldr	x15, [x14]
100007a94: d0 81 5d f8 	ldur	x16, [x14, #-40]
100007a98: ff 01 10 eb 	cmp	x15, x16
100007a9c: 11 22 8f 9a 	csel	x17, x16, x15, hs
100007aa0: 6b 25 8b 9a 	cinc	x11, x11, lo
100007aa4: 40 21 8c 9a 	csel	x0, x10, x12, hs
100007aa8: 8a 21 8a 9a 	csel	x10, x12, x10, hs
100007aac: ec 21 90 9a 	csel	x12, x15, x16, hs
100007ab0: ce 15 40 f9 	ldr	x14, [x14, #40]
100007ab4: df 01 0c eb 	cmp	x14, x12
100007ab8: ad 31 80 9a 	csel	x13, x13, x0, lo
100007abc: 6b 25 8b 9a 	cinc	x11, x11, lo
100007ac0: cc 31 8c 9a 	csel	x12, x14, x12, lo
100007ac4: 9f 01 11 eb 	cmp	x12, x17
100007ac8: 4a 31 8d 9a 	csel	x10, x10, x13, lo
100007acc: 6b 25 8b 9a 	cinc	x11, x11, lo
100007ad0: 0c 05 00 d1 	sub	x12, x8, #1
100007ad4: 0d 05 00 91 	add	x13, x8, #1
100007ad8: 0e 61 1c 9b 	madd	x14, x8, x28, x24
100007adc: cf 01 40 f9 	ldr	x15, [x14]
100007ae0: d0 81 5d f8 	ldur	x16, [x14, #-40]
100007ae4: ff 01 10 eb 	cmp	x15, x16
100007ae8: 11 22 8f 9a 	csel	x17, x16, x15, hs
100007aec: 6b 25 8b 9a 	cinc	x11, x11, lo
100007af0: 00 21 8c 9a 	csel	x0, x8, x12, hs
100007af4: 88 21 88 9a 	csel	x8, x12, x8, hs
100007af8: ec 21 90 9a 	csel	x12, x15, x16, hs
100007afc: ce 15 40 f9 	ldr	x14, [x14, #40]
100007b00: df 01 0c eb 	cmp	x14, x12
100007b04: ad 31 80 9a 	csel	x13, x13, x0, lo
100007b08: 6b 25 8b 9a 	cinc	x11, x11, lo
100007b0c: cc 31 8c 9a 	csel	x12, x14, x12, lo
100007b10: 9f 01 11 eb 	cmp	x12, x17
100007b14: 08 31 8d 9a 	csel	x8, x8, x13, lo
100007b18: 6b 25 8b 9a 	cinc	x11, x11, lo
100007b1c: 0c 00 00 14 	b	0x100007b4c <__ZN4core5slice4sort7recurse17hb5e6567a348f40cbE+0x258>
100007b20: e0 03 18 aa 	mov	x0, x24
100007b24: e1 03 19 aa 	mov	x1, x25
100007b28: 83 a5 00 94 	bl	0x100031134 <__ZN4core5slice4sort14break_patterns17h81f3cca195e72015E>
100007b2c: 21 00 80 52 	mov	w1, #1
100007b30: b5 06 00 51 	sub	w21, w21, #1
100007b34: 29 ff 42 d3 	lsr	x9, x25, #2
100007b38: 2a f9 7f d3 	lsl	x10, x9, #1
100007b3c: 48 01 09 8b 	add	x8, x10, x9
100007b40: 3f c7 00 f1 	cmp	x25, #49
100007b44: a8 f7 ff 54 	b.hi	0x100007a38 <__ZN4core5slice4sort7recurse17hb5e6567a348f40cbE+0x144>
100007b48: 0b 00 80 d2 	mov	x11, #0
100007b4c: 4c 7d 1c 9b 	mul	x12, x10, x28
100007b50: 2d 7d 1c 9b 	mul	x13, x9, x28
100007b54: 0c 6b 6c f8 	ldr	x12, [x24, x12]
100007b58: 0d 6b 6d f8 	ldr	x13, [x24, x13]
100007b5c: 9f 01 0d eb 	cmp	x12, x13
100007b60: ae 21 8c 9a 	csel	x14, x13, x12, hs
100007b64: 6b 25 8b 9a 	cinc	x11, x11, lo
100007b68: 4f 21 89 9a 	csel	x15, x10, x9, hs
100007b6c: 3a 21 8a 9a 	csel	x26, x9, x10, hs
100007b70: 09 7d 1c 9b 	mul	x9, x8, x28
100007b74: 0a 6b 69 f8 	ldr	x10, [x24, x9]
100007b78: 8c 21 8d 9a 	csel	x12, x12, x13, hs
100007b7c: 5f 01 0c eb 	cmp	x10, x12
100007b80: 09 31 8f 9a 	csel	x9, x8, x15, lo
100007b84: 68 25 8b 9a 	cinc	x8, x11, lo
100007b88: 4a 31 8c 9a 	csel	x10, x10, x12, lo
100007b8c: 5f 01 0e eb 	cmp	x10, x14
100007b90: 22 01 00 54 	b.hs	0x100007bb4 <__ZN4core5slice4sort7recurse17hb5e6567a348f40cbE+0x2c0>
100007b94: 1f 2d 00 f1 	cmp	x8, #11
100007b98: a2 01 00 54 	b.hs	0x100007bcc <__ZN4core5slice4sort7recurse17hb5e6567a348f40cbE+0x2d8>
100007b9c: 08 05 00 91 	add	x8, x8, #1
100007ba0: 1f 01 00 f1 	cmp	x8, #0
100007ba4: e8 17 9f 1a 	cset	w8, eq
100007ba8: 88 02 08 0a 	and	w8, w20, w8
100007bac: 28 04 00 36 	tbz	w8, #0, 0x100007c30 <__ZN4core5slice4sort7recurse17hb5e6567a348f40cbE+0x33c>
100007bb0: 6d 00 00 14 	b	0x100007d64 <__ZN4core5slice4sort7recurse17hb5e6567a348f40cbE+0x470>
100007bb4: fa 03 09 aa 	mov	x26, x9
100007bb8: 1f 01 00 f1 	cmp	x8, #0
100007bbc: e8 17 9f 1a 	cset	w8, eq
100007bc0: 88 02 08 0a 	and	w8, w20, w8
100007bc4: 68 03 00 36 	tbz	w8, #0, 0x100007c30 <__ZN4core5slice4sort7recurse17hb5e6567a348f40cbE+0x33c>
100007bc8: 67 00 00 14 	b	0x100007d64 <__ZN4core5slice4sort7recurse17hb5e6567a348f40cbE+0x470>
100007bcc: 08 00 80 d2 	mov	x8, #0
100007bd0: 29 ff 41 d3 	lsr	x9, x25, #1
100007bd4: 2a 0b 19 8b 	add	x10, x25, x25, lsl #2
100007bd8: 4a f1 7d d3 	lsl	x10, x10, #3
100007bdc: 0b 03 0a 8b 	add	x11, x24, x10
100007be0: 6c 81 5d f8 	ldur	x12, [x11, #-40]
100007be4: 0d 03 08 8b 	add	x13, x24, x8
100007be8: a0 05 40 ad 	ldp	q0, q1, [x13]
100007bec: 62 0d 7f ad 	ldp	q2, q3, [x11, #-32]
100007bf0: 60 81 9d 3c 	stur	q0, [x11, #-40]
100007bf4: ac 01 00 f9 	str	x12, [x13]
100007bf8: a2 81 80 3c 	stur	q2, [x13, #8]
100007bfc: ac 11 40 f9 	ldr	x12, [x13, #32]
100007c00: 61 81 9e 3c 	stur	q1, [x11, #-24]
100007c04: a3 81 81 3c 	stur	q3, [x13, #24]
100007c08: 6c 81 1f f8 	stur	x12, [x11, #-8]
100007c0c: 08 a1 00 91 	add	x8, x8, #40
100007c10: 4a a1 00 d1 	sub	x10, x10, #40
100007c14: 29 05 00 d1 	sub	x9, x9, #1
100007c18: 29 fe ff b5 	cbnz	x9, 0x100007bdc <__ZN4core5slice4sort7recurse17hb5e6567a348f40cbE+0x2e8>
100007c1c: e8 03 3a aa 	mvn	x8, x26
100007c20: 3a 03 08 8b 	add	x26, x25, x8
100007c24: 28 00 80 52 	mov	w8, #1
100007c28: 88 02 08 0a 	and	w8, w20, w8
100007c2c: c8 09 00 37 	tbnz	w8, #0, 0x100007d64 <__ZN4core5slice4sort7recurse17hb5e6567a348f40cbE+0x470>
100007c30: b6 0a 00 b4 	cbz	x22, 0x100007d84 <__ZN4core5slice4sort7recurse17hb5e6567a348f40cbE+0x490>
100007c34: 5f 03 19 eb 	cmp	x26, x25
100007c38: 02 31 00 54 	b.hs	0x100008258 <__ZN4core5slice4sort7recurse17hb5e6567a348f40cbE+0x964>
100007c3c: 49 63 1c 9b 	madd	x9, x26, x28, x24
100007c40: c8 02 40 f9 	ldr	x8, [x22]
100007c44: 2a 01 40 f9 	ldr	x10, [x9]
100007c48: 1f 01 0a eb 	cmp	x8, x10
100007c4c: 83 09 00 54 	b.lo	0x100007d7c <__ZN4core5slice4sort7recurse17hb5e6567a348f40cbE+0x488>
100007c50: 08 00 80 d2 	mov	x8, #0
100007c54: 00 07 40 ad 	ldp	q0, q1, [x24]
100007c58: 0a 13 40 f9 	ldr	x10, [x24, #32]
100007c5c: ea 73 00 f9 	str	x10, [sp, #224]
100007c60: e0 07 06 ad 	stp	q0, q1, [sp, #192]
100007c64: 2a 11 40 f9 	ldr	x10, [x9, #32]
100007c68: 20 05 40 ad 	ldp	q0, q1, [x9]
100007c6c: 0a 13 00 f9 	str	x10, [x24, #32]
100007c70: 00 07 00 ad 	stp	q0, q1, [x24]
100007c74: e0 07 46 ad 	ldp	q0, q1, [sp, #192]
100007c78: ea 73 40 f9 	ldr	x10, [sp, #224]
100007c7c: 2a 11 00 f9 	str	x10, [x9, #32]
100007c80: 20 05 00 ad 	stp	q0, q1, [x9]
100007c84: 0b a3 00 91 	add	x11, x24, #40
100007c88: 0a 03 40 f9 	ldr	x10, [x24]
100007c8c: 09 23 00 91 	add	x9, x24, #8
100007c90: 00 83 c0 3c 	ldur	q0, [x24, #8]
100007c94: 01 83 c1 3c 	ldur	q1, [x24, #24]
100007c98: e0 07 02 ad 	stp	q0, q1, [sp, #64]
100007c9c: ec 03 19 aa 	mov	x12, x25
100007ca0: 2d 07 00 d1 	sub	x13, x25, #1
100007ca4: 1f 01 0d eb 	cmp	x8, x13
100007ca8: 42 01 00 54 	b.hs	0x100007cd0 <__ZN4core5slice4sort7recurse17hb5e6567a348f40cbE+0x3dc>
100007cac: 0e 2d 1c 9b 	madd	x14, x8, x28, x11
100007cb0: cf 01 40 f9 	ldr	x15, [x14]
100007cb4: 5f 01 0f eb 	cmp	x10, x15
100007cb8: c3 00 00 54 	b.lo	0x100007cd0 <__ZN4core5slice4sort7recurse17hb5e6567a348f40cbE+0x3dc>
100007cbc: 08 05 00 91 	add	x8, x8, #1
100007cc0: ce a1 00 91 	add	x14, x14, #40
100007cc4: bf 01 08 eb 	cmp	x13, x8
100007cc8: 41 ff ff 54 	b.ne	0x100007cb0 <__ZN4core5slice4sort7recurse17hb5e6567a348f40cbE+0x3bc>
100007ccc: e8 03 0d aa 	mov	x8, x13
100007cd0: 8d 61 1c 9b 	madd	x13, x12, x28, x24
100007cd4: 8c 05 00 d1 	sub	x12, x12, #1
100007cd8: 1f 01 0c eb 	cmp	x8, x12
100007cdc: c2 02 00 54 	b.hs	0x100007d34 <__ZN4core5slice4sort7recurse17hb5e6567a348f40cbE+0x440>
100007ce0: ae 8d 5d f8 	ldr	x14, [x13, #-40]!
100007ce4: 5f 01 0e eb 	cmp	x10, x14
100007ce8: 63 ff ff 54 	b.lo	0x100007cd4 <__ZN4core5slice4sort7recurse17hb5e6567a348f40cbE+0x3e0>
100007cec: 0e 2d 1c 9b 	madd	x14, x8, x28, x11
100007cf0: c0 05 40 ad 	ldp	q0, q1, [x14]
100007cf4: cf 11 40 f9 	ldr	x15, [x14, #32]
100007cf8: ef 73 00 f9 	str	x15, [sp, #224]
100007cfc: e0 07 06 ad 	stp	q0, q1, [sp, #192]
100007d00: af 11 40 f9 	ldr	x15, [x13, #32]
100007d04: a0 05 40 ad 	ldp	q0, q1, [x13]
100007d08: cf 11 00 f9 	str	x15, [x14, #32]
100007d0c: c0 05 00 ad 	stp	q0, q1, [x14]
100007d10: e0 07 46 ad 	ldp	q0, q1, [sp, #192]
100007d14: ee 73 40 f9 	ldr	x14, [sp, #224]
100007d18: ae 11 00 f9 	str	x14, [x13, #32]
100007d1c: a0 05 00 ad 	stp	q0, q1, [x13]
100007d20: 08 05 00 91 	add	x8, x8, #1
100007d24: 8d 05 00 d1 	sub	x13, x12, #1
100007d28: 1f 01 0d eb 	cmp	x8, x13
100007d2c: 03 fc ff 54 	b.lo	0x100007cac <__ZN4core5slice4sort7recurse17hb5e6567a348f40cbE+0x3b8>
100007d30: e8 ff ff 17 	b	0x100007cd0 <__ZN4core5slice4sort7recurse17hb5e6567a348f40cbE+0x3dc>
100007d34: 00 05 00 91 	add	x0, x8, #1
100007d38: 0a 03 00 f9 	str	x10, [x24]
100007d3c: e0 07 42 ad 	ldp	q0, q1, [sp, #64]
100007d40: 20 05 00 ad 	stp	q0, q1, [x9]
100007d44: 3a 03 00 eb 	subs	x26, x25, x0
100007d48: 23 2a 00 54 	b.lo	0x10000828c <__ZN4core5slice4sort7recurse17hb5e6567a348f40cbE+0x998>
100007d4c: 08 61 1c 9b 	madd	x8, x8, x28, x24
100007d50: 18 a1 00 91 	add	x24, x8, #40
100007d54: f9 03 1a aa 	mov	x25, x26
100007d58: 5f 57 00 f1 	cmp	x26, #21
100007d5c: 02 e6 ff 54 	b.hs	0x100007a1c <__ZN4core5slice4sort7recurse17hb5e6567a348f40cbE+0x128>
100007d60: f4 fe ff 17 	b	0x100007930 <__ZN4core5slice4sort7recurse17hb5e6567a348f40cbE+0x3c>
100007d64: e0 03 18 aa 	mov	x0, x24
100007d68: e1 03 19 aa 	mov	x1, x25
100007d6c: a1 a6 00 94 	bl	0x1000317f0 <__ZN4core5slice4sort22partial_insertion_sort17h364c3262f324ff7aE>
100007d70: 21 00 80 52 	mov	w1, #1
100007d74: e0 f5 07 36 	tbz	w0, #0, 0x100007c30 <__ZN4core5slice4sort7recurse17hb5e6567a348f40cbE+0x33c>
100007d78: 30 01 00 14 	b	0x100008238 <__ZN4core5slice4sort7recurse17hb5e6567a348f40cbE+0x944>
100007d7c: f3 03 18 aa 	mov	x19, x24
100007d80: f7 03 19 aa 	mov	x23, x25
100007d84: 5f 03 17 eb 	cmp	x26, x23
100007d88: 22 27 00 54 	b.hs	0x10000826c <__ZN4core5slice4sort7recurse17hb5e6567a348f40cbE+0x978>
100007d8c: 48 4f 1c 9b 	madd	x8, x26, x28, x19
100007d90: 60 06 40 ad 	ldp	q0, q1, [x19]
100007d94: 69 12 40 f9 	ldr	x9, [x19, #32]
100007d98: e9 73 00 f9 	str	x9, [sp, #224]
100007d9c: e0 07 06 ad 	stp	q0, q1, [sp, #192]
100007da0: 09 11 40 f9 	ldr	x9, [x8, #32]
100007da4: 00 05 40 ad 	ldp	q0, q1, [x8]
100007da8: 69 12 00 f9 	str	x9, [x19, #32]
100007dac: 60 06 00 ad 	stp	q0, q1, [x19]
100007db0: e0 07 46 ad 	ldp	q0, q1, [sp, #192]
100007db4: e9 73 40 f9 	ldr	x9, [sp, #224]
100007db8: 09 11 00 f9 	str	x9, [x8, #32]
100007dbc: 00 05 00 ad 	stp	q0, q1, [x8]
100007dc0: 6a a2 00 91 	add	x10, x19, #40
100007dc4: 68 12 40 f9 	ldr	x8, [x19, #32]
100007dc8: 61 02 40 ad 	ldp	q1, q0, [x19]
100007dcc: e8 1b 00 f9 	str	x8, [sp, #48]
100007dd0: e1 83 00 ad 	stp	q1, q0, [sp, #16]
100007dd4: ec 0b 40 f9 	ldr	x12, [sp, #16]
100007dd8: 08 00 80 d2 	mov	x8, #0
100007ddc: e1 06 00 f1 	subs	x1, x23, #1
100007de0: 80 01 00 54 	b.eq	0x100007e10 <__ZN4core5slice4sort7recurse17hb5e6567a348f40cbE+0x51c>
100007de4: e9 03 0a aa 	mov	x9, x10
100007de8: b8 99 99 52 	mov	w24, #52429
100007dec: 2b 01 40 f9 	ldr	x11, [x9]
100007df0: 7f 01 0c eb 	cmp	x11, x12
100007df4: 02 01 00 54 	b.hs	0x100007e14 <__ZN4core5slice4sort7recurse17hb5e6567a348f40cbE+0x520>
100007df8: 08 05 00 91 	add	x8, x8, #1
100007dfc: 29 a1 00 91 	add	x9, x9, #40
100007e00: 3f 00 08 eb 	cmp	x1, x8
100007e04: 41 ff ff 54 	b.ne	0x100007dec <__ZN4core5slice4sort7recurse17hb5e6567a348f40cbE+0x4f8>
100007e08: e8 03 01 aa 	mov	x8, x1
100007e0c: 02 00 00 14 	b	0x100007e14 <__ZN4core5slice4sort7recurse17hb5e6567a348f40cbE+0x520>
100007e10: b8 99 99 52 	mov	w24, #52429
100007e14: 1f 01 01 eb 	cmp	x8, x1
100007e18: 0b 31 81 9a 	csel	x11, x8, x1, lo
100007e1c: e9 7e 1c 9b 	mul	x9, x23, x28
100007e20: 2d a1 00 d1 	sub	x13, x9, #40
100007e24: e9 03 17 aa 	mov	x9, x23
100007e28: 29 05 00 d1 	sub	x9, x9, #1
100007e2c: 3f 01 08 eb 	cmp	x9, x8
100007e30: c9 00 00 54 	b.ls	0x100007e48 <__ZN4core5slice4sort7recurse17hb5e6567a348f40cbE+0x554>
100007e34: 6e 6a 6d f8 	ldr	x14, [x19, x13]
100007e38: ad a1 00 d1 	sub	x13, x13, #40
100007e3c: df 01 0c eb 	cmp	x14, x12
100007e40: 42 ff ff 54 	b.hs	0x100007e28 <__ZN4core5slice4sort7recurse17hb5e6567a348f40cbE+0x534>
100007e44: 02 00 00 14 	b	0x100007e4c <__ZN4core5slice4sort7recurse17hb5e6567a348f40cbE+0x558>
100007e48: e9 03 0b aa 	mov	x9, x11
100007e4c: 2b 01 08 eb 	subs	x11, x9, x8
100007e50: 03 23 00 54 	b.lo	0x1000082b0 <__ZN4core5slice4sort7recurse17hb5e6567a348f40cbE+0x9bc>
100007e54: 3f 01 01 eb 	cmp	x9, x1
100007e58: 28 22 00 54 	b.hi	0x10000829c <__ZN4core5slice4sort7recurse17hb5e6567a348f40cbE+0x9a8>
100007e5c: 0d 00 80 d2 	mov	x13, #0
100007e60: 10 00 80 d2 	mov	x16, #0
100007e64: 0e 00 80 d2 	mov	x14, #0
100007e68: 11 00 80 d2 	mov	x17, #0
100007e6c: 0a 29 1c 9b 	madd	x10, x8, x28, x10
100007e70: 6b 29 1c 9b 	madd	x11, x11, x28, x10
100007e74: 00 10 80 52 	mov	w0, #128
100007e78: 01 10 80 52 	mov	w1, #128
100007e7c: ef 03 0a aa 	mov	x15, x10
100007e80: 10 00 00 14 	b	0x100007ec0 <__ZN4core5slice4sort7recurse17hb5e6567a348f40cbE+0x5cc>
100007e84: 83 2c 1c 9b 	madd	x3, x4, x28, x11
100007e88: a0 07 7c ad 	ldp	q0, q1, [x29, #-128]
100007e8c: a4 03 5a f8 	ldur	x4, [x29, #-96]
100007e90: 64 10 00 f9 	str	x4, [x3, #32]
100007e94: 60 04 00 ad 	stp	q0, q1, [x3]
100007e98: 31 06 00 91 	add	x17, x17, #1
100007e9c: 10 06 00 91 	add	x16, x16, #1
100007ea0: 3f 02 0e eb 	cmp	x17, x14
100007ea4: 23 00 9f 9a 	csel	x3, x1, xzr, eq
100007ea8: 6f 3c 1c 9b 	madd	x15, x3, x28, x15
100007eac: 1f 02 0d eb 	cmp	x16, x13
100007eb0: e3 17 80 da 	csneg	x3, xzr, x0, ne
100007eb4: 6b 2c 1c 9b 	madd	x11, x3, x28, x11
100007eb8: 5f 14 14 f1 	cmp	x2, #1285
100007ebc: 43 0e 00 54 	b.lo	0x100008084 <__ZN4core5slice4sort7recurse17hb5e6567a348f40cbE+0x790>
100007ec0: 63 01 0f cb 	sub	x3, x11, x15
100007ec4: 62 fc 43 d3 	lsr	x2, x3, #3
100007ec8: 5f 14 14 f1 	cmp	x2, #1285
100007ecc: 63 01 00 54 	b.lo	0x100007ef8 <__ZN4core5slice4sort7recurse17hb5e6567a348f40cbE+0x604>
100007ed0: 3f 02 0e eb 	cmp	x17, x14
100007ed4: c0 03 00 54 	b.eq	0x100007f4c <__ZN4core5slice4sort7recurse17hb5e6567a348f40cbE+0x658>
100007ed8: 1f 02 0d eb 	cmp	x16, x13
100007edc: 20 06 00 54 	b.eq	0x100007fa0 <__ZN4core5slice4sort7recurse17hb5e6567a348f40cbE+0x6ac>
100007ee0: c3 01 11 cb 	sub	x3, x14, x17
100007ee4: a4 01 10 cb 	sub	x4, x13, x16
100007ee8: 7f 00 04 eb 	cmp	x3, x4
100007eec: 63 30 84 9a 	csel	x3, x3, x4, lo
100007ef0: 23 08 00 b5 	cbnz	x3, 0x100007ff4 <__ZN4core5slice4sort7recurse17hb5e6567a348f40cbE+0x700>
100007ef4: eb ff ff 17 	b	0x100007ea0 <__ZN4core5slice4sort7recurse17hb5e6567a348f40cbE+0x5ac>
100007ef8: 63 3c 00 12 	and	w3, w3, #0xffff
100007efc: 63 7c 18 1b 	mul	w3, w3, w24
100007f00: 63 7c 15 53 	lsr	w3, w3, #21
100007f04: 3f 02 0e eb 	cmp	x17, x14
100007f08: e4 27 9f 1a 	cset	w4, lo
100007f0c: 1f 02 0d eb 	cmp	x16, x13
100007f10: e5 27 9f 1a 	cset	w5, lo
100007f14: 84 00 05 2a 	orr	w4, w4, w5
100007f18: 65 00 02 d1 	sub	x5, x3, #128
100007f1c: 9f 00 00 71 	cmp	w4, #0
100007f20: a3 10 83 9a 	csel	x3, x5, x3, ne
100007f24: 3f 02 0e eb 	cmp	x17, x14
100007f28: 60 30 80 9a 	csel	x0, x3, x0, lo
100007f2c: 21 30 83 9a 	csel	x1, x1, x3, lo
100007f30: 65 fc 41 d3 	lsr	x5, x3, #1
100007f34: 63 00 05 cb 	sub	x3, x3, x5
100007f38: 9f 00 00 72 	tst	w4, #0x1
100007f3c: 00 10 83 9a 	csel	x0, x0, x3, ne
100007f40: 21 10 85 9a 	csel	x1, x1, x5, ne
100007f44: 3f 02 0e eb 	cmp	x17, x14
100007f48: 81 fc ff 54 	b.ne	0x100007ed8 <__ZN4core5slice4sort7recurse17hb5e6567a348f40cbE+0x5e4>
100007f4c: 21 02 00 b4 	cbz	x1, 0x100007f90 <__ZN4core5slice4sort7recurse17hb5e6567a348f40cbE+0x69c>
100007f50: 03 00 80 d2 	mov	x3, #0
100007f54: ee 03 01 91 	add	x14, sp, #64
100007f58: f1 03 0f aa 	mov	x17, x15
100007f5c: e4 03 0e aa 	mov	x4, x14
100007f60: 83 14 00 38 	strb	w3, [x4], #1
100007f64: 65 04 00 91 	add	x5, x3, #1
100007f68: 23 86 42 f8 	ldr	x3, [x17], #40
100007f6c: 7f 00 0c eb 	cmp	x3, x12
100007f70: ce 31 84 9a 	csel	x14, x14, x4, lo
100007f74: e3 03 05 aa 	mov	x3, x5
100007f78: 3f 00 05 eb 	cmp	x1, x5
100007f7c: 01 ff ff 54 	b.ne	0x100007f5c <__ZN4core5slice4sort7recurse17hb5e6567a348f40cbE+0x668>
100007f80: f1 03 01 91 	add	x17, sp, #64
100007f84: 1f 02 0d eb 	cmp	x16, x13
100007f88: c1 fa ff 54 	b.ne	0x100007ee0 <__ZN4core5slice4sort7recurse17hb5e6567a348f40cbE+0x5ec>
100007f8c: 05 00 00 14 	b	0x100007fa0 <__ZN4core5slice4sort7recurse17hb5e6567a348f40cbE+0x6ac>
100007f90: ee 03 01 91 	add	x14, sp, #64
100007f94: f1 03 01 91 	add	x17, sp, #64
100007f98: 1f 02 0d eb 	cmp	x16, x13
100007f9c: 21 fa ff 54 	b.ne	0x100007ee0 <__ZN4core5slice4sort7recurse17hb5e6567a348f40cbE+0x5ec>
100007fa0: c0 01 00 b4 	cbz	x0, 0x100007fd8 <__ZN4core5slice4sort7recurse17hb5e6567a348f40cbE+0x6e4>
100007fa4: 03 00 80 d2 	mov	x3, #0
100007fa8: 70 a1 00 d1 	sub	x16, x11, #40
100007fac: ed 03 03 91 	add	x13, sp, #192
100007fb0: e4 03 0d aa 	mov	x4, x13
100007fb4: 83 14 00 38 	strb	w3, [x4], #1
100007fb8: 65 04 00 91 	add	x5, x3, #1
100007fbc: 03 86 5d f8 	ldr	x3, [x16], #-40
100007fc0: 7f 00 0c eb 	cmp	x3, x12
100007fc4: ad 21 84 9a 	csel	x13, x13, x4, hs
100007fc8: e3 03 05 aa 	mov	x3, x5
100007fcc: 1f 00 05 eb 	cmp	x0, x5
100007fd0: 01 ff ff 54 	b.ne	0x100007fb0 <__ZN4core5slice4sort7recurse17hb5e6567a348f40cbE+0x6bc>
100007fd4: 02 00 00 14 	b	0x100007fdc <__ZN4core5slice4sort7recurse17hb5e6567a348f40cbE+0x6e8>
100007fd8: ed 03 03 91 	add	x13, sp, #192
100007fdc: f0 03 03 91 	add	x16, sp, #192
100007fe0: c3 01 11 cb 	sub	x3, x14, x17
100007fe4: a4 01 10 cb 	sub	x4, x13, x16
100007fe8: 7f 00 04 eb 	cmp	x3, x4
100007fec: 63 30 84 9a 	csel	x3, x3, x4, lo
100007ff0: 83 f5 ff b4 	cbz	x3, 0x100007ea0 <__ZN4core5slice4sort7recurse17hb5e6567a348f40cbE+0x5ac>
100007ff4: 24 02 40 39 	ldrb	w4, [x17]
100007ff8: 84 3c 1c 9b 	madd	x4, x4, x28, x15
100007ffc: 80 04 40 ad 	ldp	q0, q1, [x4]
100008000: 84 10 40 f9 	ldr	x4, [x4, #32]
100008004: a4 03 1a f8 	stur	x4, [x29, #-96]
100008008: a0 07 3c ad 	stp	q0, q1, [x29, #-128]
10000800c: 05 02 40 39 	ldrb	w5, [x16]
100008010: e4 03 25 aa 	mvn	x4, x5
100008014: 86 2c 1c 9b 	madd	x6, x4, x28, x11
100008018: 27 02 40 39 	ldrb	w7, [x17]
10000801c: e7 3c 1c 9b 	madd	x7, x7, x28, x15
100008020: d4 10 40 f9 	ldr	x20, [x6, #32]
100008024: c1 00 40 ad 	ldp	q1, q0, [x6]
100008028: e1 00 00 ad 	stp	q1, q0, [x7]
10000802c: f4 10 00 f9 	str	x20, [x7, #32]
100008030: 63 04 00 f1 	subs	x3, x3, #1
100008034: 80 f2 ff 54 	b.eq	0x100007e84 <__ZN4core5slice4sort7recurse17hb5e6567a348f40cbE+0x590>
100008038: 24 1e 40 38 	ldrb	w4, [x17, #1]!
10000803c: 86 3c 1c 9b 	madd	x6, x4, x28, x15
100008040: e4 03 25 2a 	mvn	w4, w5
100008044: 84 dc 78 b2 	orr	x4, x4, #0xffffffffffffff00
100008048: 84 2c 1c 9b 	madd	x4, x4, x28, x11
10000804c: c5 10 40 f9 	ldr	x5, [x6, #32]
100008050: c1 00 40 ad 	ldp	q1, q0, [x6]
100008054: 81 00 00 ad 	stp	q1, q0, [x4]
100008058: 85 10 00 f9 	str	x5, [x4, #32]
10000805c: 05 1e 40 38 	ldrb	w5, [x16, #1]!
100008060: e4 03 25 aa 	mvn	x4, x5
100008064: 87 2c 1c 9b 	madd	x7, x4, x28, x11
100008068: e0 04 40 ad 	ldp	q0, q1, [x7]
10000806c: e7 10 40 f9 	ldr	x7, [x7, #32]
100008070: c7 10 00 f9 	str	x7, [x6, #32]
100008074: c0 04 00 ad 	stp	q0, q1, [x6]
100008078: 63 04 00 f1 	subs	x3, x3, #1
10000807c: e1 fd ff 54 	b.ne	0x100008038 <__ZN4core5slice4sort7recurse17hb5e6567a348f40cbE+0x744>
100008080: 81 ff ff 17 	b	0x100007e84 <__ZN4core5slice4sort7recurse17hb5e6567a348f40cbE+0x590>
100008084: 3f 02 0e eb 	cmp	x17, x14
100008088: c2 08 00 54 	b.hs	0x1000081a0 <__ZN4core5slice4sort7recurse17hb5e6567a348f40cbE+0x8ac>
10000808c: cc fd 5f 38 	ldrb	w12, [x14, #-1]!
100008090: 8d 3d 1c 9b 	madd	x13, x12, x28, x15
100008094: 6c a1 00 d1 	sub	x12, x11, #40
100008098: a0 05 40 ad 	ldp	q0, q1, [x13]
10000809c: b0 11 40 f9 	ldr	x16, [x13, #32]
1000080a0: b0 03 1a f8 	stur	x16, [x29, #-96]
1000080a4: a0 07 3c ad 	stp	q0, q1, [x29, #-128]
1000080a8: 60 81 dd 3c 	ldur	q0, [x11, #-40]
1000080ac: 70 81 5f f8 	ldur	x16, [x11, #-8]
1000080b0: 61 81 de 3c 	ldur	q1, [x11, #-24]
1000080b4: b0 11 00 f9 	str	x16, [x13, #32]
1000080b8: a0 05 00 ad 	stp	q0, q1, [x13]
1000080bc: a0 07 7c ad 	ldp	q0, q1, [x29, #-128]
1000080c0: ad 03 5a f8 	ldur	x13, [x29, #-96]
1000080c4: 6d 81 1f f8 	stur	x13, [x11, #-8]
1000080c8: 61 81 9e 3c 	stur	q1, [x11, #-24]
1000080cc: 60 81 9d 3c 	stur	q0, [x11, #-40]
1000080d0: eb 03 0c aa 	mov	x11, x12
1000080d4: 3f 02 0e eb 	cmp	x17, x14
1000080d8: a3 fd ff 54 	b.lo	0x10000808c <__ZN4core5slice4sort7recurse17hb5e6567a348f40cbE+0x798>
1000080dc: 8a 01 0a cb 	sub	x10, x12, x10
1000080e0: eb e7 02 b2 	mov	x11, #-3689348814741910324
1000080e4: ab 99 99 f2 	movk	x11, #52429
1000080e8: 4a 7d cb 9b 	umulh	x10, x10, x11
1000080ec: 1a 15 4a 8b 	add	x26, x8, x10, lsr #5
1000080f0: e0 87 40 ad 	ldp	q0, q1, [sp, #16]
1000080f4: ea 1b 40 f9 	ldr	x10, [sp, #48]
1000080f8: 6a 12 00 f9 	str	x10, [x19, #32]
1000080fc: 60 06 00 ad 	stp	q0, q1, [x19]
100008100: ea 02 1a eb 	subs	x10, x23, x26
100008104: a9 0b 00 54 	b.ls	0x100008278 <__ZN4core5slice4sort7recurse17hb5e6567a348f40cbE+0x984>
100008108: 3f 01 08 eb 	cmp	x9, x8
10000810c: f4 87 9f 1a 	cset	w20, ls
100008110: 58 4f 1c 9b 	madd	x24, x26, x28, x19
100008114: 60 06 40 ad 	ldp	q0, q1, [x19]
100008118: 68 12 40 f9 	ldr	x8, [x19, #32]
10000811c: e8 73 00 f9 	str	x8, [sp, #224]
100008120: e0 07 06 ad 	stp	q0, q1, [sp, #192]
100008124: 08 13 40 f9 	ldr	x8, [x24, #32]
100008128: 00 07 40 ad 	ldp	q0, q1, [x24]
10000812c: 68 12 00 f9 	str	x8, [x19, #32]
100008130: 60 06 00 ad 	stp	q0, q1, [x19]
100008134: e0 07 46 ad 	ldp	q0, q1, [sp, #192]
100008138: e8 73 40 f9 	ldr	x8, [sp, #224]
10000813c: 08 13 00 f9 	str	x8, [x24, #32]
100008140: 00 07 00 ad 	stp	q0, q1, [x24]
100008144: 5f 03 0a eb 	cmp	x26, x10
100008148: 48 33 8a 9a 	csel	x8, x26, x10, lo
10000814c: 1f 0d 57 eb 	cmp	x8, x23, lsr #3
100008150: fb 37 9f 1a 	cset	w27, hs
100008154: 17 a3 00 91 	add	x23, x24, #40
100008158: 59 05 00 d1 	sub	x25, x10, #1
10000815c: 5f 03 19 eb 	cmp	x26, x25
100008160: c2 04 00 54 	b.hs	0x1000081f8 <__ZN4core5slice4sort7recurse17hb5e6567a348f40cbE+0x904>
100008164: e0 03 13 aa 	mov	x0, x19
100008168: e1 03 1a aa 	mov	x1, x26
10000816c: e2 07 40 f9 	ldr	x2, [sp, #8]
100008170: e3 03 16 aa 	mov	x3, x22
100008174: e4 03 15 aa 	mov	x4, x21
100008178: df fd ff 97 	bl	0x1000078f4 <__ZN4core5slice4sort7recurse17hb5e6567a348f40cbE>
10000817c: f6 03 18 aa 	mov	x22, x24
100008180: fa 03 19 aa 	mov	x26, x25
100008184: f3 03 17 aa 	mov	x19, x23
100008188: f7 03 1a aa 	mov	x23, x26
10000818c: f8 03 13 aa 	mov	x24, x19
100008190: 3f 57 00 f1 	cmp	x25, #21
100008194: 21 00 80 52 	mov	w1, #1
100008198: c2 c3 ff 54 	b.hs	0x100007a10 <__ZN4core5slice4sort7recurse17hb5e6567a348f40cbE+0x11c>
10000819c: e5 fd ff 17 	b	0x100007930 <__ZN4core5slice4sort7recurse17hb5e6567a348f40cbE+0x3c>
1000081a0: ec 03 0f aa 	mov	x12, x15
1000081a4: 1f 02 0d eb 	cmp	x16, x13
1000081a8: a2 f9 ff 54 	b.hs	0x1000080dc <__ZN4core5slice4sort7recurse17hb5e6567a348f40cbE+0x7e8>
1000081ac: ae fd 5f 38 	ldrb	w14, [x13, #-1]!
1000081b0: ee 03 2e aa 	mvn	x14, x14
1000081b4: ce 2d 1c 9b 	madd	x14, x14, x28, x11
1000081b8: 80 05 40 ad 	ldp	q0, q1, [x12]
1000081bc: 8f 11 40 f9 	ldr	x15, [x12, #32]
1000081c0: af 03 1a f8 	stur	x15, [x29, #-96]
1000081c4: a0 07 3c ad 	stp	q0, q1, [x29, #-128]
1000081c8: cf 11 40 f9 	ldr	x15, [x14, #32]
1000081cc: c0 05 40 ad 	ldp	q0, q1, [x14]
1000081d0: 8f 11 00 f9 	str	x15, [x12, #32]
1000081d4: 80 05 00 ad 	stp	q0, q1, [x12]
1000081d8: a0 07 7c ad 	ldp	q0, q1, [x29, #-128]
1000081dc: af 03 5a f8 	ldur	x15, [x29, #-96]
1000081e0: cf 11 00 f9 	str	x15, [x14, #32]
1000081e4: c0 05 00 ad 	stp	q0, q1, [x14]
1000081e8: 8c a1 00 91 	add	x12, x12, #40
1000081ec: 1f 02 0d eb 	cmp	x16, x13
1000081f0: e3 fd ff 54 	b.lo	0x1000081ac <__ZN4core5slice4sort7recurse17hb5e6567a348f40cbE+0x8b8>
1000081f4: ba ff ff 17 	b	0x1000080dc <__ZN4core5slice4sort7recurse17hb5e6567a348f40cbE+0x7e8>
1000081f8: e0 03 17 aa 	mov	x0, x23
1000081fc: e1 03 19 aa 	mov	x1, x25
100008200: e2 07 40 f9 	ldr	x2, [sp, #8]
100008204: e3 03 18 aa 	mov	x3, x24
100008208: e4 03 15 aa 	mov	x4, x21
10000820c: ba fd ff 97 	bl	0x1000078f4 <__ZN4core5slice4sort7recurse17hb5e6567a348f40cbE>
100008210: f7 03 1a aa 	mov	x23, x26
100008214: f8 03 13 aa 	mov	x24, x19
100008218: 5f 57 00 f1 	cmp	x26, #21
10000821c: 21 00 80 52 	mov	w1, #1
100008220: 82 bf ff 54 	b.hs	0x100007a10 <__ZN4core5slice4sort7recurse17hb5e6567a348f40cbE+0x11c>
100008224: c3 fd ff 17 	b	0x100007930 <__ZN4core5slice4sort7recurse17hb5e6567a348f40cbE+0x3c>
100008228: e0 03 18 aa 	mov	x0, x24
10000822c: e1 03 19 aa 	mov	x1, x25
100008230: e2 07 40 f9 	ldr	x2, [sp, #8]
100008234: fb a6 00 94 	bl	0x100031e20 <__ZN4core5slice4sort8heapsort17h6769d497ed49c4ffE>
100008238: fd 7b 5c a9 	ldp	x29, x30, [sp, #448]
10000823c: f4 4f 5b a9 	ldp	x20, x19, [sp, #432]
100008240: f6 57 5a a9 	ldp	x22, x21, [sp, #416]
100008244: f8 5f 59 a9 	ldp	x24, x23, [sp, #400]
100008248: fa 67 58 a9 	ldp	x26, x25, [sp, #384]
10000824c: fc 6f 57 a9 	ldp	x28, x27, [sp, #368]
100008250: ff 43 07 91 	add	sp, sp, #464
100008254: c0 03 5f d6 	ret
100008258: 42 0a 1c 10 	adr	x2, #229704
10000825c: 1f 20 03 d5 	nop
100008260: e0 03 1a aa 	mov	x0, x26
100008264: e1 03 19 aa 	mov	x1, x25
100008268: 60 ab 00 94 	bl	0x100032fe8 <__ZN4core9panicking18panic_bounds_check17h1dcb29c14d8acf38E>
10000826c: 62 0d 1c 10 	adr	x2, #229804
100008270: 1f 20 03 d5 	nop
100008274: 03 00 00 14 	b	0x100008280 <__ZN4core5slice4sort7recurse17hb5e6567a348f40cbE+0x98c>
100008278: 82 0e 1c 10 	adr	x2, #229840
10000827c: 1f 20 03 d5 	nop
100008280: e0 03 1a aa 	mov	x0, x26
100008284: e1 03 17 aa 	mov	x1, x23
100008288: 58 ab 00 94 	bl	0x100032fe8 <__ZN4core9panicking18panic_bounds_check17h1dcb29c14d8acf38E>
10000828c: 62 09 1c 10 	adr	x2, #229676
100008290: 1f 20 03 d5 	nop
100008294: e1 03 19 aa 	mov	x1, x25
100008298: a3 ab 00 94 	bl	0x100033124 <__ZN4core5slice5index26slice_start_index_len_fail17h8b035d44bb631b40E>
10000829c: a2 0c 1c 10 	adr	x2, #229780
1000082a0: 1f 20 03 d5 	nop
1000082a4: e0 03 09 aa 	mov	x0, x9
1000082a8: a2 ab 00 94 	bl	0x100033130 <__ZN4core5slice5index24slice_end_index_len_fail17h43cb976450df7ff7E>
1000082ac: 06 00 00 14 	b	0x1000082c4 <__ZN4core5slice4sort7recurse17hb5e6567a348f40cbE+0x9d0>
1000082b0: 02 0c 1c 10 	adr	x2, #229760
1000082b4: 1f 20 03 d5 	nop
1000082b8: e0 03 08 aa 	mov	x0, x8
1000082bc: e1 03 09 aa 	mov	x1, x9
1000082c0: 9f ab 00 94 	bl	0x10003313c <__ZN4core5slice5index22slice_index_order_fail17he3be83252d5beb3cE>
1000082c4: 20 00 20 d4 	brk	#0x1
1000082c8: 01 00 00 14 	b	0x1000082cc <__ZN4core5slice4sort7recurse17hb5e6567a348f40cbE+0x9d8>
1000082cc: f4 03 00 aa 	mov	x20, x0
1000082d0: e0 43 00 91 	add	x0, sp, #16
1000082d4: e1 03 13 aa 	mov	x1, x19
1000082d8: 43 f6 ff 97 	bl	0x100005be4 <__ZN4core3ptr86drop_in_place$LT$core..slice..sort..CopyOnDrop$LT$object..read..ObjectMapEntry$GT$$GT$17ha3dab72a0a9258e0E>
1000082dc: e0 03 14 aa 	mov	x0, x20
1000082e0: c6 ab 00 94 	bl	0x1000331f8 <_write+0x1000331f8>

00000001000082e4 <__ZN4core5slice4sort8heapsort28_$u7b$$u7b$closure$u7d$$u7d$17h2c94d1acd396e78aE>:
1000082e4: ff c3 01 d1 	sub	sp, sp, #112
1000082e8: fa 67 02 a9 	stp	x26, x25, [sp, #32]
1000082ec: f8 5f 03 a9 	stp	x24, x23, [sp, #48]
1000082f0: f6 57 04 a9 	stp	x22, x21, [sp, #64]
1000082f4: f4 4f 05 a9 	stp	x20, x19, [sp, #80]
1000082f8: fd 7b 06 a9 	stp	x29, x30, [sp, #96]
1000082fc: fd 83 01 91 	add	x29, sp, #96
100008300: 38 00 80 52 	mov	w24, #1
100008304: 78 f8 7f b3 	bfi	x24, x3, #1, #63
100008308: 1f 03 02 eb 	cmp	x24, x2
10000830c: 82 06 00 54 	b.hs	0x1000083dc <__ZN4core5slice4sort8heapsort28_$u7b$$u7b$closure$u7d$$u7d$17h2c94d1acd396e78aE+0xf8>
100008310: f5 03 03 aa 	mov	x21, x3
100008314: f3 03 02 aa 	mov	x19, x2
100008318: f4 03 01 aa 	mov	x20, x1
10000831c: 68 f8 7f d3 	lsl	x8, x3, #1
100008320: 17 03 80 52 	mov	w23, #24
100008324: 16 09 00 91 	add	x22, x8, #2
100008328: df 02 13 eb 	cmp	x22, x19
10000832c: c2 01 00 54 	b.hs	0x100008364 <__ZN4core5slice4sort8heapsort28_$u7b$$u7b$closure$u7d$$u7d$17h2c94d1acd396e78aE+0x80>
100008330: 09 53 17 9b 	madd	x9, x24, x23, x20
100008334: 08 51 17 9b 	madd	x8, x8, x23, x20
100008338: 20 25 40 a9 	ldp	x0, x9, [x9]
10000833c: 01 21 43 a9 	ldp	x1, x8, [x8, #48]
100008340: 39 01 08 eb 	subs	x25, x9, x8
100008344: 22 31 88 9a 	csel	x2, x9, x8, lo
100008348: e5 ab 00 94 	bl	0x1000332dc <_write+0x1000332dc>
10000834c: 08 7c 40 93 	sxtw	x8, w0
100008350: 1f 00 00 71 	cmp	w0, #0
100008354: 28 03 88 9a 	csel	x8, x25, x8, eq
100008358: 1f 01 00 f1 	cmp	x8, #0
10000835c: d6 b2 98 9a 	csel	x22, x22, x24, lt
100008360: 02 00 00 14 	b	0x100008368 <__ZN4core5slice4sort8heapsort28_$u7b$$u7b$closure$u7d$$u7d$17h2c94d1acd396e78aE+0x84>
100008364: f6 03 18 aa 	mov	x22, x24
100008368: bf 02 13 eb 	cmp	x21, x19
10000836c: 62 04 00 54 	b.hs	0x1000083f8 <__ZN4core5slice4sort8heapsort28_$u7b$$u7b$closure$u7d$$u7d$17h2c94d1acd396e78aE+0x114>
100008370: df 02 13 eb 	cmp	x22, x19
100008374: c2 04 00 54 	b.hs	0x10000840c <__ZN4core5slice4sort8heapsort28_$u7b$$u7b$closure$u7d$$u7d$17h2c94d1acd396e78aE+0x128>
100008378: b8 52 17 9b 	madd	x24, x21, x23, x20
10000837c: d5 52 17 9b 	madd	x21, x22, x23, x20
100008380: 00 23 40 a9 	ldp	x0, x8, [x24]
100008384: a1 26 40 a9 	ldp	x1, x9, [x21]
100008388: 19 01 09 eb 	subs	x25, x8, x9
10000838c: 02 31 89 9a 	csel	x2, x8, x9, lo
100008390: d3 ab 00 94 	bl	0x1000332dc <_write+0x1000332dc>
100008394: 08 7c 40 93 	sxtw	x8, w0
100008398: 1f 00 00 71 	cmp	w0, #0
10000839c: 28 03 88 9a 	csel	x8, x25, x8, eq
1000083a0: e8 01 f8 b6 	tbz	x8, #63, 0x1000083dc <__ZN4core5slice4sort8heapsort28_$u7b$$u7b$closure$u7d$$u7d$17h2c94d1acd396e78aE+0xf8>
1000083a4: 08 0b 40 f9 	ldr	x8, [x24, #16]
1000083a8: 00 03 c0 3d 	ldr	q0, [x24]
1000083ac: a9 0a 40 f9 	ldr	x9, [x21, #16]
1000083b0: a1 02 c0 3d 	ldr	q1, [x21]
1000083b4: 01 03 80 3d 	str	q1, [x24]
1000083b8: 09 0b 00 f9 	str	x9, [x24, #16]
1000083bc: a0 02 80 3d 	str	q0, [x21]
1000083c0: a8 0a 00 f9 	str	x8, [x21, #16]
1000083c4: c8 fa 7f d3 	lsl	x8, x22, #1
1000083c8: 38 00 80 52 	mov	w24, #1
1000083cc: d8 fa 7f b3 	bfi	x24, x22, #1, #63
1000083d0: f5 03 16 aa 	mov	x21, x22
1000083d4: 1f 03 13 eb 	cmp	x24, x19
1000083d8: 63 fa ff 54 	b.lo	0x100008324 <__ZN4core5slice4sort8heapsort28_$u7b$$u7b$closure$u7d$$u7d$17h2c94d1acd396e78aE+0x40>
1000083dc: fd 7b 46 a9 	ldp	x29, x30, [sp, #96]
1000083e0: f4 4f 45 a9 	ldp	x20, x19, [sp, #80]
1000083e4: f6 57 44 a9 	ldp	x22, x21, [sp, #64]
1000083e8: f8 5f 43 a9 	ldp	x24, x23, [sp, #48]
1000083ec: fa 67 42 a9 	ldp	x26, x25, [sp, #32]
1000083f0: ff c3 01 91 	add	sp, sp, #112
1000083f4: c0 03 5f d6 	ret
1000083f8: 82 ff 1b 10 	adr	x2, #229360
1000083fc: 1f 20 03 d5 	nop
100008400: e0 03 15 aa 	mov	x0, x21
100008404: e1 03 13 aa 	mov	x1, x19
100008408: f8 aa 00 94 	bl	0x100032fe8 <__ZN4core9panicking18panic_bounds_check17h1dcb29c14d8acf38E>
10000840c: a2 ff 1b 10 	adr	x2, #229364
100008410: 1f 20 03 d5 	nop
100008414: e0 03 16 aa 	mov	x0, x22
100008418: e1 03 13 aa 	mov	x1, x19
10000841c: f3 aa 00 94 	bl	0x100032fe8 <__ZN4core9panicking18panic_bounds_check17h1dcb29c14d8acf38E>

0000000100008420 <__ZN50_$LT$$BP$mut$u20$T$u20$as$u20$core..fmt..Debug$GT$3fmt17h9b03785f20e28e74E>:
100008420: 00 00 40 f9 	ldr	x0, [x0]
100008424: fb 96 00 14 	b	0x10002e010 <__ZN4core3fmt17pointer_fmt_inner17h087418e2cc0ca989E>

0000000100008428 <__ZN50_$LT$$RF$mut$u20$W$u20$as$u20$core..fmt..Write$GT$10write_char17h51b064f3c4aed178E>:
100008428: ff 83 00 d1 	sub	sp, sp, #32
10000842c: fd 7b 01 a9 	stp	x29, x30, [sp, #16]
100008430: fd 43 00 91 	add	x29, sp, #16
100008434: 00 00 40 f9 	ldr	x0, [x0]
100008438: bf c3 1f b8 	stur	wzr, [x29, #-4]
10000843c: 3f 00 02 71 	cmp	w1, #128
100008440: 82 00 00 54 	b.hs	0x100008450 <__ZN50_$LT$$RF$mut$u20$W$u20$as$u20$core..fmt..Write$GT$10write_char17h51b064f3c4aed178E+0x28>
100008444: a1 c3 1f 38 	sturb	w1, [x29, #-4]
100008448: 22 00 80 52 	mov	w2, #1
10000844c: 25 00 00 14 	b	0x1000084e0 <__ZN50_$LT$$RF$mut$u20$W$u20$as$u20$core..fmt..Write$GT$10write_char17h51b064f3c4aed178E+0xb8>
100008450: 3f 00 20 71 	cmp	w1, #2048
100008454: 22 01 00 54 	b.hs	0x100008478 <__ZN50_$LT$$RF$mut$u20$W$u20$as$u20$core..fmt..Write$GT$10write_char17h51b064f3c4aed178E+0x50>
100008458: 28 7c 06 53 	lsr	w8, w1, #6
10000845c: 08 05 1a 32 	orr	w8, w8, #0xc0
100008460: a8 c3 1f 38 	sturb	w8, [x29, #-4]
100008464: 08 10 80 52 	mov	w8, #128
100008468: 28 14 00 33 	bfxil	w8, w1, #0, #6
10000846c: a8 d3 1f 38 	sturb	w8, [x29, #-3]
100008470: 42 00 80 52 	mov	w2, #2
100008474: 1b 00 00 14 	b	0x1000084e0 <__ZN50_$LT$$RF$mut$u20$W$u20$as$u20$core..fmt..Write$GT$10write_char17h51b064f3c4aed178E+0xb8>
100008478: 3f 40 40 71 	cmp	w1, #16, lsl #12        ; =65536
10000847c: 82 01 00 54 	b.hs	0x1000084ac <__ZN50_$LT$$RF$mut$u20$W$u20$as$u20$core..fmt..Write$GT$10write_char17h51b064f3c4aed178E+0x84>
100008480: 28 7c 0c 53 	lsr	w8, w1, #12
100008484: 08 09 1b 32 	orr	w8, w8, #0xe0
100008488: a8 c3 1f 38 	sturb	w8, [x29, #-4]
10000848c: 08 10 80 52 	mov	w8, #128
100008490: 09 10 80 52 	mov	w9, #128
100008494: 29 2c 06 33 	bfxil	w9, w1, #6, #6
100008498: a9 d3 1f 38 	sturb	w9, [x29, #-3]
10000849c: 28 14 00 33 	bfxil	w8, w1, #0, #6
1000084a0: a8 e3 1f 38 	sturb	w8, [x29, #-2]
1000084a4: 62 00 80 52 	mov	w2, #3
1000084a8: 0e 00 00 14 	b	0x1000084e0 <__ZN50_$LT$$RF$mut$u20$W$u20$as$u20$core..fmt..Write$GT$10write_char17h51b064f3c4aed178E+0xb8>
1000084ac: 08 1e 80 52 	mov	w8, #240
1000084b0: 28 50 12 33 	bfxil	w8, w1, #18, #3
1000084b4: a8 c3 1f 38 	sturb	w8, [x29, #-4]
1000084b8: 08 10 80 52 	mov	w8, #128
1000084bc: 09 10 80 52 	mov	w9, #128
1000084c0: 29 44 0c 33 	bfxil	w9, w1, #12, #6
1000084c4: a9 d3 1f 38 	sturb	w9, [x29, #-3]
1000084c8: 09 10 80 52 	mov	w9, #128
1000084cc: 29 2c 06 33 	bfxil	w9, w1, #6, #6
1000084d0: a9 e3 1f 38 	sturb	w9, [x29, #-2]
1000084d4: 28 14 00 33 	bfxil	w8, w1, #0, #6
1000084d8: a8 f3 1f 38 	sturb	w8, [x29, #-1]
1000084dc: 82 00 80 52 	mov	w2, #4
1000084e0: a1 13 00 d1 	sub	x1, x29, #4
1000084e4: 71 42 00 94 	bl	0x100018ea8 <__ZN80_$LT$std..io..Write..write_fmt..Adapter$LT$T$GT$$u20$as$u20$core..fmt..Write$GT$9write_str17h099124ba230a2302E>
1000084e8: fd 7b 41 a9 	ldp	x29, x30, [sp, #16]
1000084ec: ff 83 00 91 	add	sp, sp, #32
1000084f0: c0 03 5f d6 	ret

00000001000084f4 <__ZN50_$LT$$RF$mut$u20$W$u20$as$u20$core..fmt..Write$GT$10write_char17haadceaeb5a3a036dE>:
1000084f4: ff 83 00 d1 	sub	sp, sp, #32
1000084f8: fd 7b 01 a9 	stp	x29, x30, [sp, #16]
1000084fc: fd 43 00 91 	add	x29, sp, #16
100008500: 00 00 40 f9 	ldr	x0, [x0]
100008504: bf c3 1f b8 	stur	wzr, [x29, #-4]
100008508: 3f 00 02 71 	cmp	w1, #128
10000850c: 82 00 00 54 	b.hs	0x10000851c <__ZN50_$LT$$RF$mut$u20$W$u20$as$u20$core..fmt..Write$GT$10write_char17haadceaeb5a3a036dE+0x28>
100008510: a1 c3 1f 38 	sturb	w1, [x29, #-4]
100008514: 22 00 80 52 	mov	w2, #1
100008518: 25 00 00 14 	b	0x1000085ac <__ZN50_$LT$$RF$mut$u20$W$u20$as$u20$core..fmt..Write$GT$10write_char17haadceaeb5a3a036dE+0xb8>
10000851c: 3f 00 20 71 	cmp	w1, #2048
100008520: 22 01 00 54 	b.hs	0x100008544 <__ZN50_$LT$$RF$mut$u20$W$u20$as$u20$core..fmt..Write$GT$10write_char17haadceaeb5a3a036dE+0x50>
100008524: 28 7c 06 53 	lsr	w8, w1, #6
100008528: 08 05 1a 32 	orr	w8, w8, #0xc0
10000852c: a8 c3 1f 38 	sturb	w8, [x29, #-4]
100008530: 08 10 80 52 	mov	w8, #128
100008534: 28 14 00 33 	bfxil	w8, w1, #0, #6
100008538: a8 d3 1f 38 	sturb	w8, [x29, #-3]
10000853c: 42 00 80 52 	mov	w2, #2
100008540: 1b 00 00 14 	b	0x1000085ac <__ZN50_$LT$$RF$mut$u20$W$u20$as$u20$core..fmt..Write$GT$10write_char17haadceaeb5a3a036dE+0xb8>
100008544: 3f 40 40 71 	cmp	w1, #16, lsl #12        ; =65536
100008548: 82 01 00 54 	b.hs	0x100008578 <__ZN50_$LT$$RF$mut$u20$W$u20$as$u20$core..fmt..Write$GT$10write_char17haadceaeb5a3a036dE+0x84>
10000854c: 28 7c 0c 53 	lsr	w8, w1, #12
100008550: 08 09 1b 32 	orr	w8, w8, #0xe0
100008554: a8 c3 1f 38 	sturb	w8, [x29, #-4]
100008558: 08 10 80 52 	mov	w8, #128
10000855c: 09 10 80 52 	mov	w9, #128
100008560: 29 2c 06 33 	bfxil	w9, w1, #6, #6
100008564: a9 d3 1f 38 	sturb	w9, [x29, #-3]
100008568: 28 14 00 33 	bfxil	w8, w1, #0, #6
10000856c: a8 e3 1f 38 	sturb	w8, [x29, #-2]
100008570: 62 00 80 52 	mov	w2, #3
100008574: 0e 00 00 14 	b	0x1000085ac <__ZN50_$LT$$RF$mut$u20$W$u20$as$u20$core..fmt..Write$GT$10write_char17haadceaeb5a3a036dE+0xb8>
100008578: 08 1e 80 52 	mov	w8, #240
10000857c: 28 50 12 33 	bfxil	w8, w1, #18, #3
100008580: a8 c3 1f 38 	sturb	w8, [x29, #-4]
100008584: 08 10 80 52 	mov	w8, #128
100008588: 09 10 80 52 	mov	w9, #128
10000858c: 29 44 0c 33 	bfxil	w9, w1, #12, #6
100008590: a9 d3 1f 38 	sturb	w9, [x29, #-3]
100008594: 09 10 80 52 	mov	w9, #128
100008598: 29 2c 06 33 	bfxil	w9, w1, #6, #6
10000859c: a9 e3 1f 38 	sturb	w9, [x29, #-2]
1000085a0: 28 14 00 33 	bfxil	w8, w1, #0, #6
1000085a4: a8 f3 1f 38 	sturb	w8, [x29, #-1]
1000085a8: 82 00 80 52 	mov	w2, #4
1000085ac: a1 13 00 d1 	sub	x1, x29, #4
1000085b0: ae 42 00 94 	bl	0x100019068 <__ZN80_$LT$std..io..Write..write_fmt..Adapter$LT$T$GT$$u20$as$u20$core..fmt..Write$GT$9write_str17h7fe4ea101b20e3fdE>
1000085b4: fd 7b 41 a9 	ldp	x29, x30, [sp, #16]
1000085b8: ff 83 00 91 	add	sp, sp, #32
1000085bc: c0 03 5f d6 	ret

00000001000085c0 <__ZN50_$LT$$RF$mut$u20$W$u20$as$u20$core..fmt..Write$GT$10write_char17hcd0d41c194be6689E>:
1000085c0: fd 7b bf a9 	stp	x29, x30, [sp, #-16]!
1000085c4: fd 03 00 91 	mov	x29, sp
1000085c8: 00 00 40 f9 	ldr	x0, [x0]
1000085cc: bb ee ff 97 	bl	0x1000040b8 <__ZN4core3fmt5Write10write_char17h6274a182763f1803E>
1000085d0: 00 00 80 52 	mov	w0, #0
1000085d4: fd 7b c1 a8 	ldp	x29, x30, [sp], #16
1000085d8: c0 03 5f d6 	ret

00000001000085dc <__ZN50_$LT$$RF$mut$u20$W$u20$as$u20$core..fmt..Write$GT$10write_char17hf9f8cb0988135f12E>:
1000085dc: ff 03 01 d1 	sub	sp, sp, #64
1000085e0: f6 57 01 a9 	stp	x22, x21, [sp, #16]
1000085e4: f4 4f 02 a9 	stp	x20, x19, [sp, #32]
1000085e8: fd 7b 03 a9 	stp	x29, x30, [sp, #48]
1000085ec: fd c3 00 91 	add	x29, sp, #48
1000085f0: f4 03 01 aa 	mov	x20, x1
1000085f4: 13 00 40 f9 	ldr	x19, [x0]
1000085f8: 3f 00 02 71 	cmp	w1, #128
1000085fc: 62 01 00 54 	b.hs	0x100008628 <__ZN50_$LT$$RF$mut$u20$W$u20$as$u20$core..fmt..Write$GT$10write_char17hf9f8cb0988135f12E+0x4c>
100008600: 68 86 40 a9 	ldp	x8, x1, [x19, #8]
100008604: 3f 00 08 eb 	cmp	x1, x8
100008608: 81 00 00 54 	b.ne	0x100008618 <__ZN50_$LT$$RF$mut$u20$W$u20$as$u20$core..fmt..Write$GT$10write_char17hf9f8cb0988135f12E+0x3c>
10000860c: e0 03 13 aa 	mov	x0, x19
100008610: 47 02 00 94 	bl	0x100008f2c <__ZN5alloc7raw_vec19RawVec$LT$T$C$A$GT$16reserve_for_push17h1db37a3af0440001E>
100008614: 61 0a 40 f9 	ldr	x1, [x19, #16]
100008618: 68 02 40 f9 	ldr	x8, [x19]
10000861c: 14 69 21 38 	strb	w20, [x8, x1]
100008620: 28 04 00 91 	add	x8, x1, #1
100008624: 30 00 00 14 	b	0x1000086e4 <__ZN50_$LT$$RF$mut$u20$W$u20$as$u20$core..fmt..Write$GT$10write_char17hf9f8cb0988135f12E+0x108>
100008628: ff 0f 00 b9 	str	wzr, [sp, #12]
10000862c: 9f 02 20 71 	cmp	w20, #2048
100008630: 22 01 00 54 	b.hs	0x100008654 <__ZN50_$LT$$RF$mut$u20$W$u20$as$u20$core..fmt..Write$GT$10write_char17hf9f8cb0988135f12E+0x78>
100008634: 88 7e 06 53 	lsr	w8, w20, #6
100008638: 08 05 1a 32 	orr	w8, w8, #0xc0
10000863c: e8 33 00 39 	strb	w8, [sp, #12]
100008640: 08 10 80 52 	mov	w8, #128
100008644: 88 16 00 33 	bfxil	w8, w20, #0, #6
100008648: e8 37 00 39 	strb	w8, [sp, #13]
10000864c: 54 00 80 52 	mov	w20, #2
100008650: 1b 00 00 14 	b	0x1000086bc <__ZN50_$LT$$RF$mut$u20$W$u20$as$u20$core..fmt..Write$GT$10write_char17hf9f8cb0988135f12E+0xe0>
100008654: 9f 42 40 71 	cmp	w20, #16, lsl #12       ; =65536
100008658: 82 01 00 54 	b.hs	0x100008688 <__ZN50_$LT$$RF$mut$u20$W$u20$as$u20$core..fmt..Write$GT$10write_char17hf9f8cb0988135f12E+0xac>
10000865c: 88 7e 0c 53 	lsr	w8, w20, #12
100008660: 08 09 1b 32 	orr	w8, w8, #0xe0
100008664: e8 33 00 39 	strb	w8, [sp, #12]
100008668: 08 10 80 52 	mov	w8, #128
10000866c: 09 10 80 52 	mov	w9, #128
100008670: 89 2e 06 33 	bfxil	w9, w20, #6, #6
100008674: e9 37 00 39 	strb	w9, [sp, #13]
100008678: 88 16 00 33 	bfxil	w8, w20, #0, #6
10000867c: e8 3b 00 39 	strb	w8, [sp, #14]
100008680: 74 00 80 52 	mov	w20, #3
100008684: 0e 00 00 14 	b	0x1000086bc <__ZN50_$LT$$RF$mut$u20$W$u20$as$u20$core..fmt..Write$GT$10write_char17hf9f8cb0988135f12E+0xe0>
100008688: 08 1e 80 52 	mov	w8, #240
10000868c: 88 52 12 33 	bfxil	w8, w20, #18, #3
100008690: e8 33 00 39 	strb	w8, [sp, #12]
100008694: 08 10 80 52 	mov	w8, #128
100008698: 09 10 80 52 	mov	w9, #128
10000869c: 89 46 0c 33 	bfxil	w9, w20, #12, #6
1000086a0: e9 37 00 39 	strb	w9, [sp, #13]
1000086a4: 09 10 80 52 	mov	w9, #128
1000086a8: 89 2e 06 33 	bfxil	w9, w20, #6, #6
1000086ac: e9 3b 00 39 	strb	w9, [sp, #14]
1000086b0: 88 16 00 33 	bfxil	w8, w20, #0, #6
1000086b4: e8 3f 00 39 	strb	w8, [sp, #15]
1000086b8: 94 00 80 52 	mov	w20, #4
1000086bc: 68 d6 40 a9 	ldp	x8, x21, [x19, #8]
1000086c0: 08 01 15 cb 	sub	x8, x8, x21
1000086c4: 1f 01 14 eb 	cmp	x8, x20
1000086c8: c3 01 00 54 	b.lo	0x100008700 <__ZN50_$LT$$RF$mut$u20$W$u20$as$u20$core..fmt..Write$GT$10write_char17hf9f8cb0988135f12E+0x124>
1000086cc: 68 02 40 f9 	ldr	x8, [x19]
1000086d0: 00 01 15 8b 	add	x0, x8, x21
1000086d4: e1 33 00 91 	add	x1, sp, #12
1000086d8: e2 03 14 aa 	mov	x2, x20
1000086dc: 03 ab 00 94 	bl	0x1000332e8 <_write+0x1000332e8>
1000086e0: a8 02 14 8b 	add	x8, x21, x20
1000086e4: 68 0a 00 f9 	str	x8, [x19, #16]
1000086e8: 00 00 80 52 	mov	w0, #0
1000086ec: fd 7b 43 a9 	ldp	x29, x30, [sp, #48]
1000086f0: f4 4f 42 a9 	ldp	x20, x19, [sp, #32]
1000086f4: f6 57 41 a9 	ldp	x22, x21, [sp, #16]
1000086f8: ff 03 01 91 	add	sp, sp, #64
1000086fc: c0 03 5f d6 	ret
100008700: e0 03 13 aa 	mov	x0, x19
100008704: e1 03 15 aa 	mov	x1, x21
100008708: e2 03 14 aa 	mov	x2, x20
10000870c: e1 a7 00 94 	bl	0x100032690 <__ZN5alloc7raw_vec19RawVec$LT$T$C$A$GT$7reserve21do_reserve_and_handle17hd2f100e40d646eedE>
100008710: 75 0a 40 f9 	ldr	x21, [x19, #16]
100008714: ee ff ff 17 	b	0x1000086cc <__ZN50_$LT$$RF$mut$u20$W$u20$as$u20$core..fmt..Write$GT$10write_char17hf9f8cb0988135f12E+0xf0>

0000000100008718 <__ZN50_$LT$$RF$mut$u20$W$u20$as$u20$core..fmt..Write$GT$9write_fmt17h1eab180255c04589E>:
100008718: ff 43 01 d1 	sub	sp, sp, #80
10000871c: fd 7b 04 a9 	stp	x29, x30, [sp, #64]
100008720: fd 03 01 91 	add	x29, sp, #64
100008724: 08 00 40 f9 	ldr	x8, [x0]
100008728: e8 07 00 f9 	str	x8, [sp, #8]
10000872c: 20 04 40 ad 	ldp	q0, q1, [x1]
100008730: e0 87 00 ad 	stp	q0, q1, [sp, #16]
100008734: 20 08 c0 3d 	ldr	q0, [x1, #32]
100008738: e0 0f 80 3d 	str	q0, [sp, #48]
10000873c: e1 dd 1b 10 	adr	x1, #228284
100008740: 1f 20 03 d5 	nop
100008744: e0 23 00 91 	add	x0, sp, #8
100008748: e2 43 00 91 	add	x2, sp, #16
10000874c: 56 90 00 94 	bl	0x10002c8a4 <__ZN4core3fmt5write17h91497fd291c8b104E>
100008750: fd 7b 44 a9 	ldp	x29, x30, [sp, #64]
100008754: ff 43 01 91 	add	sp, sp, #80
100008758: c0 03 5f d6 	ret

000000010000875c <__ZN50_$LT$$RF$mut$u20$W$u20$as$u20$core..fmt..Write$GT$9write_fmt17h4ab798430e5415c7E>:
10000875c: ff 43 01 d1 	sub	sp, sp, #80
100008760: fd 7b 04 a9 	stp	x29, x30, [sp, #64]
100008764: fd 03 01 91 	add	x29, sp, #64
100008768: 08 00 40 f9 	ldr	x8, [x0]
10000876c: e8 07 00 f9 	str	x8, [sp, #8]
100008770: 20 04 40 ad 	ldp	q0, q1, [x1]
100008774: e0 87 00 ad 	stp	q0, q1, [sp, #16]
100008778: 20 08 c0 3d 	ldr	q0, [x1, #32]
10000877c: e0 0f 80 3d 	str	q0, [sp, #48]
100008780: c1 d8 1b 10 	adr	x1, #228120
100008784: 1f 20 03 d5 	nop
100008788: e0 23 00 91 	add	x0, sp, #8
10000878c: e2 43 00 91 	add	x2, sp, #16
100008790: 45 90 00 94 	bl	0x10002c8a4 <__ZN4core3fmt5write17h91497fd291c8b104E>
100008794: fd 7b 44 a9 	ldp	x29, x30, [sp, #64]
100008798: ff 43 01 91 	add	sp, sp, #80
10000879c: c0 03 5f d6 	ret

00000001000087a0 <__ZN50_$LT$$RF$mut$u20$W$u20$as$u20$core..fmt..Write$GT$9write_fmt17h9f2bc8ed8710ca60E>:
1000087a0: ff 43 01 d1 	sub	sp, sp, #80
1000087a4: fd 7b 04 a9 	stp	x29, x30, [sp, #64]
1000087a8: fd 03 01 91 	add	x29, sp, #64
1000087ac: 08 00 40 f9 	ldr	x8, [x0]
1000087b0: e8 07 00 f9 	str	x8, [sp, #8]
1000087b4: 20 04 40 ad 	ldp	q0, q1, [x1]
1000087b8: e0 87 00 ad 	stp	q0, q1, [sp, #16]
1000087bc: 20 08 c0 3d 	ldr	q0, [x1, #32]
1000087c0: e0 0f 80 3d 	str	q0, [sp, #48]
1000087c4: 21 d5 1b 10 	adr	x1, #228004
1000087c8: 1f 20 03 d5 	nop
1000087cc: e0 23 00 91 	add	x0, sp, #8
1000087d0: e2 43 00 91 	add	x2, sp, #16
1000087d4: 34 90 00 94 	bl	0x10002c8a4 <__ZN4core3fmt5write17h91497fd291c8b104E>
1000087d8: fd 7b 44 a9 	ldp	x29, x30, [sp, #64]
1000087dc: ff 43 01 91 	add	sp, sp, #80
1000087e0: c0 03 5f d6 	ret

00000001000087e4 <__ZN50_$LT$$RF$mut$u20$W$u20$as$u20$core..fmt..Write$GT$9write_fmt17he1b26c0f6fbcd299E>:
1000087e4: ff 43 01 d1 	sub	sp, sp, #80
1000087e8: fd 7b 04 a9 	stp	x29, x30, [sp, #64]
1000087ec: fd 03 01 91 	add	x29, sp, #64
1000087f0: 08 00 40 f9 	ldr	x8, [x0]
1000087f4: e8 07 00 f9 	str	x8, [sp, #8]
1000087f8: 20 04 40 ad 	ldp	q0, q1, [x1]
1000087fc: e0 87 00 ad 	stp	q0, q1, [sp, #16]
100008800: 20 08 c0 3d 	ldr	q0, [x1, #32]
100008804: e0 0f 80 3d 	str	q0, [sp, #48]
100008808: 01 d6 1b 10 	adr	x1, #228032
10000880c: 1f 20 03 d5 	nop
100008810: e0 23 00 91 	add	x0, sp, #8
100008814: e2 43 00 91 	add	x2, sp, #16
100008818: 23 90 00 94 	bl	0x10002c8a4 <__ZN4core3fmt5write17h91497fd291c8b104E>
10000881c: fd 7b 44 a9 	ldp	x29, x30, [sp, #64]
100008820: ff 43 01 91 	add	sp, sp, #80
100008824: c0 03 5f d6 	ret

0000000100008828 <__ZN50_$LT$$RF$mut$u20$W$u20$as$u20$core..fmt..Write$GT$9write_str17h42ff7206e8f66d61E>:
100008828: 00 00 40 f9 	ldr	x0, [x0]
10000882c: 9f 41 00 14 	b	0x100018ea8 <__ZN80_$LT$std..io..Write..write_fmt..Adapter$LT$T$GT$$u20$as$u20$core..fmt..Write$GT$9write_str17h099124ba230a2302E>

0000000100008830 <__ZN50_$LT$$RF$mut$u20$W$u20$as$u20$core..fmt..Write$GT$9write_str17he822661da7f784bcE>:
100008830: f6 57 bd a9 	stp	x22, x21, [sp, #-48]!
100008834: f4 4f 01 a9 	stp	x20, x19, [sp, #16]
100008838: fd 7b 02 a9 	stp	x29, x30, [sp, #32]
10000883c: fd 83 00 91 	add	x29, sp, #32
100008840: f3 03 02 aa 	mov	x19, x2
100008844: f5 03 01 aa 	mov	x21, x1
100008848: 14 00 40 f9 	ldr	x20, [x0]
10000884c: 88 da 40 a9 	ldp	x8, x22, [x20, #8]
100008850: 08 01 16 cb 	sub	x8, x8, x22
100008854: 1f 01 02 eb 	cmp	x8, x2
100008858: a3 01 00 54 	b.lo	0x10000888c <__ZN50_$LT$$RF$mut$u20$W$u20$as$u20$core..fmt..Write$GT$9write_str17he822661da7f784bcE+0x5c>
10000885c: 88 02 40 f9 	ldr	x8, [x20]
100008860: 00 01 16 8b 	add	x0, x8, x22
100008864: e1 03 15 aa 	mov	x1, x21
100008868: e2 03 13 aa 	mov	x2, x19
10000886c: 9f aa 00 94 	bl	0x1000332e8 <_write+0x1000332e8>
100008870: c8 02 13 8b 	add	x8, x22, x19
100008874: 88 0a 00 f9 	str	x8, [x20, #16]
100008878: 00 00 80 52 	mov	w0, #0
10000887c: fd 7b 42 a9 	ldp	x29, x30, [sp, #32]
100008880: f4 4f 41 a9 	ldp	x20, x19, [sp, #16]
100008884: f6 57 c3 a8 	ldp	x22, x21, [sp], #48
100008888: c0 03 5f d6 	ret
10000888c: e0 03 14 aa 	mov	x0, x20
100008890: e1 03 16 aa 	mov	x1, x22
100008894: e2 03 13 aa 	mov	x2, x19
100008898: 7e a7 00 94 	bl	0x100032690 <__ZN5alloc7raw_vec19RawVec$LT$T$C$A$GT$7reserve21do_reserve_and_handle17hd2f100e40d646eedE>
10000889c: 96 0a 40 f9 	ldr	x22, [x20, #16]
1000088a0: ef ff ff 17 	b	0x10000885c <__ZN50_$LT$$RF$mut$u20$W$u20$as$u20$core..fmt..Write$GT$9write_str17he822661da7f784bcE+0x2c>

00000001000088a4 <__ZN50_$LT$$RF$mut$u20$W$u20$as$u20$core..fmt..Write$GT$9write_str17hf4f885829f15e3d2E>:
1000088a4: f6 57 bd a9 	stp	x22, x21, [sp, #-48]!
1000088a8: f4 4f 01 a9 	stp	x20, x19, [sp, #16]
1000088ac: fd 7b 02 a9 	stp	x29, x30, [sp, #32]
1000088b0: fd 83 00 91 	add	x29, sp, #32
1000088b4: f3 03 02 aa 	mov	x19, x2
1000088b8: f5 03 01 aa 	mov	x21, x1
1000088bc: 08 00 40 f9 	ldr	x8, [x0]
1000088c0: 14 01 40 f9 	ldr	x20, [x8]
1000088c4: 88 da 40 a9 	ldp	x8, x22, [x20, #8]
1000088c8: 08 01 16 cb 	sub	x8, x8, x22
1000088cc: 1f 01 02 eb 	cmp	x8, x2
1000088d0: a3 01 00 54 	b.lo	0x100008904 <__ZN50_$LT$$RF$mut$u20$W$u20$as$u20$core..fmt..Write$GT$9write_str17hf4f885829f15e3d2E+0x60>
1000088d4: 88 02 40 f9 	ldr	x8, [x20]
1000088d8: 00 01 16 8b 	add	x0, x8, x22
1000088dc: e1 03 15 aa 	mov	x1, x21
1000088e0: e2 03 13 aa 	mov	x2, x19
1000088e4: 81 aa 00 94 	bl	0x1000332e8 <_write+0x1000332e8>
1000088e8: c8 02 13 8b 	add	x8, x22, x19
1000088ec: 88 0a 00 f9 	str	x8, [x20, #16]
1000088f0: 00 00 80 52 	mov	w0, #0
1000088f4: fd 7b 42 a9 	ldp	x29, x30, [sp, #32]
1000088f8: f4 4f 41 a9 	ldp	x20, x19, [sp, #16]
1000088fc: f6 57 c3 a8 	ldp	x22, x21, [sp], #48
100008900: c0 03 5f d6 	ret
100008904: e0 03 14 aa 	mov	x0, x20
100008908: e1 03 16 aa 	mov	x1, x22
10000890c: e2 03 13 aa 	mov	x2, x19
100008910: 60 a7 00 94 	bl	0x100032690 <__ZN5alloc7raw_vec19RawVec$LT$T$C$A$GT$7reserve21do_reserve_and_handle17hd2f100e40d646eedE>
100008914: 96 0a 40 f9 	ldr	x22, [x20, #16]
100008918: ef ff ff 17 	b	0x1000088d4 <__ZN50_$LT$$RF$mut$u20$W$u20$as$u20$core..fmt..Write$GT$9write_str17hf4f885829f15e3d2E+0x30>

000000010000891c <__ZN50_$LT$$RF$mut$u20$W$u20$as$u20$core..fmt..Write$GT$9write_str17hfea00714ee4a46cfE>:
10000891c: 00 00 40 f9 	ldr	x0, [x0]
100008920: d2 41 00 14 	b	0x100019068 <__ZN80_$LT$std..io..Write..write_fmt..Adapter$LT$T$GT$$u20$as$u20$core..fmt..Write$GT$9write_str17h7fe4ea101b20e3fdE>

0000000100008924 <__ZN58_$LT$alloc..string..String$u20$as$u20$core..fmt..Debug$GT$3fmt17h1da574a1441ce2d4E>:
100008924: e2 03 01 aa 	mov	x2, x1
100008928: 08 00 40 f9 	ldr	x8, [x0]
10000892c: 01 08 40 f9 	ldr	x1, [x0, #16]
100008930: e0 03 08 aa 	mov	x0, x8
100008934: c9 93 00 14 	b	0x10002d858 <__ZN40_$LT$str$u20$as$u20$core..fmt..Debug$GT$3fmt17h107406a9ffe08118E>

0000000100008938 <__ZN5alloc11collections5btree3map25IntoIter$LT$K$C$V$C$A$GT$10dying_next17he64b4ff40726dcbcE>:
100008938: ff 83 01 d1 	sub	sp, sp, #96
10000893c: fa 67 01 a9 	stp	x26, x25, [sp, #16]
100008940: f8 5f 02 a9 	stp	x24, x23, [sp, #32]
100008944: f6 57 03 a9 	stp	x22, x21, [sp, #48]
100008948: f4 4f 04 a9 	stp	x20, x19, [sp, #64]
10000894c: fd 7b 05 a9 	stp	x29, x30, [sp, #80]
100008950: fd 43 01 91 	add	x29, sp, #80
100008954: f4 03 01 aa 	mov	x20, x1
100008958: f3 03 00 aa 	mov	x19, x0
10000895c: 28 20 40 f9 	ldr	x8, [x1, #64]
100008960: 88 04 00 b4 	cbz	x8, 0x1000089f0 <__ZN5alloc11collections5btree3map25IntoIter$LT$K$C$V$C$A$GT$10dying_next17he64b4ff40726dcbcE+0xb8>
100008964: 08 05 00 d1 	sub	x8, x8, #1
100008968: 88 22 00 f9 	str	x8, [x20, #64]
10000896c: 88 02 40 f9 	ldr	x8, [x20]
100008970: 28 05 00 b4 	cbz	x8, 0x100008a14 <__ZN5alloc11collections5btree3map25IntoIter$LT$K$C$V$C$A$GT$10dying_next17he64b4ff40726dcbcE+0xdc>
100008974: 1f 09 00 f1 	cmp	x8, #2
100008978: 60 0c 00 54 	b.eq	0x100008b04 <__ZN5alloc11collections5btree3map25IntoIter$LT$K$C$V$C$A$GT$10dying_next17he64b4ff40726dcbcE+0x1cc>
10000897c: 88 82 40 a9 	ldp	x8, x0, [x20, #8]
100008980: 95 0e 40 f9 	ldr	x21, [x20, #24]
100008984: 09 64 4a 79 	ldrh	w9, [x0, #1330]
100008988: bf 02 09 eb 	cmp	x21, x9
10000898c: 03 06 00 54 	b.lo	0x100008a4c <__ZN5alloc11collections5btree3map25IntoIter$LT$K$C$V$C$A$GT$10dying_next17he64b4ff40726dcbcE+0x114>
100008990: 18 b3 80 52 	mov	w24, #1432
100008994: 19 a7 80 52 	mov	w25, #1336
100008998: 16 00 40 f9 	ldr	x22, [x0]
10000899c: b6 09 00 b4 	cbz	x22, 0x100008ad0 <__ZN5alloc11collections5btree3map25IntoIter$LT$K$C$V$C$A$GT$10dying_next17he64b4ff40726dcbcE+0x198>
1000089a0: 15 60 4a 79 	ldrh	w21, [x0, #1328]
1000089a4: 17 05 00 91 	add	x23, x8, #1
1000089a8: 1f 01 00 f1 	cmp	x8, #0
1000089ac: 21 03 98 9a 	csel	x1, x25, x24, eq
1000089b0: 02 01 80 52 	mov	w2, #8
1000089b4: 39 ed ff 97 	bl	0x100003e98 <___rust_dealloc>
1000089b8: c9 66 4a 79 	ldrh	w9, [x22, #1330]
1000089bc: e8 03 17 aa 	mov	x8, x23
1000089c0: e0 03 16 aa 	mov	x0, x22
1000089c4: bf 02 09 6b 	cmp	w21, w9
1000089c8: 82 fe ff 54 	b.hs	0x100008998 <__ZN5alloc11collections5btree3map25IntoIter$LT$K$C$V$C$A$GT$10dying_next17he64b4ff40726dcbcE+0x60>
1000089cc: 77 04 00 b4 	cbz	x23, 0x100008a58 <__ZN5alloc11collections5btree3map25IntoIter$LT$K$C$V$C$A$GT$10dying_next17he64b4ff40726dcbcE+0x120>
1000089d0: c8 0e 15 8b 	add	x8, x22, x21, lsl #3
1000089d4: 08 a1 42 f9 	ldr	x8, [x8, #1344]
1000089d8: e9 06 00 f1 	subs	x9, x23, #1
1000089dc: 20 04 00 54 	b.eq	0x100008a60 <__ZN5alloc11collections5btree3map25IntoIter$LT$K$C$V$C$A$GT$10dying_next17he64b4ff40726dcbcE+0x128>
1000089e0: 08 9d 42 f9 	ldr	x8, [x8, #1336]
1000089e4: 29 05 00 f1 	subs	x9, x9, #1
1000089e8: c1 ff ff 54 	b.ne	0x1000089e0 <__ZN5alloc11collections5btree3map25IntoIter$LT$K$C$V$C$A$GT$10dying_next17he64b4ff40726dcbcE+0xa8>
1000089ec: 1d 00 00 14 	b	0x100008a60 <__ZN5alloc11collections5btree3map25IntoIter$LT$K$C$V$C$A$GT$10dying_next17he64b4ff40726dcbcE+0x128>
1000089f0: 89 22 40 a9 	ldp	x9, x8, [x20]
1000089f4: 80 0a 40 f9 	ldr	x0, [x20, #16]
1000089f8: 4a 00 80 52 	mov	w10, #2
1000089fc: 8a 02 00 f9 	str	x10, [x20]
100008a00: a9 03 00 b4 	cbz	x9, 0x100008a74 <__ZN5alloc11collections5btree3map25IntoIter$LT$K$C$V$C$A$GT$10dying_next17he64b4ff40726dcbcE+0x13c>
100008a04: 3f 05 00 f1 	cmp	x9, #1
100008a08: 04 08 40 fa 	ccmp	x0, #0, #4, eq
100008a0c: 20 05 00 54 	b.eq	0x100008ab0 <__ZN5alloc11collections5btree3map25IntoIter$LT$K$C$V$C$A$GT$10dying_next17he64b4ff40726dcbcE+0x178>
100008a10: 1d 00 00 14 	b	0x100008a84 <__ZN5alloc11collections5btree3map25IntoIter$LT$K$C$V$C$A$GT$10dying_next17he64b4ff40726dcbcE+0x14c>
100008a14: 88 82 40 a9 	ldp	x8, x0, [x20, #8]
100008a18: 88 00 00 b4 	cbz	x8, 0x100008a28 <__ZN5alloc11collections5btree3map25IntoIter$LT$K$C$V$C$A$GT$10dying_next17he64b4ff40726dcbcE+0xf0>
100008a1c: 00 9c 42 f9 	ldr	x0, [x0, #1336]
100008a20: 08 05 00 f1 	subs	x8, x8, #1
100008a24: c1 ff ff 54 	b.ne	0x100008a1c <__ZN5alloc11collections5btree3map25IntoIter$LT$K$C$V$C$A$GT$10dying_next17he64b4ff40726dcbcE+0xe4>
100008a28: 15 00 80 d2 	mov	x21, #0
100008a2c: 08 00 80 d2 	mov	x8, #0
100008a30: 1f 20 03 d5 	nop
100008a34: 60 cd 15 9c 	ldr	q0, 0x1000343e0 <_write+0x1000343e0>
100008a38: 80 02 80 3d 	str	q0, [x20]
100008a3c: 80 7e 01 a9 	stp	x0, xzr, [x20, #16]
100008a40: 09 64 4a 79 	ldrh	w9, [x0, #1330]
100008a44: bf 02 09 eb 	cmp	x21, x9
100008a48: 42 fa ff 54 	b.hs	0x100008990 <__ZN5alloc11collections5btree3map25IntoIter$LT$K$C$V$C$A$GT$10dying_next17he64b4ff40726dcbcE+0x58>
100008a4c: f6 03 00 aa 	mov	x22, x0
100008a50: f7 03 08 aa 	mov	x23, x8
100008a54: e8 fb ff b5 	cbnz	x8, 0x1000089d0 <__ZN5alloc11collections5btree3map25IntoIter$LT$K$C$V$C$A$GT$10dying_next17he64b4ff40726dcbcE+0x98>
100008a58: a9 06 00 91 	add	x9, x21, #1
100008a5c: e8 03 16 aa 	mov	x8, x22
100008a60: 9f a2 00 a9 	stp	xzr, x8, [x20, #8]
100008a64: 89 0e 00 f9 	str	x9, [x20, #24]
100008a68: 77 5a 00 a9 	stp	x23, x22, [x19]
100008a6c: 75 0a 00 f9 	str	x21, [x19, #16]
100008a70: 11 00 00 14 	b	0x100008ab4 <__ZN5alloc11collections5btree3map25IntoIter$LT$K$C$V$C$A$GT$10dying_next17he64b4ff40726dcbcE+0x17c>
100008a74: 88 00 00 b4 	cbz	x8, 0x100008a84 <__ZN5alloc11collections5btree3map25IntoIter$LT$K$C$V$C$A$GT$10dying_next17he64b4ff40726dcbcE+0x14c>
100008a78: 00 9c 42 f9 	ldr	x0, [x0, #1336]
100008a7c: 08 05 00 f1 	subs	x8, x8, #1
100008a80: c1 ff ff 54 	b.ne	0x100008a78 <__ZN5alloc11collections5btree3map25IntoIter$LT$K$C$V$C$A$GT$10dying_next17he64b4ff40726dcbcE+0x140>
100008a84: 14 b3 80 52 	mov	w20, #1432
100008a88: 15 a7 80 52 	mov	w21, #1336
100008a8c: 16 00 40 f9 	ldr	x22, [x0]
100008a90: 17 05 00 91 	add	x23, x8, #1
100008a94: 1f 01 00 f1 	cmp	x8, #0
100008a98: a1 02 94 9a 	csel	x1, x21, x20, eq
100008a9c: 02 01 80 52 	mov	w2, #8
100008aa0: fe ec ff 97 	bl	0x100003e98 <___rust_dealloc>
100008aa4: e0 03 16 aa 	mov	x0, x22
100008aa8: e8 03 17 aa 	mov	x8, x23
100008aac: 16 ff ff b5 	cbnz	x22, 0x100008a8c <__ZN5alloc11collections5btree3map25IntoIter$LT$K$C$V$C$A$GT$10dying_next17he64b4ff40726dcbcE+0x154>
100008ab0: 7f 06 00 f9 	str	xzr, [x19, #8]
100008ab4: fd 7b 45 a9 	ldp	x29, x30, [sp, #80]
100008ab8: f4 4f 44 a9 	ldp	x20, x19, [sp, #64]
100008abc: f6 57 43 a9 	ldp	x22, x21, [sp, #48]
100008ac0: f8 5f 42 a9 	ldp	x24, x23, [sp, #32]
100008ac4: fa 67 41 a9 	ldp	x26, x25, [sp, #16]
100008ac8: ff 83 01 91 	add	sp, sp, #96
100008acc: c0 03 5f d6 	ret
100008ad0: 09 b3 80 52 	mov	w9, #1432
100008ad4: 0a a7 80 52 	mov	w10, #1336
100008ad8: 1f 01 00 f1 	cmp	x8, #0
100008adc: 41 01 89 9a 	csel	x1, x10, x9, eq
100008ae0: 02 01 80 52 	mov	w2, #8
100008ae4: ed ec ff 97 	bl	0x100003e98 <___rust_dealloc>
100008ae8: 60 fa 15 30 	adr	x0, #180045
100008aec: 1f 20 03 d5 	nop
100008af0: 82 d1 1b 10 	adr	x2, #227888
100008af4: 1f 20 03 d5 	nop
100008af8: 61 05 80 52 	mov	w1, #43
100008afc: 2d a9 00 94 	bl	0x100032fb0 <__ZN4core9panicking5panic17h5713e7735cef5fa8E>
100008b00: 20 00 20 d4 	brk	#0x1
100008b04: 80 f9 15 30 	adr	x0, #180017
100008b08: 1f 20 03 d5 	nop
100008b0c: 62 d1 1b 10 	adr	x2, #227884
100008b10: 1f 20 03 d5 	nop
100008b14: 61 05 80 52 	mov	w1, #43
100008b18: 26 a9 00 94 	bl	0x100032fb0 <__ZN4core9panicking5panic17h5713e7735cef5fa8E>
100008b1c: f3 03 00 aa 	mov	x19, x0
100008b20: e0 23 00 91 	add	x0, sp, #8
100008b24: 54 f3 ff 97 	bl	0x100005874 <__ZN4core3ptr72drop_in_place$LT$alloc..collections..btree..mem..replace..PanicGuard$GT$17h7efe9fc858c4f0a0E>
100008b28: e0 03 13 aa 	mov	x0, x19
100008b2c: b3 a9 00 94 	bl	0x1000331f8 <_write+0x1000331f8>
100008b30: 42 a9 00 94 	bl	0x100033038 <__ZN4core9panicking15panic_no_unwind17h6c18a18997fce2b1E>

0000000100008b34 <__ZN5alloc4sync12Arc$LT$T$GT$9drop_slow17h17af050b87b3e196E>:
100008b34: f4 4f be a9 	stp	x20, x19, [sp, #-32]!
100008b38: fd 7b 01 a9 	stp	x29, x30, [sp, #16]
100008b3c: fd 43 00 91 	add	x29, sp, #16
100008b40: f3 03 00 aa 	mov	x19, x0
100008b44: 00 40 00 91 	add	x0, x0, #16
100008b48: b3 52 00 94 	bl	0x10001d614 <__ZN65_$LT$std..sys..unix..fs..Dir$u20$as$u20$core..ops..drop..Drop$GT$4drop17h8f46cffb6a9cd864E>
100008b4c: 61 12 40 f9 	ldr	x1, [x19, #32]
100008b50: a1 00 00 b4 	cbz	x1, 0x100008b64 <__ZN5alloc4sync12Arc$LT$T$GT$9drop_slow17h17af050b87b3e196E+0x30>
100008b54: 60 0e 40 f9 	ldr	x0, [x19, #24]
100008b58: e8 03 21 aa 	mvn	x8, x1
100008b5c: 02 fd 7f d3 	lsr	x2, x8, #63
100008b60: ce ec ff 97 	bl	0x100003e98 <___rust_dealloc>
100008b64: 7f 06 00 b1 	cmn	x19, #1
100008b68: a0 01 00 54 	b.eq	0x100008b9c <__ZN5alloc4sync12Arc$LT$T$GT$9drop_slow17h17af050b87b3e196E+0x68>
100008b6c: 68 22 00 91 	add	x8, x19, #8
100008b70: 09 00 80 92 	mov	x9, #-1
100008b74: 08 01 69 f8 	<unknown>
100008b78: 1f 05 00 f1 	cmp	x8, #1
100008b7c: 01 01 00 54 	b.ne	0x100008b9c <__ZN5alloc4sync12Arc$LT$T$GT$9drop_slow17h17af050b87b3e196E+0x68>
100008b80: bf 39 03 d5 	dmb	ishld
100008b84: e0 03 13 aa 	mov	x0, x19
100008b88: 01 06 80 52 	mov	w1, #48
100008b8c: 02 01 80 52 	mov	w2, #8
100008b90: fd 7b 41 a9 	ldp	x29, x30, [sp, #16]
100008b94: f4 4f c2 a8 	ldp	x20, x19, [sp], #32
100008b98: c0 ec ff 17 	b	0x100003e98 <___rust_dealloc>
100008b9c: fd 7b 41 a9 	ldp	x29, x30, [sp, #16]
100008ba0: f4 4f c2 a8 	ldp	x20, x19, [sp], #32
100008ba4: c0 03 5f d6 	ret
100008ba8: f4 03 00 aa 	mov	x20, x0
100008bac: 60 62 00 91 	add	x0, x19, #24
100008bb0: 9d f0 ff 97 	bl	0x100004e24 <__ZN4core3ptr205drop_in_place$LT$$LT$alloc..boxed..Box$LT$dyn$u20$core..error..Error$u2b$core..marker..Send$u2b$core..marker..Sync$GT$$u20$as$u20$core..convert..From$LT$alloc..string..String$GT$$GT$..from..StringError$GT$17hefc62b84e80df53bE>
100008bb4: e0 03 14 aa 	mov	x0, x20
100008bb8: 90 a9 00 94 	bl	0x1000331f8 <_write+0x1000331f8>

0000000100008bbc <__ZN5alloc4sync12Arc$LT$T$GT$9drop_slow17h6c908b99dc68b983E>:
100008bbc: 1f 04 00 b1 	cmn	x0, #1
100008bc0: 40 01 00 54 	b.eq	0x100008be8 <__ZN5alloc4sync12Arc$LT$T$GT$9drop_slow17h6c908b99dc68b983E+0x2c>
100008bc4: 08 20 00 91 	add	x8, x0, #8
100008bc8: 09 00 80 92 	mov	x9, #-1
100008bcc: 08 01 69 f8 	<unknown>
100008bd0: 1f 05 00 f1 	cmp	x8, #1
100008bd4: a1 00 00 54 	b.ne	0x100008be8 <__ZN5alloc4sync12Arc$LT$T$GT$9drop_slow17h6c908b99dc68b983E+0x2c>
100008bd8: bf 39 03 d5 	dmb	ishld
100008bdc: 01 14 80 52 	mov	w1, #160
100008be0: 02 01 80 52 	mov	w2, #8
100008be4: ad ec ff 17 	b	0x100003e98 <___rust_dealloc>
100008be8: c0 03 5f d6 	ret

0000000100008bec <__ZN5alloc4sync12Arc$LT$T$GT$9drop_slow17h940c2712cbbf3755E>:
100008bec: f4 4f be a9 	stp	x20, x19, [sp, #-32]!
100008bf0: fd 7b 01 a9 	stp	x29, x30, [sp, #16]
100008bf4: fd 43 00 91 	add	x29, sp, #16
100008bf8: f3 03 00 aa 	mov	x19, x0
100008bfc: 08 08 40 f9 	ldr	x8, [x0, #16]
100008c00: e8 00 00 b4 	cbz	x8, 0x100008c1c <__ZN5alloc4sync12Arc$LT$T$GT$9drop_slow17h940c2712cbbf3755E+0x30>
100008c04: 1f 01 00 39 	strb	wzr, [x8]
100008c08: 61 0e 40 f9 	ldr	x1, [x19, #24]
100008c0c: 81 00 00 b4 	cbz	x1, 0x100008c1c <__ZN5alloc4sync12Arc$LT$T$GT$9drop_slow17h940c2712cbbf3755E+0x30>
100008c10: 60 0a 40 f9 	ldr	x0, [x19, #16]
100008c14: 22 00 80 52 	mov	w2, #1
100008c18: a0 ec ff 97 	bl	0x100003e98 <___rust_dealloc>
100008c1c: 60 c2 01 91 	add	x0, x19, #112
100008c20: ca a9 00 94 	bl	0x100033348 <_write+0x100033348>
100008c24: 60 c2 00 91 	add	x0, x19, #48
100008c28: d7 a9 00 94 	bl	0x100033384 <_write+0x100033384>
100008c2c: 7f 06 00 b1 	cmn	x19, #1
100008c30: a0 01 00 54 	b.eq	0x100008c64 <__ZN5alloc4sync12Arc$LT$T$GT$9drop_slow17h940c2712cbbf3755E+0x78>
100008c34: 68 22 00 91 	add	x8, x19, #8
100008c38: 09 00 80 92 	mov	x9, #-1
100008c3c: 08 01 69 f8 	<unknown>
100008c40: 1f 05 00 f1 	cmp	x8, #1
100008c44: 01 01 00 54 	b.ne	0x100008c64 <__ZN5alloc4sync12Arc$LT$T$GT$9drop_slow17h940c2712cbbf3755E+0x78>
100008c48: bf 39 03 d5 	dmb	ishld
100008c4c: e0 03 13 aa 	mov	x0, x19
100008c50: 01 14 80 52 	mov	w1, #160
100008c54: 02 01 80 52 	mov	w2, #8
100008c58: fd 7b 41 a9 	ldp	x29, x30, [sp, #16]
100008c5c: f4 4f c2 a8 	ldp	x20, x19, [sp], #32
100008c60: 8e ec ff 17 	b	0x100003e98 <___rust_dealloc>
100008c64: fd 7b 41 a9 	ldp	x29, x30, [sp, #16]
100008c68: f4 4f c2 a8 	ldp	x20, x19, [sp], #32
100008c6c: c0 03 5f d6 	ret

0000000100008c70 <__ZN5alloc4sync12Arc$LT$T$GT$9drop_slow17hb0f4e3a17d6d6042E>:
100008c70: f4 4f be a9 	stp	x20, x19, [sp, #-32]!
100008c74: fd 7b 01 a9 	stp	x29, x30, [sp, #16]
100008c78: fd 43 00 91 	add	x29, sp, #16
100008c7c: f3 03 00 aa 	mov	x19, x0
100008c80: 14 08 40 f9 	ldr	x20, [x0, #16]
100008c84: 94 00 00 b4 	cbz	x20, 0x100008c94 <__ZN5alloc4sync12Arc$LT$T$GT$9drop_slow17hb0f4e3a17d6d6042E+0x24>
100008c88: e0 03 14 aa 	mov	x0, x20
100008c8c: c7 a9 00 94 	bl	0x1000333a8 <_write+0x1000333a8>
100008c90: 00 03 00 34 	cbz	w0, 0x100008cf0 <__ZN5alloc4sync12Arc$LT$T$GT$9drop_slow17hb0f4e3a17d6d6042E+0x80>
100008c94: 61 16 40 f9 	ldr	x1, [x19, #40]
100008c98: a1 00 00 b4 	cbz	x1, 0x100008cac <__ZN5alloc4sync12Arc$LT$T$GT$9drop_slow17hb0f4e3a17d6d6042E+0x3c>
100008c9c: 60 12 40 f9 	ldr	x0, [x19, #32]
100008ca0: e8 03 21 aa 	mvn	x8, x1
100008ca4: 02 fd 7f d3 	lsr	x2, x8, #63
100008ca8: 7c ec ff 97 	bl	0x100003e98 <___rust_dealloc>
100008cac: 7f 06 00 b1 	cmn	x19, #1
100008cb0: a0 01 00 54 	b.eq	0x100008ce4 <__ZN5alloc4sync12Arc$LT$T$GT$9drop_slow17hb0f4e3a17d6d6042E+0x74>
100008cb4: 68 22 00 91 	add	x8, x19, #8
100008cb8: 09 00 80 92 	mov	x9, #-1
100008cbc: 08 01 69 f8 	<unknown>
100008cc0: 1f 05 00 f1 	cmp	x8, #1
100008cc4: 01 01 00 54 	b.ne	0x100008ce4 <__ZN5alloc4sync12Arc$LT$T$GT$9drop_slow17hb0f4e3a17d6d6042E+0x74>
100008cc8: bf 39 03 d5 	dmb	ishld
100008ccc: e0 03 13 aa 	mov	x0, x19
100008cd0: 01 07 80 52 	mov	w1, #56
100008cd4: 02 01 80 52 	mov	w2, #8
100008cd8: fd 7b 41 a9 	ldp	x29, x30, [sp, #16]
100008cdc: f4 4f c2 a8 	ldp	x20, x19, [sp], #32
100008ce0: 6e ec ff 17 	b	0x100003e98 <___rust_dealloc>
100008ce4: fd 7b 41 a9 	ldp	x29, x30, [sp, #16]
100008ce8: f4 4f c2 a8 	ldp	x20, x19, [sp], #32
100008cec: c0 03 5f d6 	ret
100008cf0: e0 03 14 aa 	mov	x0, x20
100008cf4: b0 a9 00 94 	bl	0x1000333b4 <_write+0x1000333b4>
100008cf8: e0 03 14 aa 	mov	x0, x20
100008cfc: a2 a9 00 94 	bl	0x100033384 <_write+0x100033384>
100008d00: e0 03 14 aa 	mov	x0, x20
100008d04: 01 08 80 52 	mov	w1, #64
100008d08: 02 01 80 52 	mov	w2, #8
100008d0c: 63 ec ff 97 	bl	0x100003e98 <___rust_dealloc>
100008d10: 61 16 40 f9 	ldr	x1, [x19, #40]
100008d14: 41 fc ff b5 	cbnz	x1, 0x100008c9c <__ZN5alloc4sync12Arc$LT$T$GT$9drop_slow17hb0f4e3a17d6d6042E+0x2c>
100008d18: e5 ff ff 17 	b	0x100008cac <__ZN5alloc4sync12Arc$LT$T$GT$9drop_slow17hb0f4e3a17d6d6042E+0x3c>

0000000100008d1c <__ZN5alloc4sync12Arc$LT$T$GT$9drop_slow17hcf501deffc79e7b4E>:
100008d1c: f4 4f be a9 	stp	x20, x19, [sp, #-32]!
100008d20: fd 7b 01 a9 	stp	x29, x30, [sp, #16]
100008d24: fd 43 00 91 	add	x29, sp, #16
100008d28: 13 00 40 f9 	ldr	x19, [x0]
100008d2c: e0 03 13 aa 	mov	x0, x19
100008d30: 08 0c 4e f8 	ldr	x8, [x0, #224]!
100008d34: e8 00 00 b4 	cbz	x8, 0x100008d50 <__ZN5alloc4sync12Arc$LT$T$GT$9drop_slow17hcf501deffc79e7b4E+0x34>
100008d38: 09 00 80 92 	mov	x9, #-1
100008d3c: 08 01 69 f8 	<unknown>
100008d40: 1f 05 00 f1 	cmp	x8, #1
100008d44: 61 00 00 54 	b.ne	0x100008d50 <__ZN5alloc4sync12Arc$LT$T$GT$9drop_slow17hcf501deffc79e7b4E+0x34>
100008d48: bf 39 03 d5 	dmb	ishld
100008d4c: f4 ff ff 97 	bl	0x100008d1c <__ZN5alloc4sync12Arc$LT$T$GT$9drop_slow17hcf501deffc79e7b4E>
100008d50: 7f 06 00 b1 	cmn	x19, #1
100008d54: a0 01 00 54 	b.eq	0x100008d88 <__ZN5alloc4sync12Arc$LT$T$GT$9drop_slow17hcf501deffc79e7b4E+0x6c>
100008d58: 68 22 00 91 	add	x8, x19, #8
100008d5c: 09 00 80 92 	mov	x9, #-1
100008d60: 08 01 69 f8 	<unknown>
100008d64: 1f 05 00 f1 	cmp	x8, #1
100008d68: 01 01 00 54 	b.ne	0x100008d88 <__ZN5alloc4sync12Arc$LT$T$GT$9drop_slow17hcf501deffc79e7b4E+0x6c>
100008d6c: bf 39 03 d5 	dmb	ishld
100008d70: e0 03 13 aa 	mov	x0, x19
100008d74: 01 1e 80 52 	mov	w1, #240
100008d78: 02 01 80 52 	mov	w2, #8
100008d7c: fd 7b 41 a9 	ldp	x29, x30, [sp, #16]
100008d80: f4 4f c2 a8 	ldp	x20, x19, [sp], #32
100008d84: 45 ec ff 17 	b	0x100003e98 <___rust_dealloc>
100008d88: fd 7b 41 a9 	ldp	x29, x30, [sp, #16]
100008d8c: f4 4f c2 a8 	ldp	x20, x19, [sp], #32
100008d90: c0 03 5f d6 	ret

0000000100008d94 <__ZN5alloc5alloc8box_free17h00f9913ac88f43c5E>:
100008d94: 41 00 00 b4 	cbz	x1, 0x100008d9c <__ZN5alloc5alloc8box_free17h00f9913ac88f43c5E+0x8>
100008d98: 40 ec ff 17 	b	0x100003e98 <___rust_dealloc>
100008d9c: c0 03 5f d6 	ret

0000000100008da0 <__ZN5alloc5alloc8box_free17h1af77f2d954fc56bE>:
100008da0: 01 08 80 52 	mov	w1, #64
100008da4: 02 01 80 52 	mov	w2, #8
100008da8: 3c ec ff 17 	b	0x100003e98 <___rust_dealloc>

0000000100008dac <__ZN5alloc5alloc8box_free17h54172cedeab6fc7bE>:
100008dac: 81 00 00 b4 	cbz	x1, 0x100008dbc <__ZN5alloc5alloc8box_free17h54172cedeab6fc7bE+0x10>
100008db0: 21 dc 78 d3 	lsl	x1, x1, #8
100008db4: 02 01 80 52 	mov	w2, #8
100008db8: 38 ec ff 17 	b	0x100003e98 <___rust_dealloc>
100008dbc: c0 03 5f d6 	ret

0000000100008dc0 <__ZN5alloc5alloc8box_free17h9931d7439991635eE>:
100008dc0: 01 03 80 52 	mov	w1, #24
100008dc4: 02 01 80 52 	mov	w2, #8
100008dc8: 34 ec ff 17 	b	0x100003e98 <___rust_dealloc>

0000000100008dcc <__ZN5alloc7raw_vec11finish_grow17hf1846410374e26f7E>:
100008dcc: f6 57 bd a9 	stp	x22, x21, [sp, #-48]!
100008dd0: f4 4f 01 a9 	stp	x20, x19, [sp, #16]
100008dd4: fd 7b 02 a9 	stp	x29, x30, [sp, #32]
100008dd8: fd 83 00 91 	add	x29, sp, #32
100008ddc: f5 03 01 aa 	mov	x21, x1
100008de0: f3 03 00 aa 	mov	x19, x0
100008de4: c2 01 00 b4 	cbz	x2, 0x100008e1c <__ZN5alloc7raw_vec11finish_grow17hf1846410374e26f7E+0x50>
100008de8: f4 03 02 aa 	mov	x20, x2
100008dec: 68 08 40 f9 	ldr	x8, [x3, #16]
100008df0: c8 01 00 b4 	cbz	x8, 0x100008e28 <__ZN5alloc7raw_vec11finish_grow17hf1846410374e26f7E+0x5c>
100008df4: 61 04 40 f9 	ldr	x1, [x3, #8]
100008df8: 81 01 00 b4 	cbz	x1, 0x100008e28 <__ZN5alloc7raw_vec11finish_grow17hf1846410374e26f7E+0x5c>
100008dfc: 60 00 40 f9 	ldr	x0, [x3]
100008e00: e2 03 14 aa 	mov	x2, x20
100008e04: e3 03 15 aa 	mov	x3, x21
100008e08: 25 ec ff 97 	bl	0x100003e9c <___rust_realloc>
100008e0c: e8 03 15 aa 	mov	x8, x21
100008e10: 80 01 00 b5 	cbnz	x0, 0x100008e40 <__ZN5alloc7raw_vec11finish_grow17hf1846410374e26f7E+0x74>
100008e14: 75 d2 00 a9 	stp	x21, x20, [x19, #8]
100008e18: 02 00 00 14 	b	0x100008e20 <__ZN5alloc7raw_vec11finish_grow17hf1846410374e26f7E+0x54>
100008e1c: 75 fe 00 a9 	stp	x21, xzr, [x19, #8]
100008e20: 29 00 80 52 	mov	w9, #1
100008e24: 09 00 00 14 	b	0x100008e48 <__ZN5alloc7raw_vec11finish_grow17hf1846410374e26f7E+0x7c>
100008e28: b5 01 00 b4 	cbz	x21, 0x100008e5c <__ZN5alloc7raw_vec11finish_grow17hf1846410374e26f7E+0x90>
100008e2c: e0 03 15 aa 	mov	x0, x21
100008e30: e1 03 14 aa 	mov	x1, x20
100008e34: 18 ec ff 97 	bl	0x100003e94 <___rust_alloc>
100008e38: e8 03 15 aa 	mov	x8, x21
100008e3c: c0 fe ff b4 	cbz	x0, 0x100008e14 <__ZN5alloc7raw_vec11finish_grow17hf1846410374e26f7E+0x48>
100008e40: 09 00 80 d2 	mov	x9, #0
100008e44: 60 a2 00 a9 	stp	x0, x8, [x19, #8]
100008e48: 69 02 00 f9 	str	x9, [x19]
100008e4c: fd 7b 42 a9 	ldp	x29, x30, [sp, #32]
100008e50: f4 4f 41 a9 	ldp	x20, x19, [sp, #16]
100008e54: f6 57 c3 a8 	ldp	x22, x21, [sp], #48
100008e58: c0 03 5f d6 	ret
100008e5c: 08 00 80 d2 	mov	x8, #0
100008e60: e0 03 14 aa 	mov	x0, x20
100008e64: f4 fe ff b5 	cbnz	x20, 0x100008e40 <__ZN5alloc7raw_vec11finish_grow17hf1846410374e26f7E+0x74>
100008e68: eb ff ff 17 	b	0x100008e14 <__ZN5alloc7raw_vec11finish_grow17hf1846410374e26f7E+0x48>

0000000100008e6c <__ZN5alloc7raw_vec19RawVec$LT$T$C$A$GT$16reserve_for_push17h1a475ad2980caf28E>:
100008e6c: ff 43 01 d1 	sub	sp, sp, #80
100008e70: f4 4f 03 a9 	stp	x20, x19, [sp, #48]
100008e74: fd 7b 04 a9 	stp	x29, x30, [sp, #64]
100008e78: fd 03 01 91 	add	x29, sp, #64
100008e7c: 29 04 00 b1 	adds	x9, x1, #1
100008e80: c2 03 00 54 	b.hs	0x100008ef8 <__ZN5alloc7raw_vec19RawVec$LT$T$C$A$GT$16reserve_for_push17h1a475ad2980caf28E+0x8c>
100008e84: f3 03 00 aa 	mov	x19, x0
100008e88: 08 04 40 f9 	ldr	x8, [x0, #8]
100008e8c: 0a f9 7f d3 	lsl	x10, x8, #1
100008e90: 5f 01 09 eb 	cmp	x10, x9
100008e94: 49 81 89 9a 	csel	x9, x10, x9, hi
100008e98: 8a 00 80 52 	mov	w10, #4
100008e9c: 3f 11 00 f1 	cmp	x9, #4
100008ea0: 34 81 8a 9a 	csel	x20, x9, x10, hi
100008ea4: 81 e6 7a d3 	lsl	x1, x20, #6
100008ea8: 89 fe 79 d3 	lsr	x9, x20, #57
100008eac: 3f 01 00 f1 	cmp	x9, #0
100008eb0: e9 17 9f 1a 	cset	w9, eq
100008eb4: 22 f1 7d d3 	lsl	x2, x9, #3
100008eb8: 28 02 00 b4 	cbz	x8, 0x100008efc <__ZN5alloc7raw_vec19RawVec$LT$T$C$A$GT$16reserve_for_push17h1a475ad2980caf28E+0x90>
100008ebc: 69 02 40 f9 	ldr	x9, [x19]
100008ec0: 08 e5 7a d3 	lsl	x8, x8, #6
100008ec4: e9 a3 01 a9 	stp	x9, x8, [sp, #24]
100008ec8: 08 01 80 52 	mov	w8, #8
100008ecc: e8 17 00 f9 	str	x8, [sp, #40]
100008ed0: e0 03 00 91 	mov	x0, sp
100008ed4: e3 63 00 91 	add	x3, sp, #24
100008ed8: bd ff ff 97 	bl	0x100008dcc <__ZN5alloc7raw_vec11finish_grow17hf1846410374e26f7E>
100008edc: e8 03 40 a9 	ldp	x8, x0, [sp]
100008ee0: a8 01 00 b4 	cbz	x8, 0x100008f14 <__ZN5alloc7raw_vec19RawVec$LT$T$C$A$GT$16reserve_for_push17h1a475ad2980caf28E+0xa8>
100008ee4: e1 0b 40 f9 	ldr	x1, [sp, #16]
100008ee8: e8 07 41 b2 	mov	x8, #-9223372036854775807
100008eec: 3f 00 08 eb 	cmp	x1, x8
100008ef0: 40 01 00 54 	b.eq	0x100008f18 <__ZN5alloc7raw_vec19RawVec$LT$T$C$A$GT$16reserve_for_push17h1a475ad2980caf28E+0xac>
100008ef4: a1 01 00 b5 	cbnz	x1, 0x100008f28 <__ZN5alloc7raw_vec19RawVec$LT$T$C$A$GT$16reserve_for_push17h1a475ad2980caf28E+0xbc>
100008ef8: 2e 88 00 94 	bl	0x10002afb0 <__ZN5alloc7raw_vec17capacity_overflow17h521ff0463182c857E>
100008efc: ff 17 00 f9 	str	xzr, [sp, #40]
100008f00: e0 03 00 91 	mov	x0, sp
100008f04: e3 63 00 91 	add	x3, sp, #24
100008f08: b1 ff ff 97 	bl	0x100008dcc <__ZN5alloc7raw_vec11finish_grow17hf1846410374e26f7E>
100008f0c: e8 03 40 a9 	ldp	x8, x0, [sp]
100008f10: a8 fe ff b5 	cbnz	x8, 0x100008ee4 <__ZN5alloc7raw_vec19RawVec$LT$T$C$A$GT$16reserve_for_push17h1a475ad2980caf28E+0x78>
100008f14: 60 52 00 a9 	stp	x0, x20, [x19]
100008f18: fd 7b 44 a9 	ldp	x29, x30, [sp, #64]
100008f1c: f4 4f 43 a9 	ldp	x20, x19, [sp, #48]
100008f20: ff 43 01 91 	add	sp, sp, #80
100008f24: c0 03 5f d6 	ret
100008f28: 1c a8 00 94 	bl	0x100032f98 <__ZN5alloc5alloc18handle_alloc_error17hf07e227af3b134d6E>

0000000100008f2c <__ZN5alloc7raw_vec19RawVec$LT$T$C$A$GT$16reserve_for_push17h1db37a3af0440001E>:
100008f2c: ff 43 01 d1 	sub	sp, sp, #80
100008f30: f4 4f 03 a9 	stp	x20, x19, [sp, #48]
100008f34: fd 7b 04 a9 	stp	x29, x30, [sp, #64]
100008f38: fd 03 01 91 	add	x29, sp, #64
100008f3c: 29 04 00 b1 	adds	x9, x1, #1
100008f40: 82 03 00 54 	b.hs	0x100008fb0 <__ZN5alloc7raw_vec19RawVec$LT$T$C$A$GT$16reserve_for_push17h1db37a3af0440001E+0x84>
100008f44: f3 03 00 aa 	mov	x19, x0
100008f48: 08 04 40 f9 	ldr	x8, [x0, #8]
100008f4c: 0a f9 7f d3 	lsl	x10, x8, #1
100008f50: 5f 01 09 eb 	cmp	x10, x9
100008f54: 49 81 89 9a 	csel	x9, x10, x9, hi
100008f58: 0a 01 80 52 	mov	w10, #8
100008f5c: 3f 21 00 f1 	cmp	x9, #8
100008f60: 34 81 8a 9a 	csel	x20, x9, x10, hi
100008f64: e9 03 34 aa 	mvn	x9, x20
100008f68: 22 fd 7f d3 	lsr	x2, x9, #63
100008f6c: 48 02 00 b4 	cbz	x8, 0x100008fb4 <__ZN5alloc7raw_vec19RawVec$LT$T$C$A$GT$16reserve_for_push17h1db37a3af0440001E+0x88>
100008f70: 69 02 40 f9 	ldr	x9, [x19]
100008f74: ea 03 28 aa 	mvn	x10, x8
100008f78: 4a fd 7f d3 	lsr	x10, x10, #63
100008f7c: e9 a3 01 a9 	stp	x9, x8, [sp, #24]
100008f80: ea 17 00 f9 	str	x10, [sp, #40]
100008f84: e0 03 00 91 	mov	x0, sp
100008f88: e3 63 00 91 	add	x3, sp, #24
100008f8c: e1 03 14 aa 	mov	x1, x20
100008f90: 8f ff ff 97 	bl	0x100008dcc <__ZN5alloc7raw_vec11finish_grow17hf1846410374e26f7E>
100008f94: e8 03 40 a9 	ldp	x8, x0, [sp]
100008f98: c8 01 00 b4 	cbz	x8, 0x100008fd0 <__ZN5alloc7raw_vec19RawVec$LT$T$C$A$GT$16reserve_for_push17h1db37a3af0440001E+0xa4>
100008f9c: e1 0b 40 f9 	ldr	x1, [sp, #16]
100008fa0: e8 07 41 b2 	mov	x8, #-9223372036854775807
100008fa4: 3f 00 08 eb 	cmp	x1, x8
100008fa8: 60 01 00 54 	b.eq	0x100008fd4 <__ZN5alloc7raw_vec19RawVec$LT$T$C$A$GT$16reserve_for_push17h1db37a3af0440001E+0xa8>
100008fac: c1 01 00 b5 	cbnz	x1, 0x100008fe4 <__ZN5alloc7raw_vec19RawVec$LT$T$C$A$GT$16reserve_for_push17h1db37a3af0440001E+0xb8>
100008fb0: 00 88 00 94 	bl	0x10002afb0 <__ZN5alloc7raw_vec17capacity_overflow17h521ff0463182c857E>
100008fb4: ff 17 00 f9 	str	xzr, [sp, #40]
100008fb8: e0 03 00 91 	mov	x0, sp
100008fbc: e3 63 00 91 	add	x3, sp, #24
100008fc0: e1 03 14 aa 	mov	x1, x20
100008fc4: 82 ff ff 97 	bl	0x100008dcc <__ZN5alloc7raw_vec11finish_grow17hf1846410374e26f7E>
100008fc8: e8 03 40 a9 	ldp	x8, x0, [sp]
100008fcc: 88 fe ff b5 	cbnz	x8, 0x100008f9c <__ZN5alloc7raw_vec19RawVec$LT$T$C$A$GT$16reserve_for_push17h1db37a3af0440001E+0x70>
100008fd0: 60 52 00 a9 	stp	x0, x20, [x19]
100008fd4: fd 7b 44 a9 	ldp	x29, x30, [sp, #64]
100008fd8: f4 4f 43 a9 	ldp	x20, x19, [sp, #48]
100008fdc: ff 43 01 91 	add	sp, sp, #80
100008fe0: c0 03 5f d6 	ret
100008fe4: ed a7 00 94 	bl	0x100032f98 <__ZN5alloc5alloc18handle_alloc_error17hf07e227af3b134d6E>

0000000100008fe8 <__ZN5alloc7raw_vec19RawVec$LT$T$C$A$GT$16reserve_for_push17h394c023d287752d9E>:
100008fe8: ff 43 01 d1 	sub	sp, sp, #80
100008fec: f4 4f 03 a9 	stp	x20, x19, [sp, #48]
100008ff0: fd 7b 04 a9 	stp	x29, x30, [sp, #64]
100008ff4: fd 03 01 91 	add	x29, sp, #64
100008ff8: 29 04 00 b1 	adds	x9, x1, #1
100008ffc: c2 03 00 54 	b.hs	0x100009074 <__ZN5alloc7raw_vec19RawVec$LT$T$C$A$GT$16reserve_for_push17h394c023d287752d9E+0x8c>
100009000: f3 03 00 aa 	mov	x19, x0
100009004: 08 04 40 f9 	ldr	x8, [x0, #8]
100009008: 0a f9 7f d3 	lsl	x10, x8, #1
10000900c: 5f 01 09 eb 	cmp	x10, x9
100009010: 49 81 89 9a 	csel	x9, x10, x9, hi
100009014: 8a 00 80 52 	mov	w10, #4
100009018: 3f 11 00 f1 	cmp	x9, #4
10000901c: 34 81 8a 9a 	csel	x20, x9, x10, hi
100009020: 81 ea 7b d3 	lsl	x1, x20, #5
100009024: 89 fe 7a d3 	lsr	x9, x20, #58
100009028: 3f 01 00 f1 	cmp	x9, #0
10000902c: e9 17 9f 1a 	cset	w9, eq
100009030: 22 f1 7d d3 	lsl	x2, x9, #3
100009034: 28 02 00 b4 	cbz	x8, 0x100009078 <__ZN5alloc7raw_vec19RawVec$LT$T$C$A$GT$16reserve_for_push17h394c023d287752d9E+0x90>
100009038: 69 02 40 f9 	ldr	x9, [x19]
10000903c: 08 e9 7b d3 	lsl	x8, x8, #5
100009040: e9 a3 01 a9 	stp	x9, x8, [sp, #24]
100009044: 08 01 80 52 	mov	w8, #8
100009048: e8 17 00 f9 	str	x8, [sp, #40]
10000904c: e0 03 00 91 	mov	x0, sp
100009050: e3 63 00 91 	add	x3, sp, #24
100009054: 5e ff ff 97 	bl	0x100008dcc <__ZN5alloc7raw_vec11finish_grow17hf1846410374e26f7E>
100009058: e8 03 40 a9 	ldp	x8, x0, [sp]
10000905c: a8 01 00 b4 	cbz	x8, 0x100009090 <__ZN5alloc7raw_vec19RawVec$LT$T$C$A$GT$16reserve_for_push17h394c023d287752d9E+0xa8>
100009060: e1 0b 40 f9 	ldr	x1, [sp, #16]
100009064: e8 07 41 b2 	mov	x8, #-9223372036854775807
100009068: 3f 00 08 eb 	cmp	x1, x8
10000906c: 40 01 00 54 	b.eq	0x100009094 <__ZN5alloc7raw_vec19RawVec$LT$T$C$A$GT$16reserve_for_push17h394c023d287752d9E+0xac>
100009070: a1 01 00 b5 	cbnz	x1, 0x1000090a4 <__ZN5alloc7raw_vec19RawVec$LT$T$C$A$GT$16reserve_for_push17h394c023d287752d9E+0xbc>
100009074: cf 87 00 94 	bl	0x10002afb0 <__ZN5alloc7raw_vec17capacity_overflow17h521ff0463182c857E>
100009078: ff 17 00 f9 	str	xzr, [sp, #40]
10000907c: e0 03 00 91 	mov	x0, sp
100009080: e3 63 00 91 	add	x3, sp, #24
100009084: 52 ff ff 97 	bl	0x100008dcc <__ZN5alloc7raw_vec11finish_grow17hf1846410374e26f7E>
100009088: e8 03 40 a9 	ldp	x8, x0, [sp]
10000908c: a8 fe ff b5 	cbnz	x8, 0x100009060 <__ZN5alloc7raw_vec19RawVec$LT$T$C$A$GT$16reserve_for_push17h394c023d287752d9E+0x78>
100009090: 60 52 00 a9 	stp	x0, x20, [x19]
100009094: fd 7b 44 a9 	ldp	x29, x30, [sp, #64]
100009098: f4 4f 43 a9 	ldp	x20, x19, [sp, #48]
10000909c: ff 43 01 91 	add	sp, sp, #80
1000090a0: c0 03 5f d6 	ret
1000090a4: bd a7 00 94 	bl	0x100032f98 <__ZN5alloc5alloc18handle_alloc_error17hf07e227af3b134d6E>

00000001000090a8 <__ZN5alloc7raw_vec19RawVec$LT$T$C$A$GT$16reserve_for_push17h43531255dd5a11ccE>:
1000090a8: ff 43 01 d1 	sub	sp, sp, #80
1000090ac: f4 4f 03 a9 	stp	x20, x19, [sp, #48]
1000090b0: fd 7b 04 a9 	stp	x29, x30, [sp, #64]
1000090b4: fd 03 01 91 	add	x29, sp, #64
1000090b8: 29 04 00 b1 	adds	x9, x1, #1
1000090bc: c2 03 00 54 	b.hs	0x100009134 <__ZN5alloc7raw_vec19RawVec$LT$T$C$A$GT$16reserve_for_push17h43531255dd5a11ccE+0x8c>
1000090c0: f3 03 00 aa 	mov	x19, x0
1000090c4: 08 04 40 f9 	ldr	x8, [x0, #8]
1000090c8: 0a f9 7f d3 	lsl	x10, x8, #1
1000090cc: 5f 01 09 eb 	cmp	x10, x9
1000090d0: 49 81 89 9a 	csel	x9, x10, x9, hi
1000090d4: 8a 00 80 52 	mov	w10, #4
1000090d8: 3f 11 00 f1 	cmp	x9, #4
1000090dc: 34 81 8a 9a 	csel	x20, x9, x10, hi
1000090e0: 81 f2 7d d3 	lsl	x1, x20, #3
1000090e4: 89 fe 7c d3 	lsr	x9, x20, #60
1000090e8: 3f 01 00 f1 	cmp	x9, #0
1000090ec: e9 17 9f 1a 	cset	w9, eq
1000090f0: 22 f1 7d d3 	lsl	x2, x9, #3
1000090f4: 28 02 00 b4 	cbz	x8, 0x100009138 <__ZN5alloc7raw_vec19RawVec$LT$T$C$A$GT$16reserve_for_push17h43531255dd5a11ccE+0x90>
1000090f8: 69 02 40 f9 	ldr	x9, [x19]
1000090fc: 08 f1 7d d3 	lsl	x8, x8, #3
100009100: e9 a3 01 a9 	stp	x9, x8, [sp, #24]
100009104: 08 01 80 52 	mov	w8, #8
100009108: e8 17 00 f9 	str	x8, [sp, #40]
10000910c: e0 03 00 91 	mov	x0, sp
100009110: e3 63 00 91 	add	x3, sp, #24
100009114: 2e ff ff 97 	bl	0x100008dcc <__ZN5alloc7raw_vec11finish_grow17hf1846410374e26f7E>
100009118: e8 03 40 a9 	ldp	x8, x0, [sp]
10000911c: a8 01 00 b4 	cbz	x8, 0x100009150 <__ZN5alloc7raw_vec19RawVec$LT$T$C$A$GT$16reserve_for_push17h43531255dd5a11ccE+0xa8>
100009120: e1 0b 40 f9 	ldr	x1, [sp, #16]
100009124: e8 07 41 b2 	mov	x8, #-9223372036854775807
100009128: 3f 00 08 eb 	cmp	x1, x8
10000912c: 40 01 00 54 	b.eq	0x100009154 <__ZN5alloc7raw_vec19RawVec$LT$T$C$A$GT$16reserve_for_push17h43531255dd5a11ccE+0xac>
100009130: a1 01 00 b5 	cbnz	x1, 0x100009164 <__ZN5alloc7raw_vec19RawVec$LT$T$C$A$GT$16reserve_for_push17h43531255dd5a11ccE+0xbc>
100009134: 9f 87 00 94 	bl	0x10002afb0 <__ZN5alloc7raw_vec17capacity_overflow17h521ff0463182c857E>
100009138: ff 17 00 f9 	str	xzr, [sp, #40]
10000913c: e0 03 00 91 	mov	x0, sp
100009140: e3 63 00 91 	add	x3, sp, #24
100009144: 22 ff ff 97 	bl	0x100008dcc <__ZN5alloc7raw_vec11finish_grow17hf1846410374e26f7E>
100009148: e8 03 40 a9 	ldp	x8, x0, [sp]
10000914c: a8 fe ff b5 	cbnz	x8, 0x100009120 <__ZN5alloc7raw_vec19RawVec$LT$T$C$A$GT$16reserve_for_push17h43531255dd5a11ccE+0x78>
100009150: 60 52 00 a9 	stp	x0, x20, [x19]
100009154: fd 7b 44 a9 	ldp	x29, x30, [sp, #64]
100009158: f4 4f 43 a9 	ldp	x20, x19, [sp, #48]
10000915c: ff 43 01 91 	add	sp, sp, #80
100009160: c0 03 5f d6 	ret
100009164: 8d a7 00 94 	bl	0x100032f98 <__ZN5alloc5alloc18handle_alloc_error17hf07e227af3b134d6E>

0000000100009168 <__ZN5alloc7raw_vec19RawVec$LT$T$C$A$GT$16reserve_for_push17h452573938e62951bE>:
100009168: ff 43 01 d1 	sub	sp, sp, #80
10000916c: f4 4f 03 a9 	stp	x20, x19, [sp, #48]
100009170: fd 7b 04 a9 	stp	x29, x30, [sp, #64]
100009174: fd 03 01 91 	add	x29, sp, #64
100009178: 29 04 00 b1 	adds	x9, x1, #1
10000917c: c2 03 00 54 	b.hs	0x1000091f4 <__ZN5alloc7raw_vec19RawVec$LT$T$C$A$GT$16reserve_for_push17h452573938e62951bE+0x8c>
100009180: f3 03 00 aa 	mov	x19, x0
100009184: 08 04 40 f9 	ldr	x8, [x0, #8]
100009188: 0a f9 7f d3 	lsl	x10, x8, #1
10000918c: 5f 01 09 eb 	cmp	x10, x9
100009190: 49 81 89 9a 	csel	x9, x10, x9, hi
100009194: 8a 00 80 52 	mov	w10, #4
100009198: 3f 11 00 f1 	cmp	x9, #4
10000919c: 34 81 8a 9a 	csel	x20, x9, x10, hi
1000091a0: 81 ee 7c d3 	lsl	x1, x20, #4
1000091a4: 89 fe 7b d3 	lsr	x9, x20, #59
1000091a8: 3f 01 00 f1 	cmp	x9, #0
1000091ac: e9 17 9f 1a 	cset	w9, eq
1000091b0: 22 f1 7d d3 	lsl	x2, x9, #3
1000091b4: 28 02 00 b4 	cbz	x8, 0x1000091f8 <__ZN5alloc7raw_vec19RawVec$LT$T$C$A$GT$16reserve_for_push17h452573938e62951bE+0x90>
1000091b8: 69 02 40 f9 	ldr	x9, [x19]
1000091bc: 08 ed 7c d3 	lsl	x8, x8, #4
1000091c0: e9 a3 01 a9 	stp	x9, x8, [sp, #24]
1000091c4: 08 01 80 52 	mov	w8, #8
1000091c8: e8 17 00 f9 	str	x8, [sp, #40]
1000091cc: e0 03 00 91 	mov	x0, sp
1000091d0: e3 63 00 91 	add	x3, sp, #24
1000091d4: fe fe ff 97 	bl	0x100008dcc <__ZN5alloc7raw_vec11finish_grow17hf1846410374e26f7E>
1000091d8: e8 03 40 a9 	ldp	x8, x0, [sp]
1000091dc: a8 01 00 b4 	cbz	x8, 0x100009210 <__ZN5alloc7raw_vec19RawVec$LT$T$C$A$GT$16reserve_for_push17h452573938e62951bE+0xa8>
1000091e0: e1 0b 40 f9 	ldr	x1, [sp, #16]
1000091e4: e8 07 41 b2 	mov	x8, #-9223372036854775807
1000091e8: 3f 00 08 eb 	cmp	x1, x8
1000091ec: 40 01 00 54 	b.eq	0x100009214 <__ZN5alloc7raw_vec19RawVec$LT$T$C$A$GT$16reserve_for_push17h452573938e62951bE+0xac>
1000091f0: a1 01 00 b5 	cbnz	x1, 0x100009224 <__ZN5alloc7raw_vec19RawVec$LT$T$C$A$GT$16reserve_for_push17h452573938e62951bE+0xbc>
1000091f4: 6f 87 00 94 	bl	0x10002afb0 <__ZN5alloc7raw_vec17capacity_overflow17h521ff0463182c857E>
1000091f8: ff 17 00 f9 	str	xzr, [sp, #40]
1000091fc: e0 03 00 91 	mov	x0, sp
100009200: e3 63 00 91 	add	x3, sp, #24
100009204: f2 fe ff 97 	bl	0x100008dcc <__ZN5alloc7raw_vec11finish_grow17hf1846410374e26f7E>
100009208: e8 03 40 a9 	ldp	x8, x0, [sp]
10000920c: a8 fe ff b5 	cbnz	x8, 0x1000091e0 <__ZN5alloc7raw_vec19RawVec$LT$T$C$A$GT$16reserve_for_push17h452573938e62951bE+0x78>
100009210: 60 52 00 a9 	stp	x0, x20, [x19]
100009214: fd 7b 44 a9 	ldp	x29, x30, [sp, #64]
100009218: f4 4f 43 a9 	ldp	x20, x19, [sp, #48]
10000921c: ff 43 01 91 	add	sp, sp, #80
100009220: c0 03 5f d6 	ret
100009224: 5d a7 00 94 	bl	0x100032f98 <__ZN5alloc5alloc18handle_alloc_error17hf07e227af3b134d6E>

0000000100009228 <__ZN5alloc7raw_vec19RawVec$LT$T$C$A$GT$16reserve_for_push17h467b23118c563e2fE>:
100009228: ff 43 01 d1 	sub	sp, sp, #80
10000922c: f4 4f 03 a9 	stp	x20, x19, [sp, #48]
100009230: fd 7b 04 a9 	stp	x29, x30, [sp, #64]
100009234: fd 03 01 91 	add	x29, sp, #64
100009238: 29 04 00 b1 	adds	x9, x1, #1
10000923c: c2 03 00 54 	b.hs	0x1000092b4 <__ZN5alloc7raw_vec19RawVec$LT$T$C$A$GT$16reserve_for_push17h467b23118c563e2fE+0x8c>
100009240: f3 03 00 aa 	mov	x19, x0
100009244: 08 04 40 f9 	ldr	x8, [x0, #8]
100009248: 0a f9 7f d3 	lsl	x10, x8, #1
10000924c: 5f 01 09 eb 	cmp	x10, x9
100009250: 49 81 89 9a 	csel	x9, x10, x9, hi
100009254: 8a 00 80 52 	mov	w10, #4
100009258: 3f 11 00 f1 	cmp	x9, #4
10000925c: 34 81 8a 9a 	csel	x20, x9, x10, hi
100009260: 81 f6 7e d3 	lsl	x1, x20, #2
100009264: 89 fe 7d d3 	lsr	x9, x20, #61
100009268: 3f 01 00 f1 	cmp	x9, #0
10000926c: e9 17 9f 1a 	cset	w9, eq
100009270: 22 f9 7f d3 	lsl	x2, x9, #1
100009274: 28 02 00 b4 	cbz	x8, 0x1000092b8 <__ZN5alloc7raw_vec19RawVec$LT$T$C$A$GT$16reserve_for_push17h467b23118c563e2fE+0x90>
100009278: 69 02 40 f9 	ldr	x9, [x19]
10000927c: 08 f5 7e d3 	lsl	x8, x8, #2
100009280: e9 a3 01 a9 	stp	x9, x8, [sp, #24]
100009284: 48 00 80 52 	mov	w8, #2
100009288: e8 17 00 f9 	str	x8, [sp, #40]
10000928c: e0 03 00 91 	mov	x0, sp
100009290: e3 63 00 91 	add	x3, sp, #24
100009294: ce fe ff 97 	bl	0x100008dcc <__ZN5alloc7raw_vec11finish_grow17hf1846410374e26f7E>
100009298: e8 03 40 a9 	ldp	x8, x0, [sp]
10000929c: a8 01 00 b4 	cbz	x8, 0x1000092d0 <__ZN5alloc7raw_vec19RawVec$LT$T$C$A$GT$16reserve_for_push17h467b23118c563e2fE+0xa8>
1000092a0: e1 0b 40 f9 	ldr	x1, [sp, #16]
1000092a4: e8 07 41 b2 	mov	x8, #-9223372036854775807
1000092a8: 3f 00 08 eb 	cmp	x1, x8
1000092ac: 40 01 00 54 	b.eq	0x1000092d4 <__ZN5alloc7raw_vec19RawVec$LT$T$C$A$GT$16reserve_for_push17h467b23118c563e2fE+0xac>
1000092b0: a1 01 00 b5 	cbnz	x1, 0x1000092e4 <__ZN5alloc7raw_vec19RawVec$LT$T$C$A$GT$16reserve_for_push17h467b23118c563e2fE+0xbc>
1000092b4: 3f 87 00 94 	bl	0x10002afb0 <__ZN5alloc7raw_vec17capacity_overflow17h521ff0463182c857E>
1000092b8: ff 17 00 f9 	str	xzr, [sp, #40]
1000092bc: e0 03 00 91 	mov	x0, sp
1000092c0: e3 63 00 91 	add	x3, sp, #24
1000092c4: c2 fe ff 97 	bl	0x100008dcc <__ZN5alloc7raw_vec11finish_grow17hf1846410374e26f7E>
1000092c8: e8 03 40 a9 	ldp	x8, x0, [sp]
1000092cc: a8 fe ff b5 	cbnz	x8, 0x1000092a0 <__ZN5alloc7raw_vec19RawVec$LT$T$C$A$GT$16reserve_for_push17h467b23118c563e2fE+0x78>
1000092d0: 60 52 00 a9 	stp	x0, x20, [x19]
1000092d4: fd 7b 44 a9 	ldp	x29, x30, [sp, #64]
1000092d8: f4 4f 43 a9 	ldp	x20, x19, [sp, #48]
1000092dc: ff 43 01 91 	add	sp, sp, #80
1000092e0: c0 03 5f d6 	ret
1000092e4: 2d a7 00 94 	bl	0x100032f98 <__ZN5alloc5alloc18handle_alloc_error17hf07e227af3b134d6E>

00000001000092e8 <__ZN5alloc7raw_vec19RawVec$LT$T$C$A$GT$16reserve_for_push17h6bc3598afa32473bE>:
1000092e8: ff 43 01 d1 	sub	sp, sp, #80
1000092ec: f4 4f 03 a9 	stp	x20, x19, [sp, #48]
1000092f0: fd 7b 04 a9 	stp	x29, x30, [sp, #64]
1000092f4: fd 03 01 91 	add	x29, sp, #64
1000092f8: 29 04 00 b1 	adds	x9, x1, #1
1000092fc: 62 04 00 54 	b.hs	0x100009388 <__ZN5alloc7raw_vec19RawVec$LT$T$C$A$GT$16reserve_for_push17h6bc3598afa32473bE+0xa0>
100009300: f3 03 00 aa 	mov	x19, x0
100009304: 08 04 40 f9 	ldr	x8, [x0, #8]
100009308: 0a f9 7f d3 	lsl	x10, x8, #1
10000930c: 5f 01 09 eb 	cmp	x10, x9
100009310: 49 81 89 9a 	csel	x9, x10, x9, hi
100009314: 8a 00 80 52 	mov	w10, #4
100009318: 3f 11 00 f1 	cmp	x9, #4
10000931c: 34 81 8a 9a 	csel	x20, x9, x10, hi
100009320: e9 f3 00 b2 	mov	x9, #6148914691236517205
100009324: c9 aa 8a f2 	movk	x9, #21846
100009328: a9 aa e0 f2 	movk	x9, #1365, lsl #48
10000932c: 29 05 00 d1 	sub	x9, x9, #1
100009330: 9f 02 09 eb 	cmp	x20, x9
100009334: 89 06 14 8b 	add	x9, x20, x20, lsl #1
100009338: ea 87 9f 1a 	cset	w10, ls
10000933c: 21 f1 7d d3 	lsl	x1, x9, #3
100009340: 42 f1 7d d3 	lsl	x2, x10, #3
100009344: 48 02 00 b4 	cbz	x8, 0x10000938c <__ZN5alloc7raw_vec19RawVec$LT$T$C$A$GT$16reserve_for_push17h6bc3598afa32473bE+0xa4>
100009348: 69 02 40 f9 	ldr	x9, [x19]
10000934c: 08 05 08 8b 	add	x8, x8, x8, lsl #1
100009350: 08 f1 7d d3 	lsl	x8, x8, #3
100009354: e9 a3 01 a9 	stp	x9, x8, [sp, #24]
100009358: 08 01 80 52 	mov	w8, #8
10000935c: e8 17 00 f9 	str	x8, [sp, #40]
100009360: e0 03 00 91 	mov	x0, sp
100009364: e3 63 00 91 	add	x3, sp, #24
100009368: 99 fe ff 97 	bl	0x100008dcc <__ZN5alloc7raw_vec11finish_grow17hf1846410374e26f7E>
10000936c: e8 03 40 a9 	ldp	x8, x0, [sp]
100009370: a8 01 00 b4 	cbz	x8, 0x1000093a4 <__ZN5alloc7raw_vec19RawVec$LT$T$C$A$GT$16reserve_for_push17h6bc3598afa32473bE+0xbc>
100009374: e1 0b 40 f9 	ldr	x1, [sp, #16]
100009378: e8 07 41 b2 	mov	x8, #-9223372036854775807
10000937c: 3f 00 08 eb 	cmp	x1, x8
100009380: 40 01 00 54 	b.eq	0x1000093a8 <__ZN5alloc7raw_vec19RawVec$LT$T$C$A$GT$16reserve_for_push17h6bc3598afa32473bE+0xc0>
100009384: a1 01 00 b5 	cbnz	x1, 0x1000093b8 <__ZN5alloc7raw_vec19RawVec$LT$T$C$A$GT$16reserve_for_push17h6bc3598afa32473bE+0xd0>
100009388: 0a 87 00 94 	bl	0x10002afb0 <__ZN5alloc7raw_vec17capacity_overflow17h521ff0463182c857E>
10000938c: ff 17 00 f9 	str	xzr, [sp, #40]
100009390: e0 03 00 91 	mov	x0, sp
100009394: e3 63 00 91 	add	x3, sp, #24
100009398: 8d fe ff 97 	bl	0x100008dcc <__ZN5alloc7raw_vec11finish_grow17hf1846410374e26f7E>
10000939c: e8 03 40 a9 	ldp	x8, x0, [sp]
1000093a0: a8 fe ff b5 	cbnz	x8, 0x100009374 <__ZN5alloc7raw_vec19RawVec$LT$T$C$A$GT$16reserve_for_push17h6bc3598afa32473bE+0x8c>
1000093a4: 60 52 00 a9 	stp	x0, x20, [x19]
1000093a8: fd 7b 44 a9 	ldp	x29, x30, [sp, #64]
1000093ac: f4 4f 43 a9 	ldp	x20, x19, [sp, #48]
1000093b0: ff 43 01 91 	add	sp, sp, #80
1000093b4: c0 03 5f d6 	ret
1000093b8: f8 a6 00 94 	bl	0x100032f98 <__ZN5alloc5alloc18handle_alloc_error17hf07e227af3b134d6E>

00000001000093bc <__ZN5alloc7raw_vec19RawVec$LT$T$C$A$GT$16reserve_for_push17h94bb7ff5bff66d62E>:
1000093bc: ff 43 01 d1 	sub	sp, sp, #80
1000093c0: f4 4f 03 a9 	stp	x20, x19, [sp, #48]
1000093c4: fd 7b 04 a9 	stp	x29, x30, [sp, #64]
1000093c8: fd 03 01 91 	add	x29, sp, #64
1000093cc: 29 04 00 b1 	adds	x9, x1, #1
1000093d0: 62 04 00 54 	b.hs	0x10000945c <__ZN5alloc7raw_vec19RawVec$LT$T$C$A$GT$16reserve_for_push17h94bb7ff5bff66d62E+0xa0>
1000093d4: f3 03 00 aa 	mov	x19, x0
1000093d8: 08 04 40 f9 	ldr	x8, [x0, #8]
1000093dc: 0a f9 7f d3 	lsl	x10, x8, #1
1000093e0: 5f 01 09 eb 	cmp	x10, x9
1000093e4: 49 81 89 9a 	csel	x9, x10, x9, hi
1000093e8: 8a 00 80 52 	mov	w10, #4
1000093ec: 3f 11 00 f1 	cmp	x9, #4
1000093f0: 34 81 8a 9a 	csel	x20, x9, x10, hi
1000093f4: e9 38 8e d2 	mov	x9, #29127
1000093f8: 89 e3 b8 f2 	movk	x9, #50972, lsl #16
1000093fc: 29 8e c3 f2 	movk	x9, #7281, lsl #32
100009400: e9 38 e0 f2 	movk	x9, #455, lsl #48
100009404: 9f 02 09 eb 	cmp	x20, x9
100009408: 89 0e 14 8b 	add	x9, x20, x20, lsl #3
10000940c: ea 87 9f 1a 	cset	w10, ls
100009410: 21 f1 7d d3 	lsl	x1, x9, #3
100009414: 42 f1 7d d3 	lsl	x2, x10, #3
100009418: 48 02 00 b4 	cbz	x8, 0x100009460 <__ZN5alloc7raw_vec19RawVec$LT$T$C$A$GT$16reserve_for_push17h94bb7ff5bff66d62E+0xa4>
10000941c: 69 02 40 f9 	ldr	x9, [x19]
100009420: 08 0d 08 8b 	add	x8, x8, x8, lsl #3
100009424: 08 f1 7d d3 	lsl	x8, x8, #3
100009428: e9 a3 01 a9 	stp	x9, x8, [sp, #24]
10000942c: 08 01 80 52 	mov	w8, #8
100009430: e8 17 00 f9 	str	x8, [sp, #40]
100009434: e0 03 00 91 	mov	x0, sp
100009438: e3 63 00 91 	add	x3, sp, #24
10000943c: 64 fe ff 97 	bl	0x100008dcc <__ZN5alloc7raw_vec11finish_grow17hf1846410374e26f7E>
100009440: e8 03 40 a9 	ldp	x8, x0, [sp]
100009444: a8 01 00 b4 	cbz	x8, 0x100009478 <__ZN5alloc7raw_vec19RawVec$LT$T$C$A$GT$16reserve_for_push17h94bb7ff5bff66d62E+0xbc>
100009448: e1 0b 40 f9 	ldr	x1, [sp, #16]
10000944c: e8 07 41 b2 	mov	x8, #-9223372036854775807
100009450: 3f 00 08 eb 	cmp	x1, x8
100009454: 40 01 00 54 	b.eq	0x10000947c <__ZN5alloc7raw_vec19RawVec$LT$T$C$A$GT$16reserve_for_push17h94bb7ff5bff66d62E+0xc0>
100009458: a1 01 00 b5 	cbnz	x1, 0x10000948c <__ZN5alloc7raw_vec19RawVec$LT$T$C$A$GT$16reserve_for_push17h94bb7ff5bff66d62E+0xd0>
10000945c: d5 86 00 94 	bl	0x10002afb0 <__ZN5alloc7raw_vec17capacity_overflow17h521ff0463182c857E>
100009460: ff 17 00 f9 	str	xzr, [sp, #40]
100009464: e0 03 00 91 	mov	x0, sp
100009468: e3 63 00 91 	add	x3, sp, #24
10000946c: 58 fe ff 97 	bl	0x100008dcc <__ZN5alloc7raw_vec11finish_grow17hf1846410374e26f7E>
100009470: e8 03 40 a9 	ldp	x8, x0, [sp]
100009474: a8 fe ff b5 	cbnz	x8, 0x100009448 <__ZN5alloc7raw_vec19RawVec$LT$T$C$A$GT$16reserve_for_push17h94bb7ff5bff66d62E+0x8c>
100009478: 60 52 00 a9 	stp	x0, x20, [x19]
10000947c: fd 7b 44 a9 	ldp	x29, x30, [sp, #64]
100009480: f4 4f 43 a9 	ldp	x20, x19, [sp, #48]
100009484: ff 43 01 91 	add	sp, sp, #80
100009488: c0 03 5f d6 	ret
10000948c: c3 a6 00 94 	bl	0x100032f98 <__ZN5alloc5alloc18handle_alloc_error17hf07e227af3b134d6E>

0000000100009490 <__ZN5alloc7raw_vec19RawVec$LT$T$C$A$GT$16reserve_for_push17hafd4f1256b660fa6E>:
100009490: ff 43 01 d1 	sub	sp, sp, #80
100009494: f4 4f 03 a9 	stp	x20, x19, [sp, #48]
100009498: fd 7b 04 a9 	stp	x29, x30, [sp, #64]
10000949c: fd 03 01 91 	add	x29, sp, #64
1000094a0: 29 04 00 b1 	adds	x9, x1, #1
1000094a4: 62 04 00 54 	b.hs	0x100009530 <__ZN5alloc7raw_vec19RawVec$LT$T$C$A$GT$16reserve_for_push17hafd4f1256b660fa6E+0xa0>
1000094a8: f3 03 00 aa 	mov	x19, x0
1000094ac: 08 04 40 f9 	ldr	x8, [x0, #8]
1000094b0: 0a f9 7f d3 	lsl	x10, x8, #1
1000094b4: 5f 01 09 eb 	cmp	x10, x9
1000094b8: 49 81 89 9a 	csel	x9, x10, x9, hi
1000094bc: 8a 00 80 52 	mov	w10, #4
1000094c0: 3f 11 00 f1 	cmp	x9, #4
1000094c4: 34 81 8a 9a 	csel	x20, x9, x10, hi
1000094c8: e9 e7 00 b2 	mov	x9, #3689348814741910323
1000094cc: 89 66 86 f2 	movk	x9, #13108
1000094d0: 69 66 e0 f2 	movk	x9, #819, lsl #48
1000094d4: 29 05 00 d1 	sub	x9, x9, #1
1000094d8: 9f 02 09 eb 	cmp	x20, x9
1000094dc: 89 0a 14 8b 	add	x9, x20, x20, lsl #2
1000094e0: ea 87 9f 1a 	cset	w10, ls
1000094e4: 21 f1 7d d3 	lsl	x1, x9, #3
1000094e8: 42 f1 7d d3 	lsl	x2, x10, #3
1000094ec: 48 02 00 b4 	cbz	x8, 0x100009534 <__ZN5alloc7raw_vec19RawVec$LT$T$C$A$GT$16reserve_for_push17hafd4f1256b660fa6E+0xa4>
1000094f0: 69 02 40 f9 	ldr	x9, [x19]
1000094f4: 08 09 08 8b 	add	x8, x8, x8, lsl #2
1000094f8: 08 f1 7d d3 	lsl	x8, x8, #3
1000094fc: e9 a3 01 a9 	stp	x9, x8, [sp, #24]
100009500: 08 01 80 52 	mov	w8, #8
100009504: e8 17 00 f9 	str	x8, [sp, #40]
100009508: e0 03 00 91 	mov	x0, sp
10000950c: e3 63 00 91 	add	x3, sp, #24
100009510: 2f fe ff 97 	bl	0x100008dcc <__ZN5alloc7raw_vec11finish_grow17hf1846410374e26f7E>
100009514: e8 03 40 a9 	ldp	x8, x0, [sp]
100009518: a8 01 00 b4 	cbz	x8, 0x10000954c <__ZN5alloc7raw_vec19RawVec$LT$T$C$A$GT$16reserve_for_push17hafd4f1256b660fa6E+0xbc>
10000951c: e1 0b 40 f9 	ldr	x1, [sp, #16]
100009520: e8 07 41 b2 	mov	x8, #-9223372036854775807
100009524: 3f 00 08 eb 	cmp	x1, x8
100009528: 40 01 00 54 	b.eq	0x100009550 <__ZN5alloc7raw_vec19RawVec$LT$T$C$A$GT$16reserve_for_push17hafd4f1256b660fa6E+0xc0>
10000952c: a1 01 00 b5 	cbnz	x1, 0x100009560 <__ZN5alloc7raw_vec19RawVec$LT$T$C$A$GT$16reserve_for_push17hafd4f1256b660fa6E+0xd0>
100009530: a0 86 00 94 	bl	0x10002afb0 <__ZN5alloc7raw_vec17capacity_overflow17h521ff0463182c857E>
100009534: ff 17 00 f9 	str	xzr, [sp, #40]
100009538: e0 03 00 91 	mov	x0, sp
10000953c: e3 63 00 91 	add	x3, sp, #24
100009540: 23 fe ff 97 	bl	0x100008dcc <__ZN5alloc7raw_vec11finish_grow17hf1846410374e26f7E>
100009544: e8 03 40 a9 	ldp	x8, x0, [sp]
100009548: a8 fe ff b5 	cbnz	x8, 0x10000951c <__ZN5alloc7raw_vec19RawVec$LT$T$C$A$GT$16reserve_for_push17hafd4f1256b660fa6E+0x8c>
10000954c: 60 52 00 a9 	stp	x0, x20, [x19]
100009550: fd 7b 44 a9 	ldp	x29, x30, [sp, #64]
100009554: f4 4f 43 a9 	ldp	x20, x19, [sp, #48]
100009558: ff 43 01 91 	add	sp, sp, #80
10000955c: c0 03 5f d6 	ret
100009560: 8e a6 00 94 	bl	0x100032f98 <__ZN5alloc5alloc18handle_alloc_error17hf07e227af3b134d6E>

0000000100009564 <__ZN5alloc7raw_vec19RawVec$LT$T$C$A$GT$16reserve_for_push17hf90ed5fa356a9a17E>:
100009564: ff 43 01 d1 	sub	sp, sp, #80
100009568: f4 4f 03 a9 	stp	x20, x19, [sp, #48]
10000956c: fd 7b 04 a9 	stp	x29, x30, [sp, #64]
100009570: fd 03 01 91 	add	x29, sp, #64
100009574: 29 04 00 b1 	adds	x9, x1, #1
100009578: 62 04 00 54 	b.hs	0x100009604 <__ZN5alloc7raw_vec19RawVec$LT$T$C$A$GT$16reserve_for_push17hf90ed5fa356a9a17E+0xa0>
10000957c: f3 03 00 aa 	mov	x19, x0
100009580: 08 04 40 f9 	ldr	x8, [x0, #8]
100009584: 0a f9 7f d3 	lsl	x10, x8, #1
100009588: 5f 01 09 eb 	cmp	x10, x9
10000958c: 49 81 89 9a 	csel	x9, x10, x9, hi
100009590: 8a 00 80 52 	mov	w10, #4
100009594: 3f 11 00 f1 	cmp	x9, #4
100009598: 34 81 8a 9a 	csel	x20, x9, x10, hi
10000959c: 49 07 95 d2 	mov	x9, #43066
1000095a0: 69 50 a7 f2 	movk	x9, #14979, lsl #16
1000095a4: 09 75 d0 f2 	movk	x9, #33704, lsl #32
1000095a8: 49 07 e0 f2 	movk	x9, #58, lsl #48
1000095ac: 9f 02 09 eb 	cmp	x20, x9
1000095b0: e9 87 9f 1a 	cset	w9, ls
1000095b4: 0a 46 80 52 	mov	w10, #560
1000095b8: 81 7e 0a 9b 	mul	x1, x20, x10
1000095bc: 22 f1 7d d3 	lsl	x2, x9, #3
1000095c0: 48 02 00 b4 	cbz	x8, 0x100009608 <__ZN5alloc7raw_vec19RawVec$LT$T$C$A$GT$16reserve_for_push17hf90ed5fa356a9a17E+0xa4>
1000095c4: 69 02 40 f9 	ldr	x9, [x19]
1000095c8: 0a 46 80 52 	mov	w10, #560
1000095cc: 08 7d 0a 9b 	mul	x8, x8, x10
1000095d0: e9 a3 01 a9 	stp	x9, x8, [sp, #24]
1000095d4: 08 01 80 52 	mov	w8, #8
1000095d8: e8 17 00 f9 	str	x8, [sp, #40]
1000095dc: e0 03 00 91 	mov	x0, sp
1000095e0: e3 63 00 91 	add	x3, sp, #24
1000095e4: fa fd ff 97 	bl	0x100008dcc <__ZN5alloc7raw_vec11finish_grow17hf1846410374e26f7E>
1000095e8: e8 03 40 a9 	ldp	x8, x0, [sp]
1000095ec: a8 01 00 b4 	cbz	x8, 0x100009620 <__ZN5alloc7raw_vec19RawVec$LT$T$C$A$GT$16reserve_for_push17hf90ed5fa356a9a17E+0xbc>
1000095f0: e1 0b 40 f9 	ldr	x1, [sp, #16]
1000095f4: e8 07 41 b2 	mov	x8, #-9223372036854775807
1000095f8: 3f 00 08 eb 	cmp	x1, x8
1000095fc: 40 01 00 54 	b.eq	0x100009624 <__ZN5alloc7raw_vec19RawVec$LT$T$C$A$GT$16reserve_for_push17hf90ed5fa356a9a17E+0xc0>
100009600: a1 01 00 b5 	cbnz	x1, 0x100009634 <__ZN5alloc7raw_vec19RawVec$LT$T$C$A$GT$16reserve_for_push17hf90ed5fa356a9a17E+0xd0>
100009604: 6b 86 00 94 	bl	0x10002afb0 <__ZN5alloc7raw_vec17capacity_overflow17h521ff0463182c857E>
100009608: ff 17 00 f9 	str	xzr, [sp, #40]
10000960c: e0 03 00 91 	mov	x0, sp
100009610: e3 63 00 91 	add	x3, sp, #24
100009614: ee fd ff 97 	bl	0x100008dcc <__ZN5alloc7raw_vec11finish_grow17hf1846410374e26f7E>
100009618: e8 03 40 a9 	ldp	x8, x0, [sp]
10000961c: a8 fe ff b5 	cbnz	x8, 0x1000095f0 <__ZN5alloc7raw_vec19RawVec$LT$T$C$A$GT$16reserve_for_push17hf90ed5fa356a9a17E+0x8c>
100009620: 60 52 00 a9 	stp	x0, x20, [x19]
100009624: fd 7b 44 a9 	ldp	x29, x30, [sp, #64]
100009628: f4 4f 43 a9 	ldp	x20, x19, [sp, #48]
10000962c: ff 43 01 91 	add	sp, sp, #80
100009630: c0 03 5f d6 	ret
100009634: 59 a6 00 94 	bl	0x100032f98 <__ZN5alloc5alloc18handle_alloc_error17hf07e227af3b134d6E>

0000000100009638 <__ZN5gimli4read4line15FileEntryFormat5parse17h9f548c0916d805dcE>:
100009638: ff 03 02 d1 	sub	sp, sp, #128
10000963c: fc 6f 02 a9 	stp	x28, x27, [sp, #32]
100009640: fa 67 03 a9 	stp	x26, x25, [sp, #48]
100009644: f8 5f 04 a9 	stp	x24, x23, [sp, #64]
100009648: f6 57 05 a9 	stp	x22, x21, [sp, #80]
10000964c: f4 4f 06 a9 	stp	x20, x19, [sp, #96]
100009650: fd 7b 07 a9 	stp	x29, x30, [sp, #112]
100009654: fd c3 01 91 	add	x29, sp, #112
100009658: f3 03 00 aa 	mov	x19, x0
10000965c: 36 20 40 a9 	ldp	x22, x8, [x1]
100009660: e8 0b 00 b4 	cbz	x8, 0x1000097dc <__ZN5gimli4read4line15FileEntryFormat5parse17h9f548c0916d805dcE+0x1a4>
100009664: f4 03 01 aa 	mov	x20, x1
100009668: d7 16 40 38 	ldrb	w23, [x22], #1
10000966c: 1a 05 00 d1 	sub	x26, x8, #1
100009670: 36 68 00 a9 	stp	x22, x26, [x1]
100009674: 37 0c 00 b4 	cbz	x23, 0x1000097f8 <__ZN5gimli4read4line15FileEntryFormat5parse17h9f548c0916d805dcE+0x1c0>
100009678: f5 f6 7e d3 	lsl	x21, x23, #2
10000967c: e0 03 15 aa 	mov	x0, x21
100009680: 41 00 80 52 	mov	w1, #2
100009684: 04 ea ff 97 	bl	0x100003e94 <___rust_alloc>
100009688: c0 11 00 b4 	cbz	x0, 0x1000098c0 <__ZN5gimli4read4line15FileEntryFormat5parse17h9f548c0916d805dcE+0x288>
10000968c: 01 00 80 d2 	mov	x1, #0
100009690: 18 00 80 52 	mov	w24, #0
100009694: 19 00 80 d2 	mov	x25, #0
100009698: e0 df 00 a9 	stp	x0, x23, [sp, #8]
10000969c: ee ff 9f 52 	mov	w14, #65535
1000096a0: ff 0f 00 f9 	str	xzr, [sp, #24]
1000096a4: 09 00 80 d2 	mov	x9, #0
1000096a8: 0a 00 80 52 	mov	w10, #0
1000096ac: e8 03 1c aa 	mov	x8, x28
1000096b0: 39 07 00 91 	add	x25, x25, #1
1000096b4: eb 03 1a aa 	mov	x11, x26
1000096b8: 1c 00 80 d2 	mov	x28, #0
1000096bc: 07 00 00 14 	b	0x1000096d8 <__ZN5gimli4read4line15FileEntryFormat5parse17h9f548c0916d805dcE+0xa0>
1000096c0: 8d 19 40 92 	and	x13, x12, #0x7f
1000096c4: ad 21 ca 9a 	lsl	x13, x13, x10
1000096c8: bc 01 1c aa 	orr	x28, x13, x28
1000096cc: 4a 1d 00 11 	add	w10, w10, #7
1000096d0: 29 05 00 91 	add	x9, x9, #1
1000096d4: 8c 01 38 36 	tbz	w12, #7, 0x100009704 <__ZN5gimli4read4line15FileEntryFormat5parse17h9f548c0916d805dcE+0xcc>
1000096d8: cd 02 09 8b 	add	x13, x22, x9
1000096dc: 5f 03 09 eb 	cmp	x26, x9
1000096e0: e0 09 00 54 	b.eq	0x10000981c <__ZN5gimli4read4line15FileEntryFormat5parse17h9f548c0916d805dcE+0x1e4>
1000096e4: ac 15 40 38 	ldrb	w12, [x13], #1
1000096e8: 6b 05 00 d1 	sub	x11, x11, #1
1000096ec: 8d 2e 00 a9 	stp	x13, x11, [x20]
1000096f0: 5f fd 00 71 	cmp	w10, #63
1000096f4: 61 fe ff 54 	b.ne	0x1000096c0 <__ZN5gimli4read4line15FileEntryFormat5parse17h9f548c0916d805dcE+0x88>
1000096f8: 9f 09 00 71 	cmp	w12, #2
1000096fc: 23 fe ff 54 	b.lo	0x1000096c0 <__ZN5gimli4read4line15FileEntryFormat5parse17h9f548c0916d805dcE+0x88>
100009700: 4a 00 00 14 	b	0x100009828 <__ZN5gimli4read4line15FileEntryFormat5parse17h9f548c0916d805dcE+0x1f0>
100009704: c8 02 09 8b 	add	x8, x22, x9
100009708: 9f 03 0e eb 	cmp	x28, x14
10000970c: e9 ff 9f 52 	mov	w9, #65535
100009710: 95 33 89 9a 	csel	x21, x28, x9, lo
100009714: bf 06 00 71 	cmp	w21, #1
100009718: 18 17 98 1a 	cinc	w24, w24, eq
10000971c: 0b 0b 00 b4 	cbz	x11, 0x10000987c <__ZN5gimli4read4line15FileEntryFormat5parse17h9f548c0916d805dcE+0x244>
100009720: 09 05 00 d1 	sub	x9, x8, #1
100009724: 6a 05 00 91 	add	x10, x11, #1
100009728: 36 09 00 91 	add	x22, x9, #2
10000972c: 5a 09 00 d1 	sub	x26, x10, #2
100009730: 96 6a 00 a9 	stp	x22, x26, [x20]
100009734: 0b 01 40 39 	ldrb	w11, [x8]
100009738: 68 19 00 12 	and	w8, w11, #0x7f
10000973c: 2b 02 38 36 	tbz	w11, #7, 0x100009780 <__ZN5gimli4read4line15FileEntryFormat5parse17h9f548c0916d805dcE+0x148>
100009740: 5a 0a 00 b4 	cbz	x26, 0x100009888 <__ZN5gimli4read4line15FileEntryFormat5parse17h9f548c0916d805dcE+0x250>
100009744: 36 0d 00 91 	add	x22, x9, #3
100009748: 5a 0d 00 d1 	sub	x26, x10, #3
10000974c: 96 6a 00 a9 	stp	x22, x26, [x20]
100009750: 2b 09 40 39 	ldrb	w11, [x9, #2]
100009754: 6c 19 00 12 	and	w12, w11, #0x7f
100009758: 88 19 19 33 	bfi	w8, w12, #7, #7
10000975c: 2b 01 38 36 	tbz	w11, #7, 0x100009780 <__ZN5gimli4read4line15FileEntryFormat5parse17h9f548c0916d805dcE+0x148>
100009760: 5a 09 00 b4 	cbz	x26, 0x100009888 <__ZN5gimli4read4line15FileEntryFormat5parse17h9f548c0916d805dcE+0x250>
100009764: 36 11 00 91 	add	x22, x9, #4
100009768: 5a 11 00 d1 	sub	x26, x10, #4
10000976c: 96 6a 00 a9 	stp	x22, x26, [x20]
100009770: 29 0d 40 39 	ldrb	w9, [x9, #3]
100009774: 3f 0d 00 71 	cmp	w9, #3
100009778: 08 09 00 54 	b.hi	0x100009898 <__ZN5gimli4read4line15FileEntryFormat5parse17h9f548c0916d805dcE+0x260>
10000977c: 28 1d 12 33 	bfi	w8, w9, #14, #8
100009780: fb 03 08 aa 	mov	x27, x8
100009784: e8 0b 40 f9 	ldr	x8, [sp, #16]
100009788: 3f 00 08 eb 	cmp	x1, x8
10000978c: a1 00 00 54 	b.ne	0x1000097a0 <__ZN5gimli4read4line15FileEntryFormat5parse17h9f548c0916d805dcE+0x168>
100009790: e0 23 00 91 	add	x0, sp, #8
100009794: a5 fe ff 97 	bl	0x100009228 <__ZN5alloc7raw_vec19RawVec$LT$T$C$A$GT$16reserve_for_push17h467b23118c563e2fE>
100009798: e1 0f 40 f9 	ldr	x1, [sp, #24]
10000979c: e0 07 40 f9 	ldr	x0, [sp, #8]
1000097a0: 08 08 01 8b 	add	x8, x0, x1, lsl #2
1000097a4: 15 01 00 79 	strh	w21, [x8]
1000097a8: 1b 05 00 79 	strh	w27, [x8, #2]
1000097ac: 21 04 00 91 	add	x1, x1, #1
1000097b0: e1 0f 00 f9 	str	x1, [sp, #24]
1000097b4: 3f 03 17 eb 	cmp	x25, x23
1000097b8: ee ff 9f 52 	mov	w14, #65535
1000097bc: 41 f7 ff 54 	b.ne	0x1000096a4 <__ZN5gimli4read4line15FileEntryFormat5parse17h9f548c0916d805dcE+0x6c>
1000097c0: 1f 07 00 71 	cmp	w24, #1
1000097c4: 01 02 00 54 	b.ne	0x100009804 <__ZN5gimli4read4line15FileEntryFormat5parse17h9f548c0916d805dcE+0x1cc>
1000097c8: e0 83 c0 3c 	ldur	q0, [sp, #8]
1000097cc: 60 02 80 3d 	str	q0, [x19]
1000097d0: e8 0f 40 f9 	ldr	x8, [sp, #24]
1000097d4: 68 0a 00 f9 	str	x8, [x19, #16]
1000097d8: 21 00 00 14 	b	0x10000985c <__ZN5gimli4read4line15FileEntryFormat5parse17h9f548c0916d805dcE+0x224>
1000097dc: 68 02 80 52 	mov	w8, #19
1000097e0: 68 12 00 79 	strh	w8, [x19, #8]
1000097e4: 7f 1e 00 79 	strh	wzr, [x19, #14]
1000097e8: 7f a2 00 b8 	stur	wzr, [x19, #10]
1000097ec: 76 0a 00 f9 	str	x22, [x19, #16]
1000097f0: 7f 02 00 f9 	str	xzr, [x19]
1000097f4: 1a 00 00 14 	b	0x10000985c <__ZN5gimli4read4line15FileEntryFormat5parse17h9f548c0916d805dcE+0x224>
1000097f8: 48 00 80 52 	mov	w8, #2
1000097fc: e8 df 00 a9 	stp	x8, x23, [sp, #8]
100009800: ff 0f 00 f9 	str	xzr, [sp, #24]
100009804: 88 08 80 52 	mov	w8, #68
100009808: 68 22 00 39 	strb	w8, [x19, #8]
10000980c: 7f 02 00 f9 	str	xzr, [x19]
100009810: e8 0b 40 f9 	ldr	x8, [sp, #16]
100009814: c8 01 00 b5 	cbnz	x8, 0x10000984c <__ZN5gimli4read4line15FileEntryFormat5parse17h9f548c0916d805dcE+0x214>
100009818: 11 00 00 14 	b	0x10000985c <__ZN5gimli4read4line15FileEntryFormat5parse17h9f548c0916d805dcE+0x224>
10000981c: 69 02 80 52 	mov	w9, #19
100009820: e8 03 0d aa 	mov	x8, x13
100009824: 02 00 00 14 	b	0x10000982c <__ZN5gimli4read4line15FileEntryFormat5parse17h9f548c0916d805dcE+0x1f4>
100009828: c9 00 80 52 	mov	w9, #6
10000982c: 69 22 00 39 	strb	w9, [x19, #8]
100009830: 7f 26 00 39 	strb	wzr, [x19, #9]
100009834: 7f 1e 00 79 	strh	wzr, [x19, #14]
100009838: 7f a2 00 b8 	stur	wzr, [x19, #10]
10000983c: 68 0a 00 f9 	str	x8, [x19, #16]
100009840: 7f 02 00 f9 	str	xzr, [x19]
100009844: e8 0b 40 f9 	ldr	x8, [sp, #16]
100009848: a8 00 00 b4 	cbz	x8, 0x10000985c <__ZN5gimli4read4line15FileEntryFormat5parse17h9f548c0916d805dcE+0x224>
10000984c: e0 07 40 f9 	ldr	x0, [sp, #8]
100009850: 01 f5 7e d3 	lsl	x1, x8, #2
100009854: 42 00 80 52 	mov	w2, #2
100009858: 90 e9 ff 97 	bl	0x100003e98 <___rust_dealloc>
10000985c: fd 7b 47 a9 	ldp	x29, x30, [sp, #112]
100009860: f4 4f 46 a9 	ldp	x20, x19, [sp, #96]
100009864: f6 57 45 a9 	ldp	x22, x21, [sp, #80]
100009868: f8 5f 44 a9 	ldp	x24, x23, [sp, #64]
10000986c: fa 67 43 a9 	ldp	x26, x25, [sp, #48]
100009870: fc 6f 42 a9 	ldp	x28, x27, [sp, #32]
100009874: ff 03 02 91 	add	sp, sp, #128
100009878: c0 03 5f d6 	ret
10000987c: 1b 00 80 52 	mov	w27, #0
100009880: 69 02 80 52 	mov	w9, #19
100009884: 06 00 00 14 	b	0x10000989c <__ZN5gimli4read4line15FileEntryFormat5parse17h9f548c0916d805dcE+0x264>
100009888: 1b 00 80 52 	mov	w27, #0
10000988c: 69 02 80 52 	mov	w9, #19
100009890: e8 03 16 aa 	mov	x8, x22
100009894: 02 00 00 14 	b	0x10000989c <__ZN5gimli4read4line15FileEntryFormat5parse17h9f548c0916d805dcE+0x264>
100009898: c9 00 80 52 	mov	w9, #6
10000989c: 69 22 00 39 	strb	w9, [x19, #8]
1000098a0: 7f 26 00 39 	strb	wzr, [x19, #9]
1000098a4: 7b 16 00 79 	strh	w27, [x19, #10]
1000098a8: 7f 0e 00 b9 	str	wzr, [x19, #12]
1000098ac: 68 0a 00 f9 	str	x8, [x19, #16]
1000098b0: 7f 02 00 f9 	str	xzr, [x19]
1000098b4: e8 0b 40 f9 	ldr	x8, [sp, #16]
1000098b8: a8 fc ff b5 	cbnz	x8, 0x10000984c <__ZN5gimli4read4line15FileEntryFormat5parse17h9f548c0916d805dcE+0x214>
1000098bc: e8 ff ff 17 	b	0x10000985c <__ZN5gimli4read4line15FileEntryFormat5parse17h9f548c0916d805dcE+0x224>
1000098c0: e0 03 15 aa 	mov	x0, x21
1000098c4: 41 00 80 52 	mov	w1, #2
1000098c8: b4 a5 00 94 	bl	0x100032f98 <__ZN5alloc5alloc18handle_alloc_error17hf07e227af3b134d6E>
1000098cc: f3 03 00 aa 	mov	x19, x0
1000098d0: e0 23 00 91 	add	x0, sp, #8
1000098d4: 2e f0 ff 97 	bl	0x10000598c <__ZN4core3ptr78drop_in_place$LT$alloc..vec..Vec$LT$gimli..read..line..FileEntryFormat$GT$$GT$17h04f7ba8fa2cc48e9E>
1000098d8: e0 03 13 aa 	mov	x0, x19
1000098dc: 47 a6 00 94 	bl	0x1000331f8 <_write+0x1000331f8>
1000098e0: d6 a5 00 94 	bl	0x100033038 <__ZN4core9panicking15panic_no_unwind17h6c18a18997fce2b1E>

00000001000098e4 <__ZN5gimli4read4line15parse_attribute17h1a8f96e1a18a5eedE>:
1000098e4: ff 43 01 d1 	sub	sp, sp, #80
1000098e8: f4 4f 03 a9 	stp	x20, x19, [sp, #48]
1000098ec: fd 7b 04 a9 	stp	x29, x30, [sp, #64]
1000098f0: fd 03 01 91 	add	x29, sp, #64
1000098f4: f3 03 00 aa 	mov	x19, x0
1000098f8: 48 3c 08 53 	ubfx	w8, w2, #8, #8
1000098fc: 69 3c 00 12 	and	w9, w3, #0xffff
100009900: 2a 0d 00 51 	sub	w10, w9, #3
100009904: 5f 95 00 71 	cmp	w10, #37
100009908: 28 02 00 54 	b.hi	0x10000994c <__ZN5gimli4read4line15parse_attribute17h1a8f96e1a18a5eedE+0x68>
10000990c: a9 5d 15 10 	adr	x9, #175028
100009910: 1f 20 03 d5 	nop
100009914: 8b 00 00 10 	adr	x11, #16
100009918: 2c 79 6a 78 	ldrh	w12, [x9, x10, lsl #1]
10000991c: 6b 09 0c 8b 	add	x11, x11, x12, lsl #2
100009920: 60 01 1f d6 	br	x11
100009924: 28 30 40 a9 	ldp	x8, x12, [x1]
100009928: 8b 09 00 f1 	subs	x11, x12, #2
10000992c: 82 28 00 54 	b.hs	0x100009e3c <__ZN5gimli4read4line15parse_attribute17h1a8f96e1a18a5eedE+0x558>
100009930: 09 00 80 d2 	mov	x9, #0
100009934: 6a 02 80 52 	mov	w10, #19
100009938: eb 03 0c aa 	mov	x11, x12
10000993c: 4c 1d 00 12 	and	w12, w10, #0xff
100009940: 9f 1d 01 71 	cmp	w12, #71
100009944: 81 28 00 54 	b.ne	0x100009e54 <__ZN5gimli4read4line15parse_attribute17h1a8f96e1a18a5eedE+0x570>
100009948: 4f 01 00 14 	b	0x100009e84 <__ZN5gimli4read4line15parse_attribute17h1a8f96e1a18a5eedE+0x5a0>
10000994c: 4a e0 83 52 	mov	w10, #7938
100009950: 3f 01 0a 6b 	cmp	w9, w10
100009954: 80 01 00 54 	b.eq	0x100009984 <__ZN5gimli4read4line15parse_attribute17h1a8f96e1a18a5eedE+0xa0>
100009958: 2a e4 83 52 	mov	w10, #7969
10000995c: 3f 01 0a 6b 	cmp	w9, w10
100009960: a1 03 00 54 	b.ne	0x1000099d4 <__ZN5gimli4read4line15parse_attribute17h1a8f96e1a18a5eedE+0xf0>
100009964: 1f 21 00 71 	cmp	w8, #8
100009968: 21 25 00 54 	b.ne	0x100009e0c <__ZN5gimli4read4line15parse_attribute17h1a8f96e1a18a5eedE+0x528>
10000996c: 29 20 40 a9 	ldp	x9, x8, [x1]
100009970: 0a 21 00 f1 	subs	x10, x8, #8
100009974: 02 38 00 54 	b.hs	0x10000a074 <__ZN5gimli4read4line15parse_attribute17h1a8f96e1a18a5eedE+0x790>
100009978: 08 00 80 d2 	mov	x8, #0
10000997c: 6a 02 80 52 	mov	w10, #19
100009980: c0 01 00 14 	b	0x10000a080 <__ZN5gimli4read4line15parse_attribute17h1a8f96e1a18a5eedE+0x79c>
100009984: 09 00 80 52 	mov	w9, #0
100009988: 0e 00 80 d2 	mov	x14, #0
10000998c: 28 28 40 a9 	ldp	x8, x10, [x1]
100009990: 4a 05 00 d1 	sub	x10, x10, #1
100009994: 07 00 00 14 	b	0x1000099b0 <__ZN5gimli4read4line15parse_attribute17h1a8f96e1a18a5eedE+0xcc>
100009998: 6c 19 40 92 	and	x12, x11, #0x7f
10000999c: 8c 21 c9 9a 	lsl	x12, x12, x9
1000099a0: 8e 01 0e aa 	orr	x14, x12, x14
1000099a4: 29 1d 00 11 	add	w9, w9, #7
1000099a8: 4a 05 00 d1 	sub	x10, x10, #1
1000099ac: cb 23 38 36 	tbz	w11, #7, 0x100009e24 <__ZN5gimli4read4line15parse_attribute17h1a8f96e1a18a5eedE+0x540>
1000099b0: 5f 05 00 b1 	cmn	x10, #1
1000099b4: 60 17 00 54 	b.eq	0x100009ca0 <__ZN5gimli4read4line15parse_attribute17h1a8f96e1a18a5eedE+0x3bc>
1000099b8: 0b 15 40 38 	ldrb	w11, [x8], #1
1000099bc: 28 28 00 a9 	stp	x8, x10, [x1]
1000099c0: 3f fd 00 71 	cmp	w9, #63
1000099c4: a1 fe ff 54 	b.ne	0x100009998 <__ZN5gimli4read4line15parse_attribute17h1a8f96e1a18a5eedE+0xb4>
1000099c8: 7f 09 00 71 	cmp	w11, #2
1000099cc: 63 fe ff 54 	b.lo	0x100009998 <__ZN5gimli4read4line15parse_attribute17h1a8f96e1a18a5eedE+0xb4>
1000099d0: b2 00 00 14 	b	0x100009c98 <__ZN5gimli4read4line15parse_attribute17h1a8f96e1a18a5eedE+0x3b4>
1000099d4: 88 01 80 52 	mov	w8, #12
1000099d8: 68 22 00 39 	strb	w8, [x19, #8]
1000099dc: 3f 02 00 14 	b	0x10000a2d8 <__ZN5gimli4read4line15parse_attribute17h1a8f96e1a18a5eedE+0x9f4>
1000099e0: 28 30 40 a9 	ldp	x8, x12, [x1]
1000099e4: 8b 11 00 f1 	subs	x11, x12, #4
1000099e8: 22 24 00 54 	b.hs	0x100009e6c <__ZN5gimli4read4line15parse_attribute17h1a8f96e1a18a5eedE+0x588>
1000099ec: 09 00 80 d2 	mov	x9, #0
1000099f0: 6a 02 80 52 	mov	w10, #19
1000099f4: eb 03 0c aa 	mov	x11, x12
1000099f8: 4c 1d 00 12 	and	w12, w10, #0xff
1000099fc: 9f 1d 01 71 	cmp	w12, #71
100009a00: 20 24 00 54 	b.eq	0x100009e84 <__ZN5gimli4read4line15parse_attribute17h1a8f96e1a18a5eedE+0x5a0>
100009a04: 89 01 00 14 	b	0x10000a028 <__ZN5gimli4read4line15parse_attribute17h1a8f96e1a18a5eedE+0x744>
100009a08: 29 20 40 a9 	ldp	x9, x8, [x1]
100009a0c: 0a 09 00 f1 	subs	x10, x8, #2
100009a10: 22 25 00 54 	b.hs	0x100009eb4 <__ZN5gimli4read4line15parse_attribute17h1a8f96e1a18a5eedE+0x5d0>
100009a14: 08 00 80 52 	mov	w8, #0
100009a18: 6a 02 80 52 	mov	w10, #19
100009a1c: 4b 1d 00 12 	and	w11, w10, #0xff
100009a20: 7f 1d 01 71 	cmp	w11, #71
100009a24: 40 25 00 54 	b.eq	0x100009ecc <__ZN5gimli4read4line15parse_attribute17h1a8f96e1a18a5eedE+0x5e8>
100009a28: ff 13 00 79 	strh	wzr, [sp, #8]
100009a2c: ff a3 00 b8 	stur	wzr, [sp, #10]
100009a30: e8 93 40 78 	ldurh	w8, [sp, #9]
100009a34: 6a 22 00 39 	strb	w10, [x19, #8]
100009a38: 7f 26 00 39 	strb	wzr, [x19, #9]
100009a3c: 68 16 00 79 	strh	w8, [x19, #10]
100009a40: 7f 0e 00 b9 	str	wzr, [x19, #12]
100009a44: 24 02 00 14 	b	0x10000a2d4 <__ZN5gimli4read4line15parse_attribute17h1a8f96e1a18a5eedE+0x9f0>
100009a48: 29 20 40 a9 	ldp	x9, x8, [x1]
100009a4c: 0a 11 00 f1 	subs	x10, x8, #4
100009a50: 82 24 00 54 	b.hs	0x100009ee0 <__ZN5gimli4read4line15parse_attribute17h1a8f96e1a18a5eedE+0x5fc>
100009a54: 08 00 80 52 	mov	w8, #0
100009a58: 6a 02 80 52 	mov	w10, #19
100009a5c: 4b 1d 00 12 	and	w11, w10, #0xff
100009a60: 7f 1d 01 71 	cmp	w11, #71
100009a64: a0 24 00 54 	b.eq	0x100009ef8 <__ZN5gimli4read4line15parse_attribute17h1a8f96e1a18a5eedE+0x614>
100009a68: ff 0b 00 b9 	str	wzr, [sp, #8]
100009a6c: ff 3b 00 39 	strb	wzr, [sp, #14]
100009a70: ff 1b 00 79 	strh	wzr, [sp, #12]
100009a74: e8 b3 40 b8 	ldur	w8, [sp, #11]
100009a78: ff 43 00 79 	strh	wzr, [sp, #32]
100009a7c: eb 5f 10 53 	ubfx	w11, wzr, #16, #8
100009a80: eb 8b 00 39 	strb	w11, [sp, #34]
100009a84: 7f 92 00 78 	sturh	wzr, [x19, #9]
100009a88: 6b 2e 00 39 	strb	w11, [x19, #11]
100009a8c: 6a 22 00 39 	strb	w10, [x19, #8]
100009a90: 68 0e 00 b9 	str	w8, [x19, #12]
100009a94: 10 02 00 14 	b	0x10000a2d4 <__ZN5gimli4read4line15parse_attribute17h1a8f96e1a18a5eedE+0x9f0>
100009a98: 29 20 40 a9 	ldp	x9, x8, [x1]
100009a9c: 08 21 00 f1 	subs	x8, x8, #8
100009aa0: 62 23 00 54 	b.hs	0x100009f0c <__ZN5gimli4read4line15parse_attribute17h1a8f96e1a18a5eedE+0x628>
100009aa4: 0e 00 80 d2 	mov	x14, #0
100009aa8: 68 02 80 52 	mov	w8, #19
100009aac: 0a 1d 00 12 	and	w10, w8, #0xff
100009ab0: 5f 1d 01 71 	cmp	w10, #71
100009ab4: 80 23 00 54 	b.eq	0x100009f24 <__ZN5gimli4read4line15parse_attribute17h1a8f96e1a18a5eedE+0x640>
100009ab8: ff 3b 00 39 	strb	wzr, [sp, #14]
100009abc: ff 1b 00 79 	strh	wzr, [sp, #12]
100009ac0: ff 0b 00 b9 	str	wzr, [sp, #8]
100009ac4: e9 f3 00 f8 	stur	x9, [sp, #15]
100009ac8: e9 07 40 f9 	ldr	x9, [sp, #8]
100009acc: ea 13 40 b9 	ldr	w10, [sp, #16]
100009ad0: ea 2b 00 b9 	str	w10, [sp, #40]
100009ad4: ea 33 41 b8 	ldur	w10, [sp, #19]
100009ad8: ea b3 02 b8 	stur	w10, [sp, #43]
100009adc: e9 13 00 f9 	str	x9, [sp, #32]
100009ae0: ea 73 42 f8 	ldur	x10, [sp, #39]
100009ae4: e9 1b 00 b9 	str	w9, [sp, #24]
100009ae8: e9 33 42 b8 	ldur	w9, [sp, #35]
100009aec: e9 b3 01 b8 	stur	w9, [sp, #27]
100009af0: e9 1b 40 b9 	ldr	w9, [sp, #24]
100009af4: 69 92 00 b8 	stur	w9, [x19, #9]
100009af8: e9 b3 41 b8 	ldur	w9, [sp, #27]
100009afc: 69 0e 00 b9 	str	w9, [x19, #12]
100009b00: 68 22 00 39 	strb	w8, [x19, #8]
100009b04: 6a 0a 00 f9 	str	x10, [x19, #16]
100009b08: f4 01 00 14 	b	0x10000a2d8 <__ZN5gimli4read4line15parse_attribute17h1a8f96e1a18a5eedE+0x9f4>
100009b0c: 28 28 40 a9 	ldp	x8, x10, [x1]
100009b10: ea 1b 00 b4 	cbz	x10, 0x100009e8c <__ZN5gimli4read4line15parse_attribute17h1a8f96e1a18a5eedE+0x5a8>
100009b14: 09 00 80 d2 	mov	x9, #0
100009b18: 0b 69 69 38 	ldrb	w11, [x8, x9]
100009b1c: 6b 31 00 34 	cbz	w11, 0x10000a148 <__ZN5gimli4read4line15parse_attribute17h1a8f96e1a18a5eedE+0x864>
100009b20: 29 05 00 91 	add	x9, x9, #1
100009b24: 5f 01 09 eb 	cmp	x10, x9
100009b28: 81 ff ff 54 	b.ne	0x100009b18 <__ZN5gimli4read4line15parse_attribute17h1a8f96e1a18a5eedE+0x234>
100009b2c: d8 00 00 14 	b	0x100009e8c <__ZN5gimli4read4line15parse_attribute17h1a8f96e1a18a5eedE+0x5a8>
100009b30: 0b 00 80 52 	mov	w11, #0
100009b34: 09 00 80 d2 	mov	x9, #0
100009b38: 28 28 40 a9 	ldp	x8, x10, [x1]
100009b3c: 06 00 00 14 	b	0x100009b54 <__ZN5gimli4read4line15parse_attribute17h1a8f96e1a18a5eedE+0x270>
100009b40: 8d 19 40 92 	and	x13, x12, #0x7f
100009b44: ad 21 cb 9a 	lsl	x13, x13, x11
100009b48: a9 01 09 aa 	orr	x9, x13, x9
100009b4c: 6b 1d 00 11 	add	w11, w11, #7
100009b50: ec 01 38 36 	tbz	w12, #7, 0x100009b8c <__ZN5gimli4read4line15parse_attribute17h1a8f96e1a18a5eedE+0x2a8>
100009b54: 6a 0a 00 b4 	cbz	x10, 0x100009ca0 <__ZN5gimli4read4line15parse_attribute17h1a8f96e1a18a5eedE+0x3bc>
100009b58: 0c 15 40 38 	ldrb	w12, [x8], #1
100009b5c: 4a 05 00 d1 	sub	x10, x10, #1
100009b60: 28 28 00 a9 	stp	x8, x10, [x1]
100009b64: 7f fd 00 71 	cmp	w11, #63
100009b68: c1 fe ff 54 	b.ne	0x100009b40 <__ZN5gimli4read4line15parse_attribute17h1a8f96e1a18a5eedE+0x25c>
100009b6c: 9f 09 00 71 	cmp	w12, #2
100009b70: 83 fe ff 54 	b.lo	0x100009b40 <__ZN5gimli4read4line15parse_attribute17h1a8f96e1a18a5eedE+0x25c>
100009b74: 49 00 00 14 	b	0x100009c98 <__ZN5gimli4read4line15parse_attribute17h1a8f96e1a18a5eedE+0x3b4>
100009b78: 28 28 40 a9 	ldp	x8, x10, [x1]
100009b7c: 0a 2a 00 b4 	cbz	x10, 0x10000a0bc <__ZN5gimli4read4line15parse_attribute17h1a8f96e1a18a5eedE+0x7d8>
100009b80: 09 15 40 38 	ldrb	w9, [x8], #1
100009b84: 4a 05 00 d1 	sub	x10, x10, #1
100009b88: 28 28 00 a9 	stp	x8, x10, [x1]
100009b8c: 4b 01 09 eb 	subs	x11, x10, x9
100009b90: e3 17 00 54 	b.lo	0x100009e8c <__ZN5gimli4read4line15parse_attribute17h1a8f96e1a18a5eedE+0x5a8>
100009b94: c1 00 00 14 	b	0x100009e98 <__ZN5gimli4read4line15parse_attribute17h1a8f96e1a18a5eedE+0x5b4>
100009b98: 29 28 40 a9 	ldp	x9, x10, [x1]
100009b9c: 6a 29 00 b4 	cbz	x10, 0x10000a0c8 <__ZN5gimli4read4line15parse_attribute17h1a8f96e1a18a5eedE+0x7e4>
100009ba0: 28 15 40 38 	ldrb	w8, [x9], #1
100009ba4: 4a 05 00 d1 	sub	x10, x10, #1
100009ba8: 29 28 00 a9 	stp	x9, x10, [x1]
100009bac: ea 08 80 52 	mov	w10, #71
100009bb0: 4b 1d 00 12 	and	w11, w10, #0xff
100009bb4: 7f 1d 01 71 	cmp	w11, #71
100009bb8: 20 29 00 54 	b.eq	0x10000a0dc <__ZN5gimli4read4line15parse_attribute17h1a8f96e1a18a5eedE+0x7f8>
100009bbc: 5e 01 00 14 	b	0x10000a134 <__ZN5gimli4read4line15parse_attribute17h1a8f96e1a18a5eedE+0x850>
100009bc0: 28 28 40 a9 	ldp	x8, x10, [x1]
100009bc4: 6a 29 00 b4 	cbz	x10, 0x10000a0f0 <__ZN5gimli4read4line15parse_attribute17h1a8f96e1a18a5eedE+0x80c>
100009bc8: 09 15 40 38 	ldrb	w9, [x8], #1
100009bcc: 4a 05 00 d1 	sub	x10, x10, #1
100009bd0: 28 28 00 a9 	stp	x8, x10, [x1]
100009bd4: ea 08 80 52 	mov	w10, #71
100009bd8: 4b 1d 00 12 	and	w11, w10, #0xff
100009bdc: 7f 1d 01 71 	cmp	w11, #71
100009be0: 21 29 00 54 	b.ne	0x10000a104 <__ZN5gimli4read4line15parse_attribute17h1a8f96e1a18a5eedE+0x820>
100009be4: 0a 00 80 52 	mov	w10, #0
100009be8: 0b 00 80 52 	mov	w11, #0
100009bec: 0c 00 80 d2 	mov	x12, #0
100009bf0: 3f 01 00 71 	cmp	w9, #0
100009bf4: e8 07 9f 1a 	cset	w8, ne
100009bf8: 2d 01 80 52 	mov	w13, #9
100009bfc: a3 01 00 14 	b	0x10000a288 <__ZN5gimli4read4line15parse_attribute17h1a8f96e1a18a5eedE+0x9a4>
100009c00: e0 23 00 91 	add	x0, sp, #8
100009c04: c0 08 00 94 	bl	0x10000bf04 <__ZN5gimli4read6reader6Reader12read_sleb12817hbafcecc37c33e649E>
100009c08: e8 23 40 39 	ldrb	w8, [sp, #8]
100009c0c: 1f 1d 01 71 	cmp	w8, #71
100009c10: 61 19 00 54 	b.ne	0x100009f3c <__ZN5gimli4read4line15parse_attribute17h1a8f96e1a18a5eedE+0x658>
100009c14: e8 0b 40 f9 	ldr	x8, [sp, #16]
100009c18: 0a 3d 08 53 	ubfx	w10, w8, #8, #8
100009c1c: 0b 3d 10 12 	and	w11, w8, #0xffff0000
100009c20: 0c 7d 60 92 	and	x12, x8, #0xffffffff00000000
100009c24: cd 00 80 52 	mov	w13, #6
100009c28: 98 01 00 14 	b	0x10000a288 <__ZN5gimli4read4line15parse_attribute17h1a8f96e1a18a5eedE+0x9a4>
100009c2c: 1f 21 00 71 	cmp	w8, #8
100009c30: c1 19 00 54 	b.ne	0x100009f68 <__ZN5gimli4read4line15parse_attribute17h1a8f96e1a18a5eedE+0x684>
100009c34: 29 20 40 a9 	ldp	x9, x8, [x1]
100009c38: 0a 21 00 f1 	subs	x10, x8, #8
100009c3c: 62 2a 00 54 	b.hs	0x10000a188 <__ZN5gimli4read4line15parse_attribute17h1a8f96e1a18a5eedE+0x8a4>
100009c40: 08 00 80 d2 	mov	x8, #0
100009c44: 6a 02 80 52 	mov	w10, #19
100009c48: 53 01 00 14 	b	0x10000a194 <__ZN5gimli4read4line15parse_attribute17h1a8f96e1a18a5eedE+0x8b0>
100009c4c: 09 00 80 52 	mov	w9, #0
100009c50: 0e 00 80 d2 	mov	x14, #0
100009c54: 28 28 40 a9 	ldp	x8, x10, [x1]
100009c58: 4a 05 00 d1 	sub	x10, x10, #1
100009c5c: 07 00 00 14 	b	0x100009c78 <__ZN5gimli4read4line15parse_attribute17h1a8f96e1a18a5eedE+0x394>
100009c60: 6c 19 40 92 	and	x12, x11, #0x7f
100009c64: 8c 21 c9 9a 	lsl	x12, x12, x9
100009c68: 8e 01 0e aa 	orr	x14, x12, x14
100009c6c: 29 1d 00 11 	add	w9, w9, #7
100009c70: 4a 05 00 d1 	sub	x10, x10, #1
100009c74: eb 27 38 36 	tbz	w11, #7, 0x10000a170 <__ZN5gimli4read4line15parse_attribute17h1a8f96e1a18a5eedE+0x88c>
100009c78: 5f 05 00 b1 	cmn	x10, #1
100009c7c: 20 01 00 54 	b.eq	0x100009ca0 <__ZN5gimli4read4line15parse_attribute17h1a8f96e1a18a5eedE+0x3bc>
100009c80: 0b 15 40 38 	ldrb	w11, [x8], #1
100009c84: 28 28 00 a9 	stp	x8, x10, [x1]
100009c88: 3f fd 00 71 	cmp	w9, #63
100009c8c: a1 fe ff 54 	b.ne	0x100009c60 <__ZN5gimli4read4line15parse_attribute17h1a8f96e1a18a5eedE+0x37c>
100009c90: 7f 09 00 71 	cmp	w11, #2
100009c94: 63 fe ff 54 	b.lo	0x100009c60 <__ZN5gimli4read4line15parse_attribute17h1a8f96e1a18a5eedE+0x37c>
100009c98: c9 00 80 52 	mov	w9, #6
100009c9c: 02 00 00 14 	b	0x100009ca4 <__ZN5gimli4read4line15parse_attribute17h1a8f96e1a18a5eedE+0x3c0>
100009ca0: 69 02 80 52 	mov	w9, #19
100009ca4: 69 22 00 39 	strb	w9, [x19, #8]
100009ca8: 7f 26 00 39 	strb	wzr, [x19, #9]
100009cac: 7f 1e 00 79 	strh	wzr, [x19, #14]
100009cb0: 7f a2 00 b8 	stur	wzr, [x19, #10]
100009cb4: 68 0a 00 f9 	str	x8, [x19, #16]
100009cb8: 88 01 00 14 	b	0x10000a2d8 <__ZN5gimli4read4line15parse_attribute17h1a8f96e1a18a5eedE+0x9f4>
100009cbc: 28 24 40 a9 	ldp	x8, x9, [x1]
100009cc0: 29 41 00 f1 	subs	x9, x9, #16
100009cc4: 43 0e 00 54 	b.lo	0x100009e8c <__ZN5gimli4read4line15parse_attribute17h1a8f96e1a18a5eedE+0x5a8>
100009cc8: 0c 41 00 91 	add	x12, x8, #16
100009ccc: 0a 3d 08 53 	ubfx	w10, w8, #8, #8
100009cd0: 0b 3d 10 12 	and	w11, w8, #0xffff0000
100009cd4: 2c 24 00 a9 	stp	x12, x9, [x1]
100009cd8: 0c 7d 60 92 	and	x12, x8, #0xffffffff00000000
100009cdc: 2d 00 80 52 	mov	w13, #1
100009ce0: 09 02 80 52 	mov	w9, #16
100009ce4: 69 01 00 14 	b	0x10000a288 <__ZN5gimli4read4line15parse_attribute17h1a8f96e1a18a5eedE+0x9a4>
100009ce8: 1f 21 00 71 	cmp	w8, #8
100009cec: a1 14 00 54 	b.ne	0x100009f80 <__ZN5gimli4read4line15parse_attribute17h1a8f96e1a18a5eedE+0x69c>
100009cf0: 29 20 40 a9 	ldp	x9, x8, [x1]
100009cf4: 0a 21 00 f1 	subs	x10, x8, #8
100009cf8: 62 25 00 54 	b.hs	0x10000a1a4 <__ZN5gimli4read4line15parse_attribute17h1a8f96e1a18a5eedE+0x8c0>
100009cfc: 08 00 80 d2 	mov	x8, #0
100009d00: 6a 02 80 52 	mov	w10, #19
100009d04: 2b 01 00 14 	b	0x10000a1b0 <__ZN5gimli4read4line15parse_attribute17h1a8f96e1a18a5eedE+0x8cc>
100009d08: 29 28 40 a9 	ldp	x9, x10, [x1]
100009d0c: 0a 20 00 b4 	cbz	x10, 0x10000a10c <__ZN5gimli4read4line15parse_attribute17h1a8f96e1a18a5eedE+0x828>
100009d10: 28 15 40 38 	ldrb	w8, [x9], #1
100009d14: 4a 05 00 d1 	sub	x10, x10, #1
100009d18: 29 28 00 a9 	stp	x9, x10, [x1]
100009d1c: ea 08 80 52 	mov	w10, #71
100009d20: 4b 1d 00 12 	and	w11, w10, #0xff
100009d24: 7f 1d 01 71 	cmp	w11, #71
100009d28: 61 20 00 54 	b.ne	0x10000a134 <__ZN5gimli4read4line15parse_attribute17h1a8f96e1a18a5eedE+0x850>
100009d2c: fd 00 00 14 	b	0x10000a120 <__ZN5gimli4read4line15parse_attribute17h1a8f96e1a18a5eedE+0x83c>
100009d30: 29 20 40 a9 	ldp	x9, x8, [x1]
100009d34: 0a 09 00 f1 	subs	x10, x8, #2
100009d38: 02 13 00 54 	b.hs	0x100009f98 <__ZN5gimli4read4line15parse_attribute17h1a8f96e1a18a5eedE+0x6b4>
100009d3c: 08 00 80 52 	mov	w8, #0
100009d40: 6a 02 80 52 	mov	w10, #19
100009d44: 4b 1d 00 12 	and	w11, w10, #0xff
100009d48: 7f 1d 01 71 	cmp	w11, #71
100009d4c: 20 13 00 54 	b.eq	0x100009fb0 <__ZN5gimli4read4line15parse_attribute17h1a8f96e1a18a5eedE+0x6cc>
100009d50: ff 13 00 79 	strh	wzr, [sp, #8]
100009d54: ff a3 00 b8 	stur	wzr, [sp, #10]
100009d58: ff 3b 00 39 	strb	wzr, [sp, #14]
100009d5c: e8 0b 40 b9 	ldr	w8, [sp, #8]
100009d60: e8 23 00 b9 	str	w8, [sp, #32]
100009d64: 1a 00 00 14 	b	0x100009dcc <__ZN5gimli4read4line15parse_attribute17h1a8f96e1a18a5eedE+0x4e8>
100009d68: 29 20 40 a9 	ldp	x9, x8, [x1]
100009d6c: 08 0d 00 f1 	subs	x8, x8, #3
100009d70: a2 12 00 54 	b.hs	0x100009fc4 <__ZN5gimli4read4line15parse_attribute17h1a8f96e1a18a5eedE+0x6e0>
100009d74: 08 00 80 d2 	mov	x8, #0
100009d78: 6a 02 80 52 	mov	w10, #19
100009d7c: 4b 1d 00 12 	and	w11, w10, #0xff
100009d80: 7f 1d 01 71 	cmp	w11, #71
100009d84: 20 13 00 54 	b.eq	0x100009fe8 <__ZN5gimli4read4line15parse_attribute17h1a8f96e1a18a5eedE+0x704>
100009d88: 6a 22 00 39 	strb	w10, [x19, #8]
100009d8c: 7f 3e 00 39 	strb	wzr, [x19, #15]
100009d90: 7f d2 00 78 	sturh	wzr, [x19, #13]
100009d94: 7f 92 00 b8 	stur	wzr, [x19, #9]
100009d98: 4f 01 00 14 	b	0x10000a2d4 <__ZN5gimli4read4line15parse_attribute17h1a8f96e1a18a5eedE+0x9f0>
100009d9c: 29 20 40 a9 	ldp	x9, x8, [x1]
100009da0: 0a 11 00 f1 	subs	x10, x8, #4
100009da4: c2 12 00 54 	b.hs	0x100009ffc <__ZN5gimli4read4line15parse_attribute17h1a8f96e1a18a5eedE+0x718>
100009da8: 08 00 80 52 	mov	w8, #0
100009dac: 6a 02 80 52 	mov	w10, #19
100009db0: 4b 1d 00 12 	and	w11, w10, #0xff
100009db4: 7f 1d 01 71 	cmp	w11, #71
100009db8: e0 12 00 54 	b.eq	0x10000a014 <__ZN5gimli4read4line15parse_attribute17h1a8f96e1a18a5eedE+0x730>
100009dbc: ff 0b 00 b9 	str	wzr, [sp, #8]
100009dc0: ff 3b 00 39 	strb	wzr, [sp, #14]
100009dc4: ff 1b 00 79 	strh	wzr, [sp, #12]
100009dc8: ff 23 00 b9 	str	wzr, [sp, #32]
100009dcc: e8 b3 40 b8 	ldur	w8, [sp, #11]
100009dd0: e8 33 02 b8 	stur	w8, [sp, #35]
100009dd4: e8 23 40 b9 	ldr	w8, [sp, #32]
100009dd8: 68 92 00 b8 	stur	w8, [x19, #9]
100009ddc: e8 33 42 b8 	ldur	w8, [sp, #35]
100009de0: 68 0e 00 b9 	str	w8, [x19, #12]
100009de4: 6a 22 00 39 	strb	w10, [x19, #8]
100009de8: 3b 01 00 14 	b	0x10000a2d4 <__ZN5gimli4read4line15parse_attribute17h1a8f96e1a18a5eedE+0x9f0>
100009dec: 1f 21 00 71 	cmp	w8, #8
100009df0: 61 13 00 54 	b.ne	0x10000a05c <__ZN5gimli4read4line15parse_attribute17h1a8f96e1a18a5eedE+0x778>
100009df4: 29 20 40 a9 	ldp	x9, x8, [x1]
100009df8: 0a 21 00 f1 	subs	x10, x8, #8
100009dfc: 22 1e 00 54 	b.hs	0x10000a1c0 <__ZN5gimli4read4line15parse_attribute17h1a8f96e1a18a5eedE+0x8dc>
100009e00: 08 00 80 d2 	mov	x8, #0
100009e04: 6a 02 80 52 	mov	w10, #19
100009e08: f1 00 00 14 	b	0x10000a1cc <__ZN5gimli4read4line15parse_attribute17h1a8f96e1a18a5eedE+0x8e8>
100009e0c: 29 20 40 a9 	ldp	x9, x8, [x1]
100009e10: 0a 11 00 f1 	subs	x10, x8, #4
100009e14: e2 13 00 54 	b.hs	0x10000a090 <__ZN5gimli4read4line15parse_attribute17h1a8f96e1a18a5eedE+0x7ac>
100009e18: 08 00 80 d2 	mov	x8, #0
100009e1c: 6a 02 80 52 	mov	w10, #19
100009e20: 9f 00 00 14 	b	0x10000a09c <__ZN5gimli4read4line15parse_attribute17h1a8f96e1a18a5eedE+0x7b8>
100009e24: ca 3d 08 53 	ubfx	w10, w14, #8, #8
100009e28: cb 3d 10 12 	and	w11, w14, #0xffff0000
100009e2c: cc 7d 60 92 	and	x12, x14, #0xffffffff00000000
100009e30: ad 03 80 52 	mov	w13, #29
100009e34: e8 03 0e aa 	mov	x8, x14
100009e38: 14 01 00 14 	b	0x10000a288 <__ZN5gimli4read4line15parse_attribute17h1a8f96e1a18a5eedE+0x9a4>
100009e3c: 09 25 40 78 	ldrh	w9, [x8], #2
100009e40: 28 2c 00 a9 	stp	x8, x11, [x1]
100009e44: ea 08 80 52 	mov	w10, #71
100009e48: 4c 1d 00 12 	and	w12, w10, #0xff
100009e4c: 9f 1d 01 71 	cmp	w12, #71
100009e50: a0 01 00 54 	b.eq	0x100009e84 <__ZN5gimli4read4line15parse_attribute17h1a8f96e1a18a5eedE+0x5a0>
100009e54: ff 13 00 79 	strh	wzr, [sp, #8]
100009e58: ff a3 00 b8 	stur	wzr, [sp, #10]
100009e5c: ff 3b 00 39 	strb	wzr, [sp, #14]
100009e60: e9 0b 40 b9 	ldr	w9, [sp, #8]
100009e64: e9 23 00 b9 	str	w9, [sp, #32]
100009e68: 74 00 00 14 	b	0x10000a038 <__ZN5gimli4read4line15parse_attribute17h1a8f96e1a18a5eedE+0x754>
100009e6c: 09 45 40 b8 	ldr	w9, [x8], #4
100009e70: 28 2c 00 a9 	stp	x8, x11, [x1]
100009e74: ea 08 80 52 	mov	w10, #71
100009e78: 4c 1d 00 12 	and	w12, w10, #0xff
100009e7c: 9f 1d 01 71 	cmp	w12, #71
100009e80: 41 0d 00 54 	b.ne	0x10000a028 <__ZN5gimli4read4line15parse_attribute17h1a8f96e1a18a5eedE+0x744>
100009e84: 6b 01 09 eb 	subs	x11, x11, x9
100009e88: 82 00 00 54 	b.hs	0x100009e98 <__ZN5gimli4read4line15parse_attribute17h1a8f96e1a18a5eedE+0x5b4>
100009e8c: 69 02 80 52 	mov	w9, #19
100009e90: 69 a2 00 a9 	stp	x9, x8, [x19, #8]
100009e94: 11 01 00 14 	b	0x10000a2d8 <__ZN5gimli4read4line15parse_attribute17h1a8f96e1a18a5eedE+0x9f4>
100009e98: 0c 01 09 8b 	add	x12, x8, x9
100009e9c: 0a 3d 08 53 	ubfx	w10, w8, #8, #8
100009ea0: 2c 2c 00 a9 	stp	x12, x11, [x1]
100009ea4: 0b 3d 10 12 	and	w11, w8, #0xffff0000
100009ea8: 0c 7d 60 92 	and	x12, x8, #0xffffffff00000000
100009eac: 2d 00 80 52 	mov	w13, #1
100009eb0: f6 00 00 14 	b	0x10000a288 <__ZN5gimli4read4line15parse_attribute17h1a8f96e1a18a5eedE+0x9a4>
100009eb4: 28 25 40 78 	ldrh	w8, [x9], #2
100009eb8: 29 28 00 a9 	stp	x9, x10, [x1]
100009ebc: ea 08 80 52 	mov	w10, #71
100009ec0: 4b 1d 00 12 	and	w11, w10, #0xff
100009ec4: 7f 1d 01 71 	cmp	w11, #71
100009ec8: 01 db ff 54 	b.ne	0x100009a28 <__ZN5gimli4read4line15parse_attribute17h1a8f96e1a18a5eedE+0x144>
100009ecc: 0b 00 80 52 	mov	w11, #0
100009ed0: 0c 00 80 d2 	mov	x12, #0
100009ed4: 0a 7d 08 53 	lsr	w10, w8, #8
100009ed8: 6d 00 80 52 	mov	w13, #3
100009edc: eb 00 00 14 	b	0x10000a288 <__ZN5gimli4read4line15parse_attribute17h1a8f96e1a18a5eedE+0x9a4>
100009ee0: 28 45 40 b8 	ldr	w8, [x9], #4
100009ee4: 29 28 00 a9 	stp	x9, x10, [x1]
100009ee8: ea 08 80 52 	mov	w10, #71
100009eec: 4b 1d 00 12 	and	w11, w10, #0xff
100009ef0: 7f 1d 01 71 	cmp	w11, #71
100009ef4: a1 db ff 54 	b.ne	0x100009a68 <__ZN5gimli4read4line15parse_attribute17h1a8f96e1a18a5eedE+0x184>
100009ef8: 0c 00 80 d2 	mov	x12, #0
100009efc: 0a 3d 08 53 	ubfx	w10, w8, #8, #8
100009f00: 0b 3d 10 12 	and	w11, w8, #0xffff0000
100009f04: 8d 00 80 52 	mov	w13, #4
100009f08: e0 00 00 14 	b	0x10000a288 <__ZN5gimli4read4line15parse_attribute17h1a8f96e1a18a5eedE+0x9a4>
100009f0c: 2e 85 40 f8 	ldr	x14, [x9], #8
100009f10: 29 20 00 a9 	stp	x9, x8, [x1]
100009f14: e8 08 80 52 	mov	w8, #71
100009f18: 0a 1d 00 12 	and	w10, w8, #0xff
100009f1c: 5f 1d 01 71 	cmp	w10, #71
100009f20: c1 dc ff 54 	b.ne	0x100009ab8 <__ZN5gimli4read4line15parse_attribute17h1a8f96e1a18a5eedE+0x1d4>
100009f24: ca 3d 08 53 	ubfx	w10, w14, #8, #8
100009f28: cb 3d 10 12 	and	w11, w14, #0xffff0000
100009f2c: cc 7d 60 92 	and	x12, x14, #0xffffffff00000000
100009f30: ad 00 80 52 	mov	w13, #5
100009f34: e8 03 0e aa 	mov	x8, x14
100009f38: d4 00 00 14 	b	0x10000a288 <__ZN5gimli4read4line15parse_attribute17h1a8f96e1a18a5eedE+0x9a4>
100009f3c: e9 0b 40 f9 	ldr	x9, [sp, #16]
100009f40: ea 93 40 b8 	ldur	w10, [sp, #9]
100009f44: ea 23 00 b9 	str	w10, [sp, #32]
100009f48: ea 0f 40 b9 	ldr	w10, [sp, #12]
100009f4c: ea 33 02 b8 	stur	w10, [sp, #35]
100009f50: ea 23 40 b9 	ldr	w10, [sp, #32]
100009f54: 6a 92 00 b8 	stur	w10, [x19, #9]
100009f58: ea 33 42 b8 	ldur	w10, [sp, #35]
100009f5c: 6a 0e 00 b9 	str	w10, [x19, #12]
100009f60: 68 22 00 39 	strb	w8, [x19, #8]
100009f64: dc 00 00 14 	b	0x10000a2d4 <__ZN5gimli4read4line15parse_attribute17h1a8f96e1a18a5eedE+0x9f0>
100009f68: 29 20 40 a9 	ldp	x9, x8, [x1]
100009f6c: 0a 11 00 f1 	subs	x10, x8, #4
100009f70: c2 14 00 54 	b.hs	0x10000a208 <__ZN5gimli4read4line15parse_attribute17h1a8f96e1a18a5eedE+0x924>
100009f74: 08 00 80 d2 	mov	x8, #0
100009f78: 6a 02 80 52 	mov	w10, #19
100009f7c: a6 00 00 14 	b	0x10000a214 <__ZN5gimli4read4line15parse_attribute17h1a8f96e1a18a5eedE+0x930>
100009f80: 29 20 40 a9 	ldp	x9, x8, [x1]
100009f84: 0a 11 00 f1 	subs	x10, x8, #4
100009f88: 62 15 00 54 	b.hs	0x10000a234 <__ZN5gimli4read4line15parse_attribute17h1a8f96e1a18a5eedE+0x950>
100009f8c: 08 00 80 d2 	mov	x8, #0
100009f90: 6a 02 80 52 	mov	w10, #19
100009f94: ab 00 00 14 	b	0x10000a240 <__ZN5gimli4read4line15parse_attribute17h1a8f96e1a18a5eedE+0x95c>
100009f98: 28 25 40 78 	ldrh	w8, [x9], #2
100009f9c: 29 28 00 a9 	stp	x9, x10, [x1]
100009fa0: ea 08 80 52 	mov	w10, #71
100009fa4: 4b 1d 00 12 	and	w11, w10, #0xff
100009fa8: 7f 1d 01 71 	cmp	w11, #71
100009fac: 21 ed ff 54 	b.ne	0x100009d50 <__ZN5gimli4read4line15parse_attribute17h1a8f96e1a18a5eedE+0x46c>
100009fb0: 0b 00 80 52 	mov	w11, #0
100009fb4: 0c 00 80 d2 	mov	x12, #0
100009fb8: 0a 7d 08 53 	lsr	w10, w8, #8
100009fbc: ad 03 80 52 	mov	w13, #29
100009fc0: b2 00 00 14 	b	0x10000a288 <__ZN5gimli4read4line15parse_attribute17h1a8f96e1a18a5eedE+0x9a4>
100009fc4: 2a 0d 00 91 	add	x10, x9, #3
100009fc8: 2a 20 00 a9 	stp	x10, x8, [x1]
100009fcc: 2a 09 40 39 	ldrb	w10, [x9, #2]
100009fd0: 28 01 40 79 	ldrh	w8, [x9]
100009fd4: 48 1d 70 b3 	bfi	x8, x10, #16, #8
100009fd8: ea 08 80 52 	mov	w10, #71
100009fdc: 4b 1d 00 12 	and	w11, w10, #0xff
100009fe0: 7f 1d 01 71 	cmp	w11, #71
100009fe4: 21 ed ff 54 	b.ne	0x100009d88 <__ZN5gimli4read4line15parse_attribute17h1a8f96e1a18a5eedE+0x4a4>
100009fe8: 0c 00 80 d2 	mov	x12, #0
100009fec: 0a 3d 08 53 	ubfx	w10, w8, #8, #8
100009ff0: 0b 1d 10 12 	and	w11, w8, #0xff0000
100009ff4: ad 03 80 52 	mov	w13, #29
100009ff8: a4 00 00 14 	b	0x10000a288 <__ZN5gimli4read4line15parse_attribute17h1a8f96e1a18a5eedE+0x9a4>
100009ffc: 28 45 40 b8 	ldr	w8, [x9], #4
10000a000: 29 28 00 a9 	stp	x9, x10, [x1]
10000a004: ea 08 80 52 	mov	w10, #71
10000a008: 4b 1d 00 12 	and	w11, w10, #0xff
10000a00c: 7f 1d 01 71 	cmp	w11, #71
10000a010: 61 ed ff 54 	b.ne	0x100009dbc <__ZN5gimli4read4line15parse_attribute17h1a8f96e1a18a5eedE+0x4d8>
10000a014: 0c 00 80 d2 	mov	x12, #0
10000a018: 0a 7d 08 53 	lsr	w10, w8, #8
10000a01c: 0b 3d 10 12 	and	w11, w8, #0xffff0000
10000a020: ad 03 80 52 	mov	w13, #29
10000a024: 99 00 00 14 	b	0x10000a288 <__ZN5gimli4read4line15parse_attribute17h1a8f96e1a18a5eedE+0x9a4>
10000a028: ff 0b 00 b9 	str	wzr, [sp, #8]
10000a02c: ff 3b 00 39 	strb	wzr, [sp, #14]
10000a030: ff 1b 00 79 	strh	wzr, [sp, #12]
10000a034: ff 23 00 b9 	str	wzr, [sp, #32]
10000a038: e9 b3 40 b8 	ldur	w9, [sp, #11]
10000a03c: e9 33 02 b8 	stur	w9, [sp, #35]
10000a040: e9 23 40 b9 	ldr	w9, [sp, #32]
10000a044: 69 92 00 b8 	stur	w9, [x19, #9]
10000a048: e9 33 42 b8 	ldur	w9, [sp, #35]
10000a04c: 69 0e 00 b9 	str	w9, [x19, #12]
10000a050: 6a 22 00 39 	strb	w10, [x19, #8]
10000a054: 68 0a 00 f9 	str	x8, [x19, #16]
10000a058: a0 00 00 14 	b	0x10000a2d8 <__ZN5gimli4read4line15parse_attribute17h1a8f96e1a18a5eedE+0x9f4>
10000a05c: 29 20 40 a9 	ldp	x9, x8, [x1]
10000a060: 0a 11 00 f1 	subs	x10, x8, #4
10000a064: e2 0f 00 54 	b.hs	0x10000a260 <__ZN5gimli4read4line15parse_attribute17h1a8f96e1a18a5eedE+0x97c>
10000a068: 08 00 80 d2 	mov	x8, #0
10000a06c: 6a 02 80 52 	mov	w10, #19
10000a070: 7f 00 00 14 	b	0x10000a26c <__ZN5gimli4read4line15parse_attribute17h1a8f96e1a18a5eedE+0x988>
10000a074: 28 85 40 f8 	ldr	x8, [x9], #8
10000a078: 29 28 00 a9 	stp	x9, x10, [x1]
10000a07c: ea 08 80 52 	mov	w10, #71
10000a080: 4a 1d 00 12 	and	w10, w10, #0xff
10000a084: 5f 1d 01 71 	cmp	w10, #71
10000a088: 00 01 00 54 	b.eq	0x10000a0a8 <__ZN5gimli4read4line15parse_attribute17h1a8f96e1a18a5eedE+0x7c4>
10000a08c: 53 00 00 14 	b	0x10000a1d8 <__ZN5gimli4read4line15parse_attribute17h1a8f96e1a18a5eedE+0x8f4>
10000a090: 28 45 40 b8 	ldr	w8, [x9], #4
10000a094: 29 28 00 a9 	stp	x9, x10, [x1]
10000a098: ea 08 80 52 	mov	w10, #71
10000a09c: 4a 1d 00 12 	and	w10, w10, #0xff
10000a0a0: 5f 1d 01 71 	cmp	w10, #71
10000a0a4: 01 10 00 54 	b.ne	0x10000a2a4 <__ZN5gimli4read4line15parse_attribute17h1a8f96e1a18a5eedE+0x9c0>
10000a0a8: 0a 3d 08 53 	ubfx	w10, w8, #8, #8
10000a0ac: 0b 3d 10 12 	and	w11, w8, #0xffff0000
10000a0b0: 0c 7d 60 92 	and	x12, x8, #0xffffffff00000000
10000a0b4: 6d 03 80 52 	mov	w13, #27
10000a0b8: 74 00 00 14 	b	0x10000a288 <__ZN5gimli4read4line15parse_attribute17h1a8f96e1a18a5eedE+0x9a4>
10000a0bc: 69 02 80 52 	mov	w9, #19
10000a0c0: 69 12 00 79 	strh	w9, [x19, #8]
10000a0c4: fa fe ff 17 	b	0x100009cac <__ZN5gimli4read4line15parse_attribute17h1a8f96e1a18a5eedE+0x3c8>
10000a0c8: 08 00 80 52 	mov	w8, #0
10000a0cc: 6a 02 80 52 	mov	w10, #19
10000a0d0: 4b 1d 00 12 	and	w11, w10, #0xff
10000a0d4: 7f 1d 01 71 	cmp	w11, #71
10000a0d8: e1 02 00 54 	b.ne	0x10000a134 <__ZN5gimli4read4line15parse_attribute17h1a8f96e1a18a5eedE+0x850>
10000a0dc: 0a 00 80 52 	mov	w10, #0
10000a0e0: 0b 00 80 52 	mov	w11, #0
10000a0e4: 0c 00 80 d2 	mov	x12, #0
10000a0e8: 4d 00 80 52 	mov	w13, #2
10000a0ec: 67 00 00 14 	b	0x10000a288 <__ZN5gimli4read4line15parse_attribute17h1a8f96e1a18a5eedE+0x9a4>
10000a0f0: 09 00 80 52 	mov	w9, #0
10000a0f4: 6a 02 80 52 	mov	w10, #19
10000a0f8: 4b 1d 00 12 	and	w11, w10, #0xff
10000a0fc: 7f 1d 01 71 	cmp	w11, #71
10000a100: 20 d7 ff 54 	b.eq	0x100009be4 <__ZN5gimli4read4line15parse_attribute17h1a8f96e1a18a5eedE+0x300>
10000a104: 6a 22 00 39 	strb	w10, [x19, #8]
10000a108: e8 fe ff 17 	b	0x100009ca8 <__ZN5gimli4read4line15parse_attribute17h1a8f96e1a18a5eedE+0x3c4>
10000a10c: 08 00 80 52 	mov	w8, #0
10000a110: 6a 02 80 52 	mov	w10, #19
10000a114: 4b 1d 00 12 	and	w11, w10, #0xff
10000a118: 7f 1d 01 71 	cmp	w11, #71
10000a11c: c1 00 00 54 	b.ne	0x10000a134 <__ZN5gimli4read4line15parse_attribute17h1a8f96e1a18a5eedE+0x850>
10000a120: 0a 00 80 52 	mov	w10, #0
10000a124: 0b 00 80 52 	mov	w11, #0
10000a128: 0c 00 80 d2 	mov	x12, #0
10000a12c: ad 03 80 52 	mov	w13, #29
10000a130: 56 00 00 14 	b	0x10000a288 <__ZN5gimli4read4line15parse_attribute17h1a8f96e1a18a5eedE+0x9a4>
10000a134: 6a 22 00 39 	strb	w10, [x19, #8]
10000a138: 7f 26 00 39 	strb	wzr, [x19, #9]
10000a13c: 7f 1e 00 79 	strh	wzr, [x19, #14]
10000a140: 7f a2 00 b8 	stur	wzr, [x19, #10]
10000a144: 64 00 00 14 	b	0x10000a2d4 <__ZN5gimli4read4line15parse_attribute17h1a8f96e1a18a5eedE+0x9f0>
10000a148: 0b 01 09 8b 	add	x11, x8, x9
10000a14c: 6b 05 00 91 	add	x11, x11, #1
10000a150: ec 03 29 aa 	mvn	x12, x9
10000a154: 4a 01 0c 8b 	add	x10, x10, x12
10000a158: 2b 28 00 a9 	stp	x11, x10, [x1]
10000a15c: 0a 3d 08 53 	ubfx	w10, w8, #8, #8
10000a160: 0b 3d 10 12 	and	w11, w8, #0xffff0000
10000a164: 0c 7d 60 92 	and	x12, x8, #0xffffffff00000000
10000a168: ed 03 80 52 	mov	w13, #31
10000a16c: 47 00 00 14 	b	0x10000a288 <__ZN5gimli4read4line15parse_attribute17h1a8f96e1a18a5eedE+0x9a4>
10000a170: ca 3d 08 53 	ubfx	w10, w14, #8, #8
10000a174: cb 3d 10 12 	and	w11, w14, #0xffff0000
10000a178: cc 7d 60 92 	and	x12, x14, #0xffffffff00000000
10000a17c: ed 00 80 52 	mov	w13, #7
10000a180: e8 03 0e aa 	mov	x8, x14
10000a184: 41 00 00 14 	b	0x10000a288 <__ZN5gimli4read4line15parse_attribute17h1a8f96e1a18a5eedE+0x9a4>
10000a188: 28 85 40 f8 	ldr	x8, [x9], #8
10000a18c: 29 28 00 a9 	stp	x9, x10, [x1]
10000a190: ea 08 80 52 	mov	w10, #71
10000a194: 4a 1d 00 12 	and	w10, w10, #0xff
10000a198: 5f 1d 01 71 	cmp	w10, #71
10000a19c: e1 01 00 54 	b.ne	0x10000a1d8 <__ZN5gimli4read4line15parse_attribute17h1a8f96e1a18a5eedE+0x8f4>
10000a1a0: 20 00 00 14 	b	0x10000a220 <__ZN5gimli4read4line15parse_attribute17h1a8f96e1a18a5eedE+0x93c>
10000a1a4: 28 85 40 f8 	ldr	x8, [x9], #8
10000a1a8: 29 28 00 a9 	stp	x9, x10, [x1]
10000a1ac: ea 08 80 52 	mov	w10, #71
10000a1b0: 4a 1d 00 12 	and	w10, w10, #0xff
10000a1b4: 5f 1d 01 71 	cmp	w10, #71
10000a1b8: 01 01 00 54 	b.ne	0x10000a1d8 <__ZN5gimli4read4line15parse_attribute17h1a8f96e1a18a5eedE+0x8f4>
10000a1bc: 24 00 00 14 	b	0x10000a24c <__ZN5gimli4read4line15parse_attribute17h1a8f96e1a18a5eedE+0x968>
10000a1c0: 28 85 40 f8 	ldr	x8, [x9], #8
10000a1c4: 29 28 00 a9 	stp	x9, x10, [x1]
10000a1c8: ea 08 80 52 	mov	w10, #71
10000a1cc: 4a 1d 00 12 	and	w10, w10, #0xff
10000a1d0: 5f 1d 01 71 	cmp	w10, #71
10000a1d4: 20 05 00 54 	b.eq	0x10000a278 <__ZN5gimli4read4line15parse_attribute17h1a8f96e1a18a5eedE+0x994>
10000a1d8: ff 3b 00 39 	strb	wzr, [sp, #14]
10000a1dc: ff 1b 00 79 	strh	wzr, [sp, #12]
10000a1e0: ff 0b 00 b9 	str	wzr, [sp, #8]
10000a1e4: e9 f3 00 f8 	stur	x9, [sp, #15]
10000a1e8: e8 07 40 f9 	ldr	x8, [sp, #8]
10000a1ec: e9 13 40 b9 	ldr	w9, [sp, #16]
10000a1f0: e9 2b 00 b9 	str	w9, [sp, #40]
10000a1f4: e9 33 41 b8 	ldur	w9, [sp, #19]
10000a1f8: e9 b3 02 b8 	stur	w9, [sp, #43]
10000a1fc: e8 13 00 f9 	str	x8, [sp, #32]
10000a200: e9 73 42 f8 	ldur	x9, [sp, #39]
10000a204: 2b 00 00 14 	b	0x10000a2b0 <__ZN5gimli4read4line15parse_attribute17h1a8f96e1a18a5eedE+0x9cc>
10000a208: 28 45 40 b8 	ldr	w8, [x9], #4
10000a20c: 29 28 00 a9 	stp	x9, x10, [x1]
10000a210: ea 08 80 52 	mov	w10, #71
10000a214: 4a 1d 00 12 	and	w10, w10, #0xff
10000a218: 5f 1d 01 71 	cmp	w10, #71
10000a21c: 41 04 00 54 	b.ne	0x10000a2a4 <__ZN5gimli4read4line15parse_attribute17h1a8f96e1a18a5eedE+0x9c0>
10000a220: 0a 3d 08 53 	ubfx	w10, w8, #8, #8
10000a224: 0b 3d 10 12 	and	w11, w8, #0xffff0000
10000a228: 0c 7d 60 92 	and	x12, x8, #0xffffffff00000000
10000a22c: 4d 03 80 52 	mov	w13, #26
10000a230: 16 00 00 14 	b	0x10000a288 <__ZN5gimli4read4line15parse_attribute17h1a8f96e1a18a5eedE+0x9a4>
10000a234: 28 45 40 b8 	ldr	w8, [x9], #4
10000a238: 29 28 00 a9 	stp	x9, x10, [x1]
10000a23c: ea 08 80 52 	mov	w10, #71
10000a240: 4a 1d 00 12 	and	w10, w10, #0xff
10000a244: 5f 1d 01 71 	cmp	w10, #71
10000a248: e1 02 00 54 	b.ne	0x10000a2a4 <__ZN5gimli4read4line15parse_attribute17h1a8f96e1a18a5eedE+0x9c0>
10000a24c: 0a 3d 08 53 	ubfx	w10, w8, #8, #8
10000a250: 0b 3d 10 12 	and	w11, w8, #0xffff0000
10000a254: 0c 7d 60 92 	and	x12, x8, #0xffffffff00000000
10000a258: cd 03 80 52 	mov	w13, #30
10000a25c: 0b 00 00 14 	b	0x10000a288 <__ZN5gimli4read4line15parse_attribute17h1a8f96e1a18a5eedE+0x9a4>
10000a260: 28 45 40 b8 	ldr	w8, [x9], #4
10000a264: 29 28 00 a9 	stp	x9, x10, [x1]
10000a268: ea 08 80 52 	mov	w10, #71
10000a26c: 4a 1d 00 12 	and	w10, w10, #0xff
10000a270: 5f 1d 01 71 	cmp	w10, #71
10000a274: 81 01 00 54 	b.ne	0x10000a2a4 <__ZN5gimli4read4line15parse_attribute17h1a8f96e1a18a5eedE+0x9c0>
10000a278: 0a 3d 08 53 	ubfx	w10, w8, #8, #8
10000a27c: 0b 3d 10 12 	and	w11, w8, #0xffff0000
10000a280: 0c 7d 60 92 	and	x12, x8, #0xffffffff00000000
10000a284: 4d 01 80 52 	mov	w13, #10
10000a288: 08 1d 00 12 	and	w8, w8, #0xff
10000a28c: 48 1d 18 33 	bfi	w8, w10, #8, #8
10000a290: 08 01 0b 2a 	orr	w8, w8, w11
10000a294: 88 01 08 aa 	orr	x8, x12, x8
10000a298: 6d 22 00 a9 	stp	x13, x8, [x19]
10000a29c: 69 0a 00 f9 	str	x9, [x19, #16]
10000a2a0: 10 00 00 14 	b	0x10000a2e0 <__ZN5gimli4read4line15parse_attribute17h1a8f96e1a18a5eedE+0x9fc>
10000a2a4: ff 23 00 b9 	str	wzr, [sp, #32]
10000a2a8: ff 9b 00 39 	strb	wzr, [sp, #38]
10000a2ac: ff 4b 00 79 	strh	wzr, [sp, #36]
10000a2b0: e8 23 40 b9 	ldr	w8, [sp, #32]
10000a2b4: e8 1b 00 b9 	str	w8, [sp, #24]
10000a2b8: e8 33 42 b8 	ldur	w8, [sp, #35]
10000a2bc: e8 b3 01 b8 	stur	w8, [sp, #27]
10000a2c0: e8 1b 40 b9 	ldr	w8, [sp, #24]
10000a2c4: 68 92 00 b8 	stur	w8, [x19, #9]
10000a2c8: e8 b3 41 b8 	ldur	w8, [sp, #27]
10000a2cc: 68 0e 00 b9 	str	w8, [x19, #12]
10000a2d0: 6a 22 00 39 	strb	w10, [x19, #8]
10000a2d4: 69 0a 00 f9 	str	x9, [x19, #16]
10000a2d8: c8 05 80 52 	mov	w8, #46
10000a2dc: 68 02 00 f9 	str	x8, [x19]
10000a2e0: fd 7b 44 a9 	ldp	x29, x30, [sp, #64]
10000a2e4: f4 4f 43 a9 	ldp	x20, x19, [sp, #48]
10000a2e8: ff 43 01 91 	add	sp, sp, #80
10000a2ec: c0 03 5f d6 	ret

000000010000a2f0 <__ZN5gimli4read4unit15parse_attribute17h272502993371f398E>:
10000a2f0: ff 83 01 d1 	sub	sp, sp, #96
10000a2f4: f6 57 03 a9 	stp	x22, x21, [sp, #48]
10000a2f8: f4 4f 04 a9 	stp	x20, x19, [sp, #64]
10000a2fc: fd 7b 05 a9 	stp	x29, x30, [sp, #80]
10000a300: fd 43 01 91 	add	x29, sp, #80
10000a304: f4 03 03 aa 	mov	x20, x3
10000a308: f5 03 01 aa 	mov	x21, x1
10000a30c: f3 03 00 aa 	mov	x19, x0
10000a310: 69 14 40 79 	ldrh	w9, [x3, #10]
10000a314: cb 0f 15 10 	adr	x11, #172536
10000a318: 1f 20 03 d5 	nop
10000a31c: ec 03 09 aa 	mov	x12, x9
10000a320: e8 03 0c aa 	mov	x8, x12
10000a324: 8a 3d 00 12 	and	w10, w12, #0xffff
10000a328: 4c 05 00 51 	sub	w12, w10, #1
10000a32c: 9f ad 00 71 	cmp	w12, #43
10000a330: c8 03 00 54 	b.hi	0x10000a3a8 <__ZN5gimli4read4unit15parse_attribute17h272502993371f398E+0xb8>
10000a334: 8a 00 00 10 	adr	x10, #16
10000a338: 6d 79 6c 78 	ldrh	w13, [x11, x12, lsl #1]
10000a33c: 4a 09 0d 8b 	add	x10, x10, x13, lsl #2
10000a340: 40 01 1f d6 	br	x10
10000a344: aa 36 40 a9 	ldp	x10, x13, [x21]
10000a348: ad 3b 00 b4 	cbz	x13, 0x10000aabc <__ZN5gimli4read4unit15parse_attribute17h272502993371f398E+0x7cc>
10000a34c: ee 03 0a aa 	mov	x14, x10
10000a350: d0 15 40 38 	ldrb	w16, [x14], #1
10000a354: af 05 00 d1 	sub	x15, x13, #1
10000a358: ae 3e 00 a9 	stp	x14, x15, [x21]
10000a35c: 0c 1a 00 12 	and	w12, w16, #0x7f
10000a360: 10 fe 3f 36 	tbz	w16, #7, 0x10000a320 <__ZN5gimli4read4unit15parse_attribute17h272502993371f398E+0x30>
10000a364: 4f 64 00 b4 	cbz	x15, 0x10000afec <__ZN5gimli4read4unit15parse_attribute17h272502993371f398E+0xcfc>
10000a368: 4e 09 00 91 	add	x14, x10, #2
10000a36c: af 09 00 d1 	sub	x15, x13, #2
10000a370: ae 3e 00 a9 	stp	x14, x15, [x21]
10000a374: 50 05 40 39 	ldrb	w16, [x10, #1]
10000a378: 11 1a 00 12 	and	w17, w16, #0x7f
10000a37c: 2c 1a 19 33 	bfi	w12, w17, #7, #7
10000a380: 10 fd 3f 36 	tbz	w16, #7, 0x10000a320 <__ZN5gimli4read4unit15parse_attribute17h272502993371f398E+0x30>
10000a384: 4f 63 00 b4 	cbz	x15, 0x10000afec <__ZN5gimli4read4unit15parse_attribute17h272502993371f398E+0xcfc>
10000a388: 4e 0d 00 91 	add	x14, x10, #3
10000a38c: ad 0d 00 d1 	sub	x13, x13, #3
10000a390: ae 36 00 a9 	stp	x14, x13, [x21]
10000a394: 4a 09 40 39 	ldrb	w10, [x10, #2]
10000a398: 5f 0d 00 71 	cmp	w10, #3
10000a39c: 28 87 00 54 	b.hi	0x10000b480 <__ZN5gimli4read4unit15parse_attribute17h272502993371f398E+0x1190>
10000a3a0: 4c 1d 12 33 	bfi	w12, w10, #14, #8
10000a3a4: df ff ff 17 	b	0x10000a320 <__ZN5gimli4read4unit15parse_attribute17h272502993371f398E+0x30>
10000a3a8: 08 e0 83 12 	mov	w8, #-7937
10000a3ac: 48 01 08 0b 	add	w8, w10, w8
10000a3b0: 1f 81 00 71 	cmp	w8, #32
10000a3b4: a8 38 00 54 	b.hi	0x10000aac8 <__ZN5gimli4read4unit15parse_attribute17h272502993371f398E+0x7d8>
10000a3b8: 69 0d 15 10 	adr	x9, #172460
10000a3bc: 1f 20 03 d5 	nop
10000a3c0: 8a 00 00 10 	adr	x10, #16
10000a3c4: 2b 79 68 78 	ldrh	w11, [x9, x8, lsl #1]
10000a3c8: 4a 09 0b 8b 	add	x10, x10, x11, lsl #2
10000a3cc: 40 01 1f d6 	br	x10
10000a3d0: 09 00 80 52 	mov	w9, #0
10000a3d4: 0c 00 80 d2 	mov	x12, #0
10000a3d8: a8 2a 40 a9 	ldp	x8, x10, [x21]
10000a3dc: 4a 05 00 d1 	sub	x10, x10, #1
10000a3e0: 07 00 00 14 	b	0x10000a3fc <__ZN5gimli4read4unit15parse_attribute17h272502993371f398E+0x10c>
10000a3e4: 6d 19 40 92 	and	x13, x11, #0x7f
10000a3e8: ad 21 c9 9a 	lsl	x13, x13, x9
10000a3ec: ac 01 0c aa 	orr	x12, x13, x12
10000a3f0: 29 1d 00 11 	add	w9, w9, #7
10000a3f4: 4a 05 00 d1 	sub	x10, x10, #1
10000a3f8: 6b 39 38 36 	tbz	w11, #7, 0x10000ab24 <__ZN5gimli4read4unit15parse_attribute17h272502993371f398E+0x834>
10000a3fc: 5f 05 00 b1 	cmn	x10, #1
10000a400: e0 2b 00 54 	b.eq	0x10000a97c <__ZN5gimli4read4unit15parse_attribute17h272502993371f398E+0x68c>
10000a404: 0b 15 40 38 	ldrb	w11, [x8], #1
10000a408: a8 2a 00 a9 	stp	x8, x10, [x21]
10000a40c: 3f fd 00 71 	cmp	w9, #63
10000a410: a1 fe ff 54 	b.ne	0x10000a3e4 <__ZN5gimli4read4unit15parse_attribute17h272502993371f398E+0xf4>
10000a414: 7f 09 00 71 	cmp	w11, #2
10000a418: 63 fe ff 54 	b.lo	0x10000a3e4 <__ZN5gimli4read4unit15parse_attribute17h272502993371f398E+0xf4>
10000a41c: 56 01 00 14 	b	0x10000a974 <__ZN5gimli4read4unit15parse_attribute17h272502993371f398E+0x684>
10000a420: 09 00 80 52 	mov	w9, #0
10000a424: 0c 00 80 d2 	mov	x12, #0
10000a428: a8 2a 40 a9 	ldp	x8, x10, [x21]
10000a42c: 4a 05 00 d1 	sub	x10, x10, #1
10000a430: 07 00 00 14 	b	0x10000a44c <__ZN5gimli4read4unit15parse_attribute17h272502993371f398E+0x15c>
10000a434: 6d 19 40 92 	and	x13, x11, #0x7f
10000a438: ad 21 c9 9a 	lsl	x13, x13, x9
10000a43c: ac 01 0c aa 	orr	x12, x13, x12
10000a440: 29 1d 00 11 	add	w9, w9, #7
10000a444: 4a 05 00 d1 	sub	x10, x10, #1
10000a448: ab 37 38 36 	tbz	w11, #7, 0x10000ab3c <__ZN5gimli4read4unit15parse_attribute17h272502993371f398E+0x84c>
10000a44c: 5f 05 00 b1 	cmn	x10, #1
10000a450: 60 29 00 54 	b.eq	0x10000a97c <__ZN5gimli4read4unit15parse_attribute17h272502993371f398E+0x68c>
10000a454: 0b 15 40 38 	ldrb	w11, [x8], #1
10000a458: a8 2a 00 a9 	stp	x8, x10, [x21]
10000a45c: 3f fd 00 71 	cmp	w9, #63
10000a460: a1 fe ff 54 	b.ne	0x10000a434 <__ZN5gimli4read4unit15parse_attribute17h272502993371f398E+0x144>
10000a464: 7f 09 00 71 	cmp	w11, #2
10000a468: 63 fe ff 54 	b.lo	0x10000a434 <__ZN5gimli4read4unit15parse_attribute17h272502993371f398E+0x144>
10000a46c: 42 01 00 14 	b	0x10000a974 <__ZN5gimli4read4unit15parse_attribute17h272502993371f398E+0x684>
10000a470: 48 3c 08 53 	ubfx	w8, w2, #8, #8
10000a474: 1f 21 00 71 	cmp	w8, #8
10000a478: 61 31 00 54 	b.ne	0x10000aaa4 <__ZN5gimli4read4unit15parse_attribute17h272502993371f398E+0x7b4>
10000a47c: a9 22 40 a9 	ldp	x9, x8, [x21]
10000a480: 0a 21 00 f1 	subs	x10, x8, #8
10000a484: 82 36 00 54 	b.hs	0x10000ab54 <__ZN5gimli4read4unit15parse_attribute17h272502993371f398E+0x864>
10000a488: 08 00 80 d2 	mov	x8, #0
10000a48c: 6a 02 80 52 	mov	w10, #19
10000a490: b4 01 00 14 	b	0x10000ab60 <__ZN5gimli4read4unit15parse_attribute17h272502993371f398E+0x870>
10000a494: e0 23 00 91 	add	x0, sp, #8
10000a498: e1 03 15 aa 	mov	x1, x21
10000a49c: 27 06 00 94 	bl	0x10000bd38 <__ZN5gimli4read6reader6Reader12read_address17h67c00f8316884695E>
10000a4a0: e8 23 40 39 	ldrb	w8, [sp, #8]
10000a4a4: 1f 1d 01 71 	cmp	w8, #71
10000a4a8: 21 33 00 54 	b.ne	0x10000ab0c <__ZN5gimli4read4unit15parse_attribute17h272502993371f398E+0x81c>
10000a4ac: 0b 00 80 d2 	mov	x11, #0
10000a4b0: e8 0b 40 f9 	ldr	x8, [sp, #16]
10000a4b4: 09 3d 08 53 	ubfx	w9, w8, #8, #8
10000a4b8: 0d 7d 50 d3 	ubfx	x13, x8, #16, #16
10000a4bc: 0a 7d 60 92 	and	x10, x8, #0xffffffff00000000
10000a4c0: cb 03 00 14 	b	0x10000b3ec <__ZN5gimli4read4unit15parse_attribute17h272502993371f398E+0x10fc>
10000a4c4: a8 26 40 a9 	ldp	x8, x9, [x21]
10000a4c8: 29 09 00 f1 	subs	x9, x9, #2
10000a4cc: e3 66 00 54 	b.lo	0x10000b1a8 <__ZN5gimli4read4unit15parse_attribute17h272502993371f398E+0xeb8>
10000a4d0: 0c 25 40 78 	ldrh	w12, [x8], #2
10000a4d4: 46 00 00 14 	b	0x10000a5ec <__ZN5gimli4read4unit15parse_attribute17h272502993371f398E+0x2fc>
10000a4d8: a8 26 40 a9 	ldp	x8, x9, [x21]
10000a4dc: 29 11 00 f1 	subs	x9, x9, #4
10000a4e0: 43 66 00 54 	b.lo	0x10000b1a8 <__ZN5gimli4read4unit15parse_attribute17h272502993371f398E+0xeb8>
10000a4e4: 0c 45 40 b8 	ldr	w12, [x8], #4
10000a4e8: 41 00 00 14 	b	0x10000a5ec <__ZN5gimli4read4unit15parse_attribute17h272502993371f398E+0x2fc>
10000a4ec: a9 22 40 a9 	ldp	x9, x8, [x21]
10000a4f0: 0a 09 00 f1 	subs	x10, x8, #2
10000a4f4: e2 33 00 54 	b.hs	0x10000ab70 <__ZN5gimli4read4unit15parse_attribute17h272502993371f398E+0x880>
10000a4f8: 08 00 80 52 	mov	w8, #0
10000a4fc: 6a 02 80 52 	mov	w10, #19
10000a500: 9f 01 00 14 	b	0x10000ab7c <__ZN5gimli4read4unit15parse_attribute17h272502993371f398E+0x88c>
10000a504: 48 1c 18 12 	and	w8, w2, #0xff00
10000a508: 1f 01 10 71 	cmp	w8, #1024
10000a50c: 21 2e 00 54 	b.ne	0x10000aad0 <__ZN5gimli4read4unit15parse_attribute17h272502993371f398E+0x7e0>
10000a510: 41 7c 10 53 	lsr	w1, w2, #16
10000a514: 80 12 40 79 	ldrh	w0, [x20, #8]
10000a518: ab 68 00 94 	bl	0x1000247c4 <__ZN5gimli4read4unit20allow_section_offset17hc580e9d12f49b586E>
10000a51c: a0 2d 00 36 	tbz	w0, #0, 0x10000aad0 <__ZN5gimli4read4unit15parse_attribute17h272502993371f398E+0x7e0>
10000a520: a8 26 40 a9 	ldp	x8, x9, [x21]
10000a524: 29 11 00 f1 	subs	x9, x9, #4
10000a528: 62 73 00 54 	b.hs	0x10000b394 <__ZN5gimli4read4unit15parse_attribute17h272502993371f398E+0x10a4>
10000a52c: 0c 00 80 d2 	mov	x12, #0
10000a530: 69 02 80 52 	mov	w9, #19
10000a534: 9b 03 00 14 	b	0x10000b3a0 <__ZN5gimli4read4unit15parse_attribute17h272502993371f398E+0x10b0>
10000a538: 48 1c 18 12 	and	w8, w2, #0xff00
10000a53c: 1f 01 20 71 	cmp	w8, #2048
10000a540: 41 2d 00 54 	b.ne	0x10000aae8 <__ZN5gimli4read4unit15parse_attribute17h272502993371f398E+0x7f8>
10000a544: 41 7c 10 53 	lsr	w1, w2, #16
10000a548: 80 12 40 79 	ldrh	w0, [x20, #8]
10000a54c: 9e 68 00 94 	bl	0x1000247c4 <__ZN5gimli4read4unit20allow_section_offset17hc580e9d12f49b586E>
10000a550: c0 2c 00 36 	tbz	w0, #0, 0x10000aae8 <__ZN5gimli4read4unit15parse_attribute17h272502993371f398E+0x7f8>
10000a554: aa 22 40 a9 	ldp	x10, x8, [x21]
10000a558: 09 21 00 f1 	subs	x9, x8, #8
10000a55c: 42 73 00 54 	b.hs	0x10000b3c4 <__ZN5gimli4read4unit15parse_attribute17h272502993371f398E+0x10d4>
10000a560: 08 00 80 d2 	mov	x8, #0
10000a564: 69 02 80 52 	mov	w9, #19
10000a568: 9a 03 00 14 	b	0x10000b3d0 <__ZN5gimli4read4unit15parse_attribute17h272502993371f398E+0x10e0>
10000a56c: a8 26 40 a9 	ldp	x8, x9, [x21]
10000a570: c9 61 00 b4 	cbz	x9, 0x10000b1a8 <__ZN5gimli4read4unit15parse_attribute17h272502993371f398E+0xeb8>
10000a574: 0c 00 80 d2 	mov	x12, #0
10000a578: 0a 69 6c 38 	ldrb	w10, [x8, x12]
10000a57c: ca 5e 00 34 	cbz	w10, 0x10000b154 <__ZN5gimli4read4unit15parse_attribute17h272502993371f398E+0xe64>
10000a580: 8c 05 00 91 	add	x12, x12, #1
10000a584: 3f 01 0c eb 	cmp	x9, x12
10000a588: 81 ff ff 54 	b.ne	0x10000a578 <__ZN5gimli4read4unit15parse_attribute17h272502993371f398E+0x288>
10000a58c: 07 03 00 14 	b	0x10000b1a8 <__ZN5gimli4read4unit15parse_attribute17h272502993371f398E+0xeb8>
10000a590: 0b 00 80 52 	mov	w11, #0
10000a594: 0c 00 80 d2 	mov	x12, #0
10000a598: a8 2a 40 a9 	ldp	x8, x10, [x21]
10000a59c: c9 00 80 52 	mov	w9, #6
10000a5a0: 06 00 00 14 	b	0x10000a5b8 <__ZN5gimli4read4unit15parse_attribute17h272502993371f398E+0x2c8>
10000a5a4: ae 19 40 92 	and	x14, x13, #0x7f
10000a5a8: ce 21 cb 9a 	lsl	x14, x14, x11
10000a5ac: cc 01 0c aa 	orr	x12, x14, x12
10000a5b0: 6b 1d 00 11 	add	w11, w11, #7
10000a5b4: 4d 5e 38 36 	tbz	w13, #7, 0x10000b17c <__ZN5gimli4read4unit15parse_attribute17h272502993371f398E+0xe8c>
10000a5b8: 8a 5f 00 b4 	cbz	x10, 0x10000b1a8 <__ZN5gimli4read4unit15parse_attribute17h272502993371f398E+0xeb8>
10000a5bc: 0d 15 40 38 	ldrb	w13, [x8], #1
10000a5c0: 4a 05 00 d1 	sub	x10, x10, #1
10000a5c4: a8 2a 00 a9 	stp	x8, x10, [x21]
10000a5c8: 7f fd 00 71 	cmp	w11, #63
10000a5cc: c1 fe ff 54 	b.ne	0x10000a5a4 <__ZN5gimli4read4unit15parse_attribute17h272502993371f398E+0x2b4>
10000a5d0: bf 09 00 71 	cmp	w13, #2
10000a5d4: 83 fe ff 54 	b.lo	0x10000a5a4 <__ZN5gimli4read4unit15parse_attribute17h272502993371f398E+0x2b4>
10000a5d8: 91 00 00 14 	b	0x10000a81c <__ZN5gimli4read4unit15parse_attribute17h272502993371f398E+0x52c>
10000a5dc: a8 26 40 a9 	ldp	x8, x9, [x21]
10000a5e0: 49 5e 00 b4 	cbz	x9, 0x10000b1a8 <__ZN5gimli4read4unit15parse_attribute17h272502993371f398E+0xeb8>
10000a5e4: 0c 15 40 38 	ldrb	w12, [x8], #1
10000a5e8: 29 05 00 d1 	sub	x9, x9, #1
10000a5ec: a8 26 00 a9 	stp	x8, x9, [x21]
10000a5f0: 2a 01 0c eb 	subs	x10, x9, x12
10000a5f4: a3 5d 00 54 	b.lo	0x10000b1a8 <__ZN5gimli4read4unit15parse_attribute17h272502993371f398E+0xeb8>
10000a5f8: 0b 01 0c 8b 	add	x11, x8, x12
10000a5fc: 09 3d 08 53 	ubfx	w9, w8, #8, #8
10000a600: 0d 7d 50 d3 	ubfx	x13, x8, #16, #16
10000a604: ab 2a 00 a9 	stp	x11, x10, [x21]
10000a608: 0a 7d 60 92 	and	x10, x8, #0xffffffff00000000
10000a60c: 2b 00 80 52 	mov	w11, #1
10000a610: 77 03 00 14 	b	0x10000b3ec <__ZN5gimli4read4unit15parse_attribute17h272502993371f398E+0x10fc>
10000a614: a9 2a 40 a9 	ldp	x9, x10, [x21]
10000a618: 0a 50 00 b4 	cbz	x10, 0x10000b018 <__ZN5gimli4read4unit15parse_attribute17h272502993371f398E+0xd28>
10000a61c: 28 15 40 38 	ldrb	w8, [x9], #1
10000a620: 4a 05 00 d1 	sub	x10, x10, #1
10000a624: a9 2a 00 a9 	stp	x9, x10, [x21]
10000a628: ea 08 80 52 	mov	w10, #71
10000a62c: 7d 02 00 14 	b	0x10000b020 <__ZN5gimli4read4unit15parse_attribute17h272502993371f398E+0xd30>
10000a630: a8 26 40 a9 	ldp	x8, x9, [x21]
10000a634: 69 50 00 b4 	cbz	x9, 0x10000b040 <__ZN5gimli4read4unit15parse_attribute17h272502993371f398E+0xd50>
10000a638: 0b 15 40 38 	ldrb	w11, [x8], #1
10000a63c: 29 05 00 d1 	sub	x9, x9, #1
10000a640: a8 26 00 a9 	stp	x8, x9, [x21]
10000a644: e9 08 80 52 	mov	w9, #71
10000a648: 80 02 00 14 	b	0x10000b048 <__ZN5gimli4read4unit15parse_attribute17h272502993371f398E+0xd58>
10000a64c: e0 23 00 91 	add	x0, sp, #8
10000a650: e1 03 15 aa 	mov	x1, x21
10000a654: 2c 06 00 94 	bl	0x10000bf04 <__ZN5gimli4read6reader6Reader12read_sleb12817hbafcecc37c33e649E>
10000a658: e8 23 40 39 	ldrb	w8, [sp, #8]
10000a65c: 1f 1d 01 71 	cmp	w8, #71
10000a660: 61 25 00 54 	b.ne	0x10000ab0c <__ZN5gimli4read4unit15parse_attribute17h272502993371f398E+0x81c>
10000a664: e8 0b 40 f9 	ldr	x8, [sp, #16]
10000a668: 97 00 00 14 	b	0x10000a8c4 <__ZN5gimli4read4unit15parse_attribute17h272502993371f398E+0x5d4>
10000a66c: 48 3c 08 53 	ubfx	w8, w2, #8, #8
10000a670: 1f 21 00 71 	cmp	w8, #8
10000a674: 41 29 00 54 	b.ne	0x10000ab9c <__ZN5gimli4read4unit15parse_attribute17h272502993371f398E+0x8ac>
10000a678: a9 22 40 a9 	ldp	x9, x8, [x21]
10000a67c: 0a 21 00 f1 	subs	x10, x8, #8
10000a680: 62 5b 00 54 	b.hs	0x10000b1ec <__ZN5gimli4read4unit15parse_attribute17h272502993371f398E+0xefc>
10000a684: 08 00 80 d2 	mov	x8, #0
10000a688: 6a 02 80 52 	mov	w10, #19
10000a68c: db 02 00 14 	b	0x10000b1f8 <__ZN5gimli4read4unit15parse_attribute17h272502993371f398E+0xf08>
10000a690: 09 00 80 52 	mov	w9, #0
10000a694: 0c 00 80 d2 	mov	x12, #0
10000a698: a8 2a 40 a9 	ldp	x8, x10, [x21]
10000a69c: 4a 05 00 d1 	sub	x10, x10, #1
10000a6a0: 07 00 00 14 	b	0x10000a6bc <__ZN5gimli4read4unit15parse_attribute17h272502993371f398E+0x3cc>
10000a6a4: 6d 19 40 92 	and	x13, x11, #0x7f
10000a6a8: ad 21 c9 9a 	lsl	x13, x13, x9
10000a6ac: ac 01 0c aa 	orr	x12, x13, x12
10000a6b0: 29 1d 00 11 	add	w9, w9, #7
10000a6b4: 4a 05 00 d1 	sub	x10, x10, #1
10000a6b8: 8b 56 38 36 	tbz	w11, #7, 0x10000b188 <__ZN5gimli4read4unit15parse_attribute17h272502993371f398E+0xe98>
10000a6bc: 5f 05 00 b1 	cmn	x10, #1
10000a6c0: e0 15 00 54 	b.eq	0x10000a97c <__ZN5gimli4read4unit15parse_attribute17h272502993371f398E+0x68c>
10000a6c4: 0b 15 40 38 	ldrb	w11, [x8], #1
10000a6c8: a8 2a 00 a9 	stp	x8, x10, [x21]
10000a6cc: 3f fd 00 71 	cmp	w9, #63
10000a6d0: a1 fe ff 54 	b.ne	0x10000a6a4 <__ZN5gimli4read4unit15parse_attribute17h272502993371f398E+0x3b4>
10000a6d4: 7f 09 00 71 	cmp	w11, #2
10000a6d8: 63 fe ff 54 	b.lo	0x10000a6a4 <__ZN5gimli4read4unit15parse_attribute17h272502993371f398E+0x3b4>
10000a6dc: a6 00 00 14 	b	0x10000a974 <__ZN5gimli4read4unit15parse_attribute17h272502993371f398E+0x684>
10000a6e0: 48 7c 10 53 	lsr	w8, w2, #16
10000a6e4: 1f 09 00 71 	cmp	w8, #2
10000a6e8: 61 26 00 54 	b.ne	0x10000abb4 <__ZN5gimli4read4unit15parse_attribute17h272502993371f398E+0x8c4>
10000a6ec: e0 23 00 91 	add	x0, sp, #8
10000a6f0: e1 03 15 aa 	mov	x1, x21
10000a6f4: 90 06 00 94 	bl	0x10000c134 <__ZN5gimli4read6reader6Reader17read_sized_offset17h9504d3c56b3ba4d4E>
10000a6f8: 33 01 00 14 	b	0x10000abc4 <__ZN5gimli4read4unit15parse_attribute17h272502993371f398E+0x8d4>
10000a6fc: a9 2a 40 a9 	ldp	x9, x10, [x21]
10000a700: ca 4b 00 b4 	cbz	x10, 0x10000b078 <__ZN5gimli4read4unit15parse_attribute17h272502993371f398E+0xd88>
10000a704: 28 15 40 38 	ldrb	w8, [x9], #1
10000a708: 4a 05 00 d1 	sub	x10, x10, #1
10000a70c: a9 2a 00 a9 	stp	x9, x10, [x21]
10000a710: ea 08 80 52 	mov	w10, #71
10000a714: 5b 02 00 14 	b	0x10000b080 <__ZN5gimli4read4unit15parse_attribute17h272502993371f398E+0xd90>
10000a718: a9 22 40 a9 	ldp	x9, x8, [x21]
10000a71c: 0a 09 00 f1 	subs	x10, x8, #2
10000a720: 42 26 00 54 	b.hs	0x10000abe8 <__ZN5gimli4read4unit15parse_attribute17h272502993371f398E+0x8f8>
10000a724: 08 00 80 52 	mov	w8, #0
10000a728: 6a 02 80 52 	mov	w10, #19
10000a72c: 32 01 00 14 	b	0x10000abf4 <__ZN5gimli4read4unit15parse_attribute17h272502993371f398E+0x904>
10000a730: a9 22 40 a9 	ldp	x9, x8, [x21]
10000a734: 0a 11 00 f1 	subs	x10, x8, #4
10000a738: e2 26 00 54 	b.hs	0x10000ac14 <__ZN5gimli4read4unit15parse_attribute17h272502993371f398E+0x924>
10000a73c: 08 00 80 52 	mov	w8, #0
10000a740: 6a 02 80 52 	mov	w10, #19
10000a744: 37 01 00 14 	b	0x10000ac20 <__ZN5gimli4read4unit15parse_attribute17h272502993371f398E+0x930>
10000a748: a9 22 40 a9 	ldp	x9, x8, [x21]
10000a74c: 08 21 00 f1 	subs	x8, x8, #8
10000a750: 82 27 00 54 	b.hs	0x10000ac40 <__ZN5gimli4read4unit15parse_attribute17h272502993371f398E+0x950>
10000a754: 0c 00 80 d2 	mov	x12, #0
10000a758: 68 02 80 52 	mov	w8, #19
10000a75c: 3c 01 00 14 	b	0x10000ac4c <__ZN5gimli4read4unit15parse_attribute17h272502993371f398E+0x95c>
10000a760: 09 00 80 52 	mov	w9, #0
10000a764: 0c 00 80 d2 	mov	x12, #0
10000a768: a8 2a 40 a9 	ldp	x8, x10, [x21]
10000a76c: 4a 05 00 d1 	sub	x10, x10, #1
10000a770: 07 00 00 14 	b	0x10000a78c <__ZN5gimli4read4unit15parse_attribute17h272502993371f398E+0x49c>
10000a774: 6d 19 40 92 	and	x13, x11, #0x7f
10000a778: ad 21 c9 9a 	lsl	x13, x13, x9
10000a77c: ac 01 0c aa 	orr	x12, x13, x12
10000a780: 29 1d 00 11 	add	w9, w9, #7
10000a784: 4a 05 00 d1 	sub	x10, x10, #1
10000a788: 8b 26 38 36 	tbz	w11, #7, 0x10000ac58 <__ZN5gimli4read4unit15parse_attribute17h272502993371f398E+0x968>
10000a78c: 5f 05 00 b1 	cmn	x10, #1
10000a790: 60 0f 00 54 	b.eq	0x10000a97c <__ZN5gimli4read4unit15parse_attribute17h272502993371f398E+0x68c>
10000a794: 0b 15 40 38 	ldrb	w11, [x8], #1
10000a798: a8 2a 00 a9 	stp	x8, x10, [x21]
10000a79c: 3f fd 00 71 	cmp	w9, #63
10000a7a0: a1 fe ff 54 	b.ne	0x10000a774 <__ZN5gimli4read4unit15parse_attribute17h272502993371f398E+0x484>
10000a7a4: 7f 09 00 71 	cmp	w11, #2
10000a7a8: 63 fe ff 54 	b.lo	0x10000a774 <__ZN5gimli4read4unit15parse_attribute17h272502993371f398E+0x484>
10000a7ac: 72 00 00 14 	b	0x10000a974 <__ZN5gimli4read4unit15parse_attribute17h272502993371f398E+0x684>
10000a7b0: 48 3c 08 53 	ubfx	w8, w2, #8, #8
10000a7b4: 1f 21 00 71 	cmp	w8, #8
10000a7b8: c1 25 00 54 	b.ne	0x10000ac70 <__ZN5gimli4read4unit15parse_attribute17h272502993371f398E+0x980>
10000a7bc: a9 22 40 a9 	ldp	x9, x8, [x21]
10000a7c0: 0a 21 00 f1 	subs	x10, x8, #8
10000a7c4: 22 52 00 54 	b.hs	0x10000b208 <__ZN5gimli4read4unit15parse_attribute17h272502993371f398E+0xf18>
10000a7c8: 08 00 80 d2 	mov	x8, #0
10000a7cc: 6a 02 80 52 	mov	w10, #19
10000a7d0: 91 02 00 14 	b	0x10000b214 <__ZN5gimli4read4unit15parse_attribute17h272502993371f398E+0xf24>
10000a7d4: 0b 00 80 52 	mov	w11, #0
10000a7d8: 0c 00 80 d2 	mov	x12, #0
10000a7dc: a8 2a 40 a9 	ldp	x8, x10, [x21]
10000a7e0: c9 00 80 52 	mov	w9, #6
10000a7e4: 06 00 00 14 	b	0x10000a7fc <__ZN5gimli4read4unit15parse_attribute17h272502993371f398E+0x50c>
10000a7e8: ae 19 40 92 	and	x14, x13, #0x7f
10000a7ec: ce 21 cb 9a 	lsl	x14, x14, x11
10000a7f0: cc 01 0c aa 	orr	x12, x14, x12
10000a7f4: 6b 1d 00 11 	add	w11, w11, #7
10000a7f8: 4d 4d 38 36 	tbz	w13, #7, 0x10000b1a0 <__ZN5gimli4read4unit15parse_attribute17h272502993371f398E+0xeb0>
10000a7fc: 6a 4d 00 b4 	cbz	x10, 0x10000b1a8 <__ZN5gimli4read4unit15parse_attribute17h272502993371f398E+0xeb8>
10000a800: 0d 15 40 38 	ldrb	w13, [x8], #1
10000a804: 4a 05 00 d1 	sub	x10, x10, #1
10000a808: a8 2a 00 a9 	stp	x8, x10, [x21]
10000a80c: 7f fd 00 71 	cmp	w11, #63
10000a810: c1 fe ff 54 	b.ne	0x10000a7e8 <__ZN5gimli4read4unit15parse_attribute17h272502993371f398E+0x4f8>
10000a814: bf 09 00 71 	cmp	w13, #2
10000a818: 83 fe ff 54 	b.lo	0x10000a7e8 <__ZN5gimli4read4unit15parse_attribute17h272502993371f398E+0x4f8>
10000a81c: 64 02 00 14 	b	0x10000b1ac <__ZN5gimli4read4unit15parse_attribute17h272502993371f398E+0xebc>
10000a820: 09 00 80 52 	mov	w9, #0
10000a824: 0d 00 80 52 	mov	w13, #0
10000a828: 0a 00 80 d2 	mov	x10, #0
10000a82c: 28 00 80 52 	mov	w8, #1
10000a830: 2b 01 80 52 	mov	w11, #9
10000a834: ee 02 00 14 	b	0x10000b3ec <__ZN5gimli4read4unit15parse_attribute17h272502993371f398E+0x10fc>
10000a838: a9 22 40 a9 	ldp	x9, x8, [x21]
10000a83c: 0a 11 00 f1 	subs	x10, x8, #4
10000a840: 42 22 00 54 	b.hs	0x10000ac88 <__ZN5gimli4read4unit15parse_attribute17h272502993371f398E+0x998>
10000a844: 08 00 80 52 	mov	w8, #0
10000a848: 6a 02 80 52 	mov	w10, #19
10000a84c: 12 01 00 14 	b	0x10000ac94 <__ZN5gimli4read4unit15parse_attribute17h272502993371f398E+0x9a4>
10000a850: a8 26 40 a9 	ldp	x8, x9, [x21]
10000a854: 2b 41 00 f1 	subs	x11, x9, #16
10000a858: 83 4a 00 54 	b.lo	0x10000b1a8 <__ZN5gimli4read4unit15parse_attribute17h272502993371f398E+0xeb8>
10000a85c: 0c 41 00 91 	add	x12, x8, #16
10000a860: 09 3d 08 53 	ubfx	w9, w8, #8, #8
10000a864: 0d 7d 50 d3 	ubfx	x13, x8, #16, #16
10000a868: 0a 7d 60 92 	and	x10, x8, #0xffffffff00000000
10000a86c: ac 2e 00 a9 	stp	x12, x11, [x21]
10000a870: 2b 00 80 52 	mov	w11, #1
10000a874: 0c 02 80 52 	mov	w12, #16
10000a878: dd 02 00 14 	b	0x10000b3ec <__ZN5gimli4read4unit15parse_attribute17h272502993371f398E+0x10fc>
10000a87c: 48 3c 08 53 	ubfx	w8, w2, #8, #8
10000a880: 1f 21 00 71 	cmp	w8, #8
10000a884: 81 21 00 54 	b.ne	0x10000acb4 <__ZN5gimli4read4unit15parse_attribute17h272502993371f398E+0x9c4>
10000a888: a9 22 40 a9 	ldp	x9, x8, [x21]
10000a88c: 0a 21 00 f1 	subs	x10, x8, #8
10000a890: a2 4c 00 54 	b.hs	0x10000b224 <__ZN5gimli4read4unit15parse_attribute17h272502993371f398E+0xf34>
10000a894: 08 00 80 d2 	mov	x8, #0
10000a898: 6a 02 80 52 	mov	w10, #19
10000a89c: 65 02 00 14 	b	0x10000b230 <__ZN5gimli4read4unit15parse_attribute17h272502993371f398E+0xf40>
10000a8a0: a9 22 40 a9 	ldp	x9, x8, [x21]
10000a8a4: 08 21 00 f1 	subs	x8, x8, #8
10000a8a8: 22 21 00 54 	b.hs	0x10000accc <__ZN5gimli4read4unit15parse_attribute17h272502993371f398E+0x9dc>
10000a8ac: 0c 00 80 d2 	mov	x12, #0
10000a8b0: 68 02 80 52 	mov	w8, #19
10000a8b4: 09 01 00 14 	b	0x10000acd8 <__ZN5gimli4read4unit15parse_attribute17h272502993371f398E+0x9e8>
10000a8b8: 3f 85 00 71 	cmp	w9, #33
10000a8bc: 01 22 00 54 	b.ne	0x10000acfc <__ZN5gimli4read4unit15parse_attribute17h272502993371f398E+0xa0c>
10000a8c0: 88 02 40 f9 	ldr	x8, [x20]
10000a8c4: 09 3d 08 53 	ubfx	w9, w8, #8, #8
10000a8c8: 0d 7d 50 d3 	ubfx	x13, x8, #16, #16
10000a8cc: 0a 7d 60 92 	and	x10, x8, #0xffffffff00000000
10000a8d0: cb 00 80 52 	mov	w11, #6
10000a8d4: c6 02 00 14 	b	0x10000b3ec <__ZN5gimli4read4unit15parse_attribute17h272502993371f398E+0x10fc>
10000a8d8: 09 00 80 52 	mov	w9, #0
10000a8dc: 0c 00 80 d2 	mov	x12, #0
10000a8e0: a8 2a 40 a9 	ldp	x8, x10, [x21]
10000a8e4: 4a 05 00 d1 	sub	x10, x10, #1
10000a8e8: 07 00 00 14 	b	0x10000a904 <__ZN5gimli4read4unit15parse_attribute17h272502993371f398E+0x614>
10000a8ec: 6d 19 40 92 	and	x13, x11, #0x7f
10000a8f0: ad 21 c9 9a 	lsl	x13, x13, x9
10000a8f4: ac 01 0c aa 	orr	x12, x13, x12
10000a8f8: 29 1d 00 11 	add	w9, w9, #7
10000a8fc: 4a 05 00 d1 	sub	x10, x10, #1
10000a900: eb 45 38 36 	tbz	w11, #7, 0x10000b1bc <__ZN5gimli4read4unit15parse_attribute17h272502993371f398E+0xecc>
10000a904: 5f 05 00 b1 	cmn	x10, #1
10000a908: a0 03 00 54 	b.eq	0x10000a97c <__ZN5gimli4read4unit15parse_attribute17h272502993371f398E+0x68c>
10000a90c: 0b 15 40 38 	ldrb	w11, [x8], #1
10000a910: a8 2a 00 a9 	stp	x8, x10, [x21]
10000a914: 3f fd 00 71 	cmp	w9, #63
10000a918: a1 fe ff 54 	b.ne	0x10000a8ec <__ZN5gimli4read4unit15parse_attribute17h272502993371f398E+0x5fc>
10000a91c: 7f 09 00 71 	cmp	w11, #2
10000a920: 63 fe ff 54 	b.lo	0x10000a8ec <__ZN5gimli4read4unit15parse_attribute17h272502993371f398E+0x5fc>
10000a924: 14 00 00 14 	b	0x10000a974 <__ZN5gimli4read4unit15parse_attribute17h272502993371f398E+0x684>
10000a928: 09 00 80 52 	mov	w9, #0
10000a92c: 0c 00 80 d2 	mov	x12, #0
10000a930: a8 2a 40 a9 	ldp	x8, x10, [x21]
10000a934: 4a 05 00 d1 	sub	x10, x10, #1
10000a938: 07 00 00 14 	b	0x10000a954 <__ZN5gimli4read4unit15parse_attribute17h272502993371f398E+0x664>
10000a93c: 6d 19 40 92 	and	x13, x11, #0x7f
10000a940: ad 21 c9 9a 	lsl	x13, x13, x9
10000a944: ac 01 0c aa 	orr	x12, x13, x12
10000a948: 29 1d 00 11 	add	w9, w9, #7
10000a94c: 4a 05 00 d1 	sub	x10, x10, #1
10000a950: 2b 44 38 36 	tbz	w11, #7, 0x10000b1d4 <__ZN5gimli4read4unit15parse_attribute17h272502993371f398E+0xee4>
10000a954: 5f 05 00 b1 	cmn	x10, #1
10000a958: 20 01 00 54 	b.eq	0x10000a97c <__ZN5gimli4read4unit15parse_attribute17h272502993371f398E+0x68c>
10000a95c: 0b 15 40 38 	ldrb	w11, [x8], #1
10000a960: a8 2a 00 a9 	stp	x8, x10, [x21]
10000a964: 3f fd 00 71 	cmp	w9, #63
10000a968: a1 fe ff 54 	b.ne	0x10000a93c <__ZN5gimli4read4unit15parse_attribute17h272502993371f398E+0x64c>
10000a96c: 7f 09 00 71 	cmp	w11, #2
10000a970: 63 fe ff 54 	b.lo	0x10000a93c <__ZN5gimli4read4unit15parse_attribute17h272502993371f398E+0x64c>
10000a974: c9 00 80 52 	mov	w9, #6
10000a978: 02 00 00 14 	b	0x10000a980 <__ZN5gimli4read4unit15parse_attribute17h272502993371f398E+0x690>
10000a97c: 69 02 80 52 	mov	w9, #19
10000a980: 69 22 00 39 	strb	w9, [x19, #8]
10000a984: 7f 26 00 39 	strb	wzr, [x19, #9]
10000a988: 7f 1e 00 79 	strh	wzr, [x19, #14]
10000a98c: 7f a2 00 b8 	stur	wzr, [x19, #10]
10000a990: 68 0a 00 f9 	str	x8, [x19, #16]
10000a994: c8 05 80 52 	mov	w8, #46
10000a998: 68 02 00 f9 	str	x8, [x19]
10000a99c: 9b 02 00 14 	b	0x10000b408 <__ZN5gimli4read4unit15parse_attribute17h272502993371f398E+0x1118>
10000a9a0: a9 22 40 a9 	ldp	x9, x8, [x21]
10000a9a4: 08 21 00 f1 	subs	x8, x8, #8
10000a9a8: 42 1b 00 54 	b.hs	0x10000ad10 <__ZN5gimli4read4unit15parse_attribute17h272502993371f398E+0xa20>
10000a9ac: 0c 00 80 d2 	mov	x12, #0
10000a9b0: 68 02 80 52 	mov	w8, #19
10000a9b4: da 00 00 14 	b	0x10000ad1c <__ZN5gimli4read4unit15parse_attribute17h272502993371f398E+0xa2c>
10000a9b8: a9 2a 40 a9 	ldp	x9, x10, [x21]
10000a9bc: 2a 37 00 b4 	cbz	x10, 0x10000b0a0 <__ZN5gimli4read4unit15parse_attribute17h272502993371f398E+0xdb0>
10000a9c0: 28 15 40 38 	ldrb	w8, [x9], #1
10000a9c4: 4a 05 00 d1 	sub	x10, x10, #1
10000a9c8: a9 2a 00 a9 	stp	x9, x10, [x21]
10000a9cc: ea 08 80 52 	mov	w10, #71
10000a9d0: b6 01 00 14 	b	0x10000b0a8 <__ZN5gimli4read4unit15parse_attribute17h272502993371f398E+0xdb8>
10000a9d4: a9 22 40 a9 	ldp	x9, x8, [x21]
10000a9d8: 0a 09 00 f1 	subs	x10, x8, #2
10000a9dc: a2 1d 00 54 	b.hs	0x10000ad90 <__ZN5gimli4read4unit15parse_attribute17h272502993371f398E+0xaa0>
10000a9e0: 08 00 80 52 	mov	w8, #0
10000a9e4: 6a 02 80 52 	mov	w10, #19
10000a9e8: ed 00 00 14 	b	0x10000ad9c <__ZN5gimli4read4unit15parse_attribute17h272502993371f398E+0xaac>
10000a9ec: a9 22 40 a9 	ldp	x9, x8, [x21]
10000a9f0: 08 0d 00 f1 	subs	x8, x8, #3
10000a9f4: 42 1e 00 54 	b.hs	0x10000adbc <__ZN5gimli4read4unit15parse_attribute17h272502993371f398E+0xacc>
10000a9f8: 08 00 80 d2 	mov	x8, #0
10000a9fc: 6a 02 80 52 	mov	w10, #19
10000aa00: f5 00 00 14 	b	0x10000add4 <__ZN5gimli4read4unit15parse_attribute17h272502993371f398E+0xae4>
10000aa04: a9 22 40 a9 	ldp	x9, x8, [x21]
10000aa08: 0a 11 00 f1 	subs	x10, x8, #4
10000aa0c: 42 1f 00 54 	b.hs	0x10000adf4 <__ZN5gimli4read4unit15parse_attribute17h272502993371f398E+0xb04>
10000aa10: 08 00 80 52 	mov	w8, #0
10000aa14: 6a 02 80 52 	mov	w10, #19
10000aa18: fa 00 00 14 	b	0x10000ae00 <__ZN5gimli4read4unit15parse_attribute17h272502993371f398E+0xb10>
10000aa1c: a9 2a 40 a9 	ldp	x9, x10, [x21]
10000aa20: 4a 35 00 b4 	cbz	x10, 0x10000b0c8 <__ZN5gimli4read4unit15parse_attribute17h272502993371f398E+0xdd8>
10000aa24: 28 15 40 38 	ldrb	w8, [x9], #1
10000aa28: 4a 05 00 d1 	sub	x10, x10, #1
10000aa2c: a9 2a 00 a9 	stp	x9, x10, [x21]
10000aa30: ea 08 80 52 	mov	w10, #71
10000aa34: a7 01 00 14 	b	0x10000b0d0 <__ZN5gimli4read4unit15parse_attribute17h272502993371f398E+0xde0>
10000aa38: a9 22 40 a9 	ldp	x9, x8, [x21]
10000aa3c: 0a 09 00 f1 	subs	x10, x8, #2
10000aa40: 02 1f 00 54 	b.hs	0x10000ae20 <__ZN5gimli4read4unit15parse_attribute17h272502993371f398E+0xb30>
10000aa44: 08 00 80 52 	mov	w8, #0
10000aa48: 6a 02 80 52 	mov	w10, #19
10000aa4c: f8 00 00 14 	b	0x10000ae2c <__ZN5gimli4read4unit15parse_attribute17h272502993371f398E+0xb3c>
10000aa50: a9 22 40 a9 	ldp	x9, x8, [x21]
10000aa54: 08 0d 00 f1 	subs	x8, x8, #3
10000aa58: 62 20 00 54 	b.hs	0x10000ae64 <__ZN5gimli4read4unit15parse_attribute17h272502993371f398E+0xb74>
10000aa5c: 08 00 80 d2 	mov	x8, #0
10000aa60: 6a 02 80 52 	mov	w10, #19
10000aa64: 06 01 00 14 	b	0x10000ae7c <__ZN5gimli4read4unit15parse_attribute17h272502993371f398E+0xb8c>
10000aa68: a9 22 40 a9 	ldp	x9, x8, [x21]
10000aa6c: 0a 11 00 f1 	subs	x10, x8, #4
10000aa70: 02 22 00 54 	b.hs	0x10000aeb0 <__ZN5gimli4read4unit15parse_attribute17h272502993371f398E+0xbc0>
10000aa74: 08 00 80 52 	mov	w8, #0
10000aa78: 6a 02 80 52 	mov	w10, #19
10000aa7c: 10 01 00 14 	b	0x10000aebc <__ZN5gimli4read4unit15parse_attribute17h272502993371f398E+0xbcc>
10000aa80: 48 3c 08 53 	ubfx	w8, w2, #8, #8
10000aa84: 1f 21 00 71 	cmp	w8, #8
10000aa88: 21 24 00 54 	b.ne	0x10000af0c <__ZN5gimli4read4unit15parse_attribute17h272502993371f398E+0xc1c>
10000aa8c: a9 22 40 a9 	ldp	x9, x8, [x21]
10000aa90: 0a 21 00 f1 	subs	x10, x8, #8
10000aa94: 62 3d 00 54 	b.hs	0x10000b240 <__ZN5gimli4read4unit15parse_attribute17h272502993371f398E+0xf50>
10000aa98: 08 00 80 d2 	mov	x8, #0
10000aa9c: 6a 02 80 52 	mov	w10, #19
10000aaa0: eb 01 00 14 	b	0x10000b24c <__ZN5gimli4read4unit15parse_attribute17h272502993371f398E+0xf5c>
10000aaa4: a9 22 40 a9 	ldp	x9, x8, [x21]
10000aaa8: 0a 11 00 f1 	subs	x10, x8, #4
10000aaac: c2 23 00 54 	b.hs	0x10000af24 <__ZN5gimli4read4unit15parse_attribute17h272502993371f398E+0xc34>
10000aab0: 08 00 80 d2 	mov	x8, #0
10000aab4: 6a 02 80 52 	mov	w10, #19
10000aab8: 1e 01 00 14 	b	0x10000af30 <__ZN5gimli4read4unit15parse_attribute17h272502993371f398E+0xc40>
10000aabc: 08 00 80 52 	mov	w8, #0
10000aac0: 69 02 80 52 	mov	w9, #19
10000aac4: 4d 01 00 14 	b	0x10000aff8 <__ZN5gimli4read4unit15parse_attribute17h272502993371f398E+0xd08>
10000aac8: 88 01 80 52 	mov	w8, #12
10000aacc: 8d 00 00 14 	b	0x10000ad00 <__ZN5gimli4read4unit15parse_attribute17h272502993371f398E+0xa10>
10000aad0: a8 26 40 a9 	ldp	x8, x9, [x21]
10000aad4: 29 11 00 f1 	subs	x9, x9, #4
10000aad8: 62 31 00 54 	b.hs	0x10000b104 <__ZN5gimli4read4unit15parse_attribute17h272502993371f398E+0xe14>
10000aadc: 0c 00 80 52 	mov	w12, #0
10000aae0: 69 02 80 52 	mov	w9, #19
10000aae4: 8b 01 00 14 	b	0x10000b110 <__ZN5gimli4read4unit15parse_attribute17h272502993371f398E+0xe20>
10000aae8: e0 23 00 91 	add	x0, sp, #8
10000aaec: e1 03 15 aa 	mov	x1, x21
10000aaf0: 05 06 00 94 	bl	0x10000c304 <__ZN5gimli4read6reader6Reader8read_u6417h32ac97e72f0a6fa6E>
10000aaf4: e8 23 40 39 	ldrb	w8, [sp, #8]
10000aaf8: 1f 1d 01 71 	cmp	w8, #71
10000aafc: 81 00 00 54 	b.ne	0x10000ab0c <__ZN5gimli4read4unit15parse_attribute17h272502993371f398E+0x81c>
10000ab00: e8 0b 40 f9 	ldr	x8, [sp, #16]
10000ab04: ab 00 80 52 	mov	w11, #5
10000ab08: 36 02 00 14 	b	0x10000b3e0 <__ZN5gimli4read4unit15parse_attribute17h272502993371f398E+0x10f0>
10000ab0c: e9 0b 40 f9 	ldr	x9, [sp, #16]
10000ab10: ea 93 40 b8 	ldur	w10, [sp, #9]
10000ab14: ea 23 00 b9 	str	w10, [sp, #32]
10000ab18: ea 0f 40 b9 	ldr	w10, [sp, #12]
10000ab1c: ea 33 02 b8 	stur	w10, [sp, #35]
10000ab20: 19 01 00 14 	b	0x10000af84 <__ZN5gimli4read4unit15parse_attribute17h272502993371f398E+0xc94>
10000ab24: 89 3d 08 53 	ubfx	w9, w12, #8, #8
10000ab28: 8d 7d 50 d3 	ubfx	x13, x12, #16, #16
10000ab2c: 8a 7d 60 92 	and	x10, x12, #0xffffffff00000000
10000ab30: 8b 01 80 52 	mov	w11, #12
10000ab34: e8 03 0c aa 	mov	x8, x12
10000ab38: 2d 02 00 14 	b	0x10000b3ec <__ZN5gimli4read4unit15parse_attribute17h272502993371f398E+0x10fc>
10000ab3c: 89 3d 08 53 	ubfx	w9, w12, #8, #8
10000ab40: 8d 7d 50 d3 	ubfx	x13, x12, #16, #16
10000ab44: 8a 7d 60 92 	and	x10, x12, #0xffffffff00000000
10000ab48: ab 03 80 52 	mov	w11, #29
10000ab4c: e8 03 0c aa 	mov	x8, x12
10000ab50: 27 02 00 14 	b	0x10000b3ec <__ZN5gimli4read4unit15parse_attribute17h272502993371f398E+0x10fc>
10000ab54: 28 85 40 f8 	ldr	x8, [x9], #8
10000ab58: a9 2a 00 a9 	stp	x9, x10, [x21]
10000ab5c: ea 08 80 52 	mov	w10, #71
10000ab60: 4a 1d 00 12 	and	w10, w10, #0xff
10000ab64: 5f 1d 01 71 	cmp	w10, #71
10000ab68: a0 1e 00 54 	b.eq	0x10000af3c <__ZN5gimli4read4unit15parse_attribute17h272502993371f398E+0xc4c>
10000ab6c: bb 01 00 14 	b	0x10000b258 <__ZN5gimli4read4unit15parse_attribute17h272502993371f398E+0xf68>
10000ab70: 28 25 40 78 	ldrh	w8, [x9], #2
10000ab74: a9 2a 00 a9 	stp	x9, x10, [x21]
10000ab78: ea 08 80 52 	mov	w10, #71
10000ab7c: 4b 1d 00 12 	and	w11, w10, #0xff
10000ab80: 7f 1d 01 71 	cmp	w11, #71
10000ab84: 61 1e 00 54 	b.ne	0x10000af50 <__ZN5gimli4read4unit15parse_attribute17h272502993371f398E+0xc60>
10000ab88: 0d 00 80 52 	mov	w13, #0
10000ab8c: 0a 00 80 d2 	mov	x10, #0
10000ab90: 09 7d 08 53 	lsr	w9, w8, #8
10000ab94: 6b 00 80 52 	mov	w11, #3
10000ab98: 15 02 00 14 	b	0x10000b3ec <__ZN5gimli4read4unit15parse_attribute17h272502993371f398E+0x10fc>
10000ab9c: a9 22 40 a9 	ldp	x9, x8, [x21]
10000aba0: 0a 11 00 f1 	subs	x10, x8, #4
10000aba4: 22 37 00 54 	b.hs	0x10000b288 <__ZN5gimli4read4unit15parse_attribute17h272502993371f398E+0xf98>
10000aba8: 08 00 80 d2 	mov	x8, #0
10000abac: 6a 02 80 52 	mov	w10, #19
10000abb0: b9 01 00 14 	b	0x10000b294 <__ZN5gimli4read4unit15parse_attribute17h272502993371f398E+0xfa4>
10000abb4: 42 7c 08 53 	lsr	w2, w2, #8
10000abb8: e0 23 00 91 	add	x0, sp, #8
10000abbc: e1 03 15 aa 	mov	x1, x21
10000abc0: 21 04 00 94 	bl	0x10000bc44 <__ZN5gimli4read6reader6Reader11read_offset17h4e36c6f1cd7b4ccbE>
10000abc4: e8 23 40 39 	ldrb	w8, [sp, #8]
10000abc8: 1f 1d 01 71 	cmp	w8, #71
10000abcc: 21 1d 00 54 	b.ne	0x10000af70 <__ZN5gimli4read4unit15parse_attribute17h272502993371f398E+0xc80>
10000abd0: e8 0b 40 f9 	ldr	x8, [sp, #16]
10000abd4: 09 3d 08 53 	ubfx	w9, w8, #8, #8
10000abd8: 0d 7d 50 d3 	ubfx	x13, x8, #16, #16
10000abdc: 0a 7d 60 92 	and	x10, x8, #0xffffffff00000000
10000abe0: cb 01 80 52 	mov	w11, #14
10000abe4: 02 02 00 14 	b	0x10000b3ec <__ZN5gimli4read4unit15parse_attribute17h272502993371f398E+0x10fc>
10000abe8: 28 25 40 78 	ldrh	w8, [x9], #2
10000abec: a9 2a 00 a9 	stp	x9, x10, [x21]
10000abf0: ea 08 80 52 	mov	w10, #71
10000abf4: 4b 1d 00 12 	and	w11, w10, #0xff
10000abf8: 7f 1d 01 71 	cmp	w11, #71
10000abfc: 81 12 00 54 	b.ne	0x10000ae4c <__ZN5gimli4read4unit15parse_attribute17h272502993371f398E+0xb5c>
10000ac00: 0d 00 80 52 	mov	w13, #0
10000ac04: 0a 00 80 d2 	mov	x10, #0
10000ac08: 09 7d 08 53 	lsr	w9, w8, #8
10000ac0c: ab 01 80 52 	mov	w11, #13
10000ac10: f7 01 00 14 	b	0x10000b3ec <__ZN5gimli4read4unit15parse_attribute17h272502993371f398E+0x10fc>
10000ac14: 28 45 40 b8 	ldr	w8, [x9], #4
10000ac18: a9 2a 00 a9 	stp	x9, x10, [x21]
10000ac1c: ea 08 80 52 	mov	w10, #71
10000ac20: 4b 1d 00 12 	and	w11, w10, #0xff
10000ac24: 7f 1d 01 71 	cmp	w11, #71
10000ac28: a1 15 00 54 	b.ne	0x10000aedc <__ZN5gimli4read4unit15parse_attribute17h272502993371f398E+0xbec>
10000ac2c: 0a 00 80 d2 	mov	x10, #0
10000ac30: 09 3d 08 53 	ubfx	w9, w8, #8, #8
10000ac34: 0d 7d 10 53 	lsr	w13, w8, #16
10000ac38: ab 01 80 52 	mov	w11, #13
10000ac3c: ec 01 00 14 	b	0x10000b3ec <__ZN5gimli4read4unit15parse_attribute17h272502993371f398E+0x10fc>
10000ac40: 2c 85 40 f8 	ldr	x12, [x9], #8
10000ac44: a9 22 00 a9 	stp	x9, x8, [x21]
10000ac48: e8 08 80 52 	mov	w8, #71
10000ac4c: 0a 1d 00 12 	and	w10, w8, #0xff
10000ac50: 5f 1d 01 71 	cmp	w10, #71
10000ac54: 61 07 00 54 	b.ne	0x10000ad40 <__ZN5gimli4read4unit15parse_attribute17h272502993371f398E+0xa50>
10000ac58: 89 3d 08 53 	ubfx	w9, w12, #8, #8
10000ac5c: 8d 7d 50 d3 	ubfx	x13, x12, #16, #16
10000ac60: 8a 7d 60 92 	and	x10, x12, #0xffffffff00000000
10000ac64: ab 01 80 52 	mov	w11, #13
10000ac68: e8 03 0c aa 	mov	x8, x12
10000ac6c: e0 01 00 14 	b	0x10000b3ec <__ZN5gimli4read4unit15parse_attribute17h272502993371f398E+0x10fc>
10000ac70: a9 22 40 a9 	ldp	x9, x8, [x21]
10000ac74: 0a 11 00 f1 	subs	x10, x8, #4
10000ac78: e2 31 00 54 	b.hs	0x10000b2b4 <__ZN5gimli4read4unit15parse_attribute17h272502993371f398E+0xfc4>
10000ac7c: 08 00 80 d2 	mov	x8, #0
10000ac80: 6a 02 80 52 	mov	w10, #19
10000ac84: 8f 01 00 14 	b	0x10000b2c0 <__ZN5gimli4read4unit15parse_attribute17h272502993371f398E+0xfd0>
10000ac88: 28 45 40 b8 	ldr	w8, [x9], #4
10000ac8c: a9 2a 00 a9 	stp	x9, x10, [x21]
10000ac90: ea 08 80 52 	mov	w10, #71
10000ac94: 4b 1d 00 12 	and	w11, w10, #0xff
10000ac98: 7f 1d 01 71 	cmp	w11, #71
10000ac9c: 01 12 00 54 	b.ne	0x10000aedc <__ZN5gimli4read4unit15parse_attribute17h272502993371f398E+0xbec>
10000aca0: 0a 00 80 d2 	mov	x10, #0
10000aca4: 09 3d 08 53 	ubfx	w9, w8, #8, #8
10000aca8: 0d 7d 10 53 	lsr	w13, w8, #16
10000acac: eb 01 80 52 	mov	w11, #15
10000acb0: cf 01 00 14 	b	0x10000b3ec <__ZN5gimli4read4unit15parse_attribute17h272502993371f398E+0x10fc>
10000acb4: a9 22 40 a9 	ldp	x9, x8, [x21]
10000acb8: 0a 11 00 f1 	subs	x10, x8, #4
10000acbc: 22 31 00 54 	b.hs	0x10000b2e0 <__ZN5gimli4read4unit15parse_attribute17h272502993371f398E+0xff0>
10000acc0: 08 00 80 d2 	mov	x8, #0
10000acc4: 6a 02 80 52 	mov	w10, #19
10000acc8: 89 01 00 14 	b	0x10000b2ec <__ZN5gimli4read4unit15parse_attribute17h272502993371f398E+0xffc>
10000accc: 2c 85 40 f8 	ldr	x12, [x9], #8
10000acd0: a9 22 00 a9 	stp	x9, x8, [x21]
10000acd4: e8 08 80 52 	mov	w8, #71
10000acd8: 0a 1d 00 12 	and	w10, w8, #0xff
10000acdc: 5f 1d 01 71 	cmp	w10, #71
10000ace0: e1 15 00 54 	b.ne	0x10000af9c <__ZN5gimli4read4unit15parse_attribute17h272502993371f398E+0xcac>
10000ace4: 89 3d 08 53 	ubfx	w9, w12, #8, #8
10000ace8: 8d 7d 50 d3 	ubfx	x13, x12, #16, #16
10000acec: 8a 7d 60 92 	and	x10, x12, #0xffffffff00000000
10000acf0: 2b 03 80 52 	mov	w11, #25
10000acf4: e8 03 0c aa 	mov	x8, x12
10000acf8: bd 01 00 14 	b	0x10000b3ec <__ZN5gimli4read4unit15parse_attribute17h272502993371f398E+0x10fc>
10000acfc: c8 08 80 52 	mov	w8, #70
10000ad00: 68 22 00 39 	strb	w8, [x19, #8]
10000ad04: c8 05 80 52 	mov	w8, #46
10000ad08: 68 02 00 f9 	str	x8, [x19]
10000ad0c: bf 01 00 14 	b	0x10000b408 <__ZN5gimli4read4unit15parse_attribute17h272502993371f398E+0x1118>
10000ad10: 2c 85 40 f8 	ldr	x12, [x9], #8
10000ad14: a9 22 00 a9 	stp	x9, x8, [x21]
10000ad18: e8 08 80 52 	mov	w8, #71
10000ad1c: 0a 1d 00 12 	and	w10, w8, #0xff
10000ad20: 5f 1d 01 71 	cmp	w10, #71
10000ad24: e1 00 00 54 	b.ne	0x10000ad40 <__ZN5gimli4read4unit15parse_attribute17h272502993371f398E+0xa50>
10000ad28: 89 3d 08 53 	ubfx	w9, w12, #8, #8
10000ad2c: 8d 7d 50 d3 	ubfx	x13, x12, #16, #16
10000ad30: 8a 7d 60 92 	and	x10, x12, #0xffffffff00000000
10000ad34: eb 01 80 52 	mov	w11, #15
10000ad38: e8 03 0c aa 	mov	x8, x12
10000ad3c: ac 01 00 14 	b	0x10000b3ec <__ZN5gimli4read4unit15parse_attribute17h272502993371f398E+0x10fc>
10000ad40: ff 3b 00 39 	strb	wzr, [sp, #14]
10000ad44: ff 1b 00 79 	strh	wzr, [sp, #12]
10000ad48: ff 0b 00 b9 	str	wzr, [sp, #8]
10000ad4c: e9 f3 00 f8 	stur	x9, [sp, #15]
10000ad50: e9 07 40 f9 	ldr	x9, [sp, #8]
10000ad54: ea 13 40 b9 	ldr	w10, [sp, #16]
10000ad58: ea 2b 00 b9 	str	w10, [sp, #40]
10000ad5c: ea 33 41 b8 	ldur	w10, [sp, #19]
10000ad60: ea b3 02 b8 	stur	w10, [sp, #43]
10000ad64: e9 13 00 f9 	str	x9, [sp, #32]
10000ad68: e9 1b 00 b9 	str	w9, [sp, #24]
10000ad6c: e9 33 42 b8 	ldur	w9, [sp, #35]
10000ad70: e9 b3 01 b8 	stur	w9, [sp, #27]
10000ad74: e9 73 42 f8 	ldur	x9, [sp, #39]
10000ad78: ea 1b 40 b9 	ldr	w10, [sp, #24]
10000ad7c: 6a 92 00 b8 	stur	w10, [x19, #9]
10000ad80: ea b3 41 b8 	ldur	w10, [sp, #27]
10000ad84: 6a 0e 00 b9 	str	w10, [x19, #12]
10000ad88: 68 22 00 39 	strb	w8, [x19, #8]
10000ad8c: 77 01 00 14 	b	0x10000b368 <__ZN5gimli4read4unit15parse_attribute17h272502993371f398E+0x1078>
10000ad90: 28 25 40 78 	ldrh	w8, [x9], #2
10000ad94: a9 2a 00 a9 	stp	x9, x10, [x21]
10000ad98: ea 08 80 52 	mov	w10, #71
10000ad9c: 4b 1d 00 12 	and	w11, w10, #0xff
10000ada0: 7f 1d 01 71 	cmp	w11, #71
10000ada4: 41 05 00 54 	b.ne	0x10000ae4c <__ZN5gimli4read4unit15parse_attribute17h272502993371f398E+0xb5c>
10000ada8: 0d 00 80 52 	mov	w13, #0
10000adac: 0a 00 80 d2 	mov	x10, #0
10000adb0: 09 7d 08 53 	lsr	w9, w8, #8
10000adb4: ab 03 80 52 	mov	w11, #29
10000adb8: 8d 01 00 14 	b	0x10000b3ec <__ZN5gimli4read4unit15parse_attribute17h272502993371f398E+0x10fc>
10000adbc: 2a 0d 00 91 	add	x10, x9, #3
10000adc0: aa 22 00 a9 	stp	x10, x8, [x21]
10000adc4: 2a 09 40 39 	ldrb	w10, [x9, #2]
10000adc8: 28 01 40 79 	ldrh	w8, [x9]
10000adcc: 48 1d 70 b3 	bfi	x8, x10, #16, #8
10000add0: ea 08 80 52 	mov	w10, #71
10000add4: 4b 1d 00 12 	and	w11, w10, #0xff
10000add8: 7f 1d 01 71 	cmp	w11, #71
10000addc: 01 06 00 54 	b.ne	0x10000ae9c <__ZN5gimli4read4unit15parse_attribute17h272502993371f398E+0xbac>
10000ade0: 0a 00 80 d2 	mov	x10, #0
10000ade4: 09 3d 08 53 	ubfx	w9, w8, #8, #8
10000ade8: 0d 7d 50 d3 	ubfx	x13, x8, #16, #16
10000adec: ab 03 80 52 	mov	w11, #29
10000adf0: 7f 01 00 14 	b	0x10000b3ec <__ZN5gimli4read4unit15parse_attribute17h272502993371f398E+0x10fc>
10000adf4: 28 45 40 b8 	ldr	w8, [x9], #4
10000adf8: a9 2a 00 a9 	stp	x9, x10, [x21]
10000adfc: ea 08 80 52 	mov	w10, #71
10000ae00: 4b 1d 00 12 	and	w11, w10, #0xff
10000ae04: 7f 1d 01 71 	cmp	w11, #71
10000ae08: a1 06 00 54 	b.ne	0x10000aedc <__ZN5gimli4read4unit15parse_attribute17h272502993371f398E+0xbec>
10000ae0c: 0a 00 80 d2 	mov	x10, #0
10000ae10: 09 3d 08 53 	ubfx	w9, w8, #8, #8
10000ae14: 0d 7d 10 53 	lsr	w13, w8, #16
10000ae18: ab 03 80 52 	mov	w11, #29
10000ae1c: 74 01 00 14 	b	0x10000b3ec <__ZN5gimli4read4unit15parse_attribute17h272502993371f398E+0x10fc>
10000ae20: 28 25 40 78 	ldrh	w8, [x9], #2
10000ae24: a9 2a 00 a9 	stp	x9, x10, [x21]
10000ae28: ea 08 80 52 	mov	w10, #71
10000ae2c: 4b 1d 00 12 	and	w11, w10, #0xff
10000ae30: 7f 1d 01 71 	cmp	w11, #71
10000ae34: c1 00 00 54 	b.ne	0x10000ae4c <__ZN5gimli4read4unit15parse_attribute17h272502993371f398E+0xb5c>
10000ae38: 0d 00 80 52 	mov	w13, #0
10000ae3c: 0a 00 80 d2 	mov	x10, #0
10000ae40: 09 7d 08 53 	lsr	w9, w8, #8
10000ae44: 8b 01 80 52 	mov	w11, #12
10000ae48: 69 01 00 14 	b	0x10000b3ec <__ZN5gimli4read4unit15parse_attribute17h272502993371f398E+0x10fc>
10000ae4c: ff 13 00 79 	strh	wzr, [sp, #8]
10000ae50: ff a3 00 b8 	stur	wzr, [sp, #10]
10000ae54: ff 3b 00 39 	strb	wzr, [sp, #14]
10000ae58: e8 0b 40 b9 	ldr	w8, [sp, #8]
10000ae5c: e8 23 00 b9 	str	w8, [sp, #32]
10000ae60: 23 00 00 14 	b	0x10000aeec <__ZN5gimli4read4unit15parse_attribute17h272502993371f398E+0xbfc>
10000ae64: 2a 0d 00 91 	add	x10, x9, #3
10000ae68: aa 22 00 a9 	stp	x10, x8, [x21]
10000ae6c: 2a 09 40 39 	ldrb	w10, [x9, #2]
10000ae70: 28 01 40 79 	ldrh	w8, [x9]
10000ae74: 48 1d 70 b3 	bfi	x8, x10, #16, #8
10000ae78: ea 08 80 52 	mov	w10, #71
10000ae7c: 4b 1d 00 12 	and	w11, w10, #0xff
10000ae80: 7f 1d 01 71 	cmp	w11, #71
10000ae84: c1 00 00 54 	b.ne	0x10000ae9c <__ZN5gimli4read4unit15parse_attribute17h272502993371f398E+0xbac>
10000ae88: 0a 00 80 d2 	mov	x10, #0
10000ae8c: 09 3d 08 53 	ubfx	w9, w8, #8, #8
10000ae90: 0d 7d 50 d3 	ubfx	x13, x8, #16, #16
10000ae94: 8b 01 80 52 	mov	w11, #12
10000ae98: 55 01 00 14 	b	0x10000b3ec <__ZN5gimli4read4unit15parse_attribute17h272502993371f398E+0x10fc>
10000ae9c: 6a 22 00 39 	strb	w10, [x19, #8]
10000aea0: 7f 3e 00 39 	strb	wzr, [x19, #15]
10000aea4: 7f d2 00 78 	sturh	wzr, [x19, #13]
10000aea8: 7f 92 00 b8 	stur	wzr, [x19, #9]
10000aeac: 2f 01 00 14 	b	0x10000b368 <__ZN5gimli4read4unit15parse_attribute17h272502993371f398E+0x1078>
10000aeb0: 28 45 40 b8 	ldr	w8, [x9], #4
10000aeb4: a9 2a 00 a9 	stp	x9, x10, [x21]
10000aeb8: ea 08 80 52 	mov	w10, #71
10000aebc: 4b 1d 00 12 	and	w11, w10, #0xff
10000aec0: 7f 1d 01 71 	cmp	w11, #71
10000aec4: c1 00 00 54 	b.ne	0x10000aedc <__ZN5gimli4read4unit15parse_attribute17h272502993371f398E+0xbec>
10000aec8: 0a 00 80 d2 	mov	x10, #0
10000aecc: 09 3d 08 53 	ubfx	w9, w8, #8, #8
10000aed0: 0d 7d 10 53 	lsr	w13, w8, #16
10000aed4: 8b 01 80 52 	mov	w11, #12
10000aed8: 45 01 00 14 	b	0x10000b3ec <__ZN5gimli4read4unit15parse_attribute17h272502993371f398E+0x10fc>
10000aedc: ff 0b 00 b9 	str	wzr, [sp, #8]
10000aee0: ff 3b 00 39 	strb	wzr, [sp, #14]
10000aee4: ff 1b 00 79 	strh	wzr, [sp, #12]
10000aee8: ff 23 00 b9 	str	wzr, [sp, #32]
10000aeec: e8 b3 40 b8 	ldur	w8, [sp, #11]
10000aef0: e8 33 02 b8 	stur	w8, [sp, #35]
10000aef4: e8 23 40 b9 	ldr	w8, [sp, #32]
10000aef8: 68 92 00 b8 	stur	w8, [x19, #9]
10000aefc: e8 33 42 b8 	ldur	w8, [sp, #35]
10000af00: 68 0e 00 b9 	str	w8, [x19, #12]
10000af04: 6a 22 00 39 	strb	w10, [x19, #8]
10000af08: 18 01 00 14 	b	0x10000b368 <__ZN5gimli4read4unit15parse_attribute17h272502993371f398E+0x1078>
10000af0c: a9 22 40 a9 	ldp	x9, x8, [x21]
10000af10: 0a 11 00 f1 	subs	x10, x8, #4
10000af14: c2 1f 00 54 	b.hs	0x10000b30c <__ZN5gimli4read4unit15parse_attribute17h272502993371f398E+0x101c>
10000af18: 08 00 80 d2 	mov	x8, #0
10000af1c: 6a 02 80 52 	mov	w10, #19
10000af20: fe 00 00 14 	b	0x10000b318 <__ZN5gimli4read4unit15parse_attribute17h272502993371f398E+0x1028>
10000af24: 28 45 40 b8 	ldr	w8, [x9], #4
10000af28: a9 2a 00 a9 	stp	x9, x10, [x21]
10000af2c: ea 08 80 52 	mov	w10, #71
10000af30: 4a 1d 00 12 	and	w10, w10, #0xff
10000af34: 5f 1d 01 71 	cmp	w10, #71
10000af38: 01 20 00 54 	b.ne	0x10000b338 <__ZN5gimli4read4unit15parse_attribute17h272502993371f398E+0x1048>
10000af3c: 09 3d 08 53 	ubfx	w9, w8, #8, #8
10000af40: 0d 7d 50 d3 	ubfx	x13, x8, #16, #16
10000af44: 0a 7d 60 92 	and	x10, x8, #0xffffffff00000000
10000af48: 6b 03 80 52 	mov	w11, #27
10000af4c: 28 01 00 14 	b	0x10000b3ec <__ZN5gimli4read4unit15parse_attribute17h272502993371f398E+0x10fc>
10000af50: ff 13 00 79 	strh	wzr, [sp, #8]
10000af54: ff a3 00 b8 	stur	wzr, [sp, #10]
10000af58: e8 93 40 78 	ldurh	w8, [sp, #9]
10000af5c: 6a 22 00 39 	strb	w10, [x19, #8]
10000af60: 7f 26 00 39 	strb	wzr, [x19, #9]
10000af64: 68 16 00 79 	strh	w8, [x19, #10]
10000af68: 7f 0e 00 b9 	str	wzr, [x19, #12]
10000af6c: ff 00 00 14 	b	0x10000b368 <__ZN5gimli4read4unit15parse_attribute17h272502993371f398E+0x1078>
10000af70: e9 0f 40 b9 	ldr	w9, [sp, #12]
10000af74: e9 33 02 b8 	stur	w9, [sp, #35]
10000af78: e9 93 40 b8 	ldur	w9, [sp, #9]
10000af7c: e9 23 00 b9 	str	w9, [sp, #32]
10000af80: e9 0b 40 f9 	ldr	x9, [sp, #16]
10000af84: ea 23 40 b9 	ldr	w10, [sp, #32]
10000af88: 6a 92 00 b8 	stur	w10, [x19, #9]
10000af8c: ea 33 42 b8 	ldur	w10, [sp, #35]
10000af90: 6a 0e 00 b9 	str	w10, [x19, #12]
10000af94: 68 22 00 39 	strb	w8, [x19, #8]
10000af98: f4 00 00 14 	b	0x10000b368 <__ZN5gimli4read4unit15parse_attribute17h272502993371f398E+0x1078>
10000af9c: ff 3b 00 39 	strb	wzr, [sp, #14]
10000afa0: ff 1b 00 79 	strh	wzr, [sp, #12]
10000afa4: ff 0b 00 b9 	str	wzr, [sp, #8]
10000afa8: e9 f3 00 f8 	stur	x9, [sp, #15]
10000afac: e9 07 40 f9 	ldr	x9, [sp, #8]
10000afb0: ea 13 40 b9 	ldr	w10, [sp, #16]
10000afb4: ea 2b 00 b9 	str	w10, [sp, #40]
10000afb8: ea 33 41 b8 	ldur	w10, [sp, #19]
10000afbc: ea b3 02 b8 	stur	w10, [sp, #43]
10000afc0: e9 13 00 f9 	str	x9, [sp, #32]
10000afc4: ea 73 42 f8 	ldur	x10, [sp, #39]
10000afc8: e9 1b 00 b9 	str	w9, [sp, #24]
10000afcc: e9 33 42 b8 	ldur	w9, [sp, #35]
10000afd0: e9 b3 01 b8 	stur	w9, [sp, #27]
10000afd4: e9 1b 40 b9 	ldr	w9, [sp, #24]
10000afd8: 69 92 00 b8 	stur	w9, [x19, #9]
10000afdc: e9 b3 41 b8 	ldur	w9, [sp, #27]
10000afe0: 69 0e 00 b9 	str	w9, [x19, #12]
10000afe4: 68 22 00 39 	strb	w8, [x19, #8]
10000afe8: 08 00 00 14 	b	0x10000b008 <__ZN5gimli4read4unit15parse_attribute17h272502993371f398E+0xd18>
10000afec: 08 00 80 52 	mov	w8, #0
10000aff0: 69 02 80 52 	mov	w9, #19
10000aff4: ea 03 0e aa 	mov	x10, x14
10000aff8: 69 22 00 39 	strb	w9, [x19, #8]
10000affc: 7f 26 00 39 	strb	wzr, [x19, #9]
10000b000: 68 16 00 79 	strh	w8, [x19, #10]
10000b004: 7f 0e 00 b9 	str	wzr, [x19, #12]
10000b008: 6a 0a 00 f9 	str	x10, [x19, #16]
10000b00c: c8 05 80 52 	mov	w8, #46
10000b010: 68 02 00 f9 	str	x8, [x19]
10000b014: fd 00 00 14 	b	0x10000b408 <__ZN5gimli4read4unit15parse_attribute17h272502993371f398E+0x1118>
10000b018: 08 00 80 52 	mov	w8, #0
10000b01c: 6a 02 80 52 	mov	w10, #19
10000b020: 4b 1d 00 12 	and	w11, w10, #0xff
10000b024: 7f 1d 01 71 	cmp	w11, #71
10000b028: 41 06 00 54 	b.ne	0x10000b0f0 <__ZN5gimli4read4unit15parse_attribute17h272502993371f398E+0xe00>
10000b02c: 09 00 80 52 	mov	w9, #0
10000b030: 0d 00 80 52 	mov	w13, #0
10000b034: 0a 00 80 d2 	mov	x10, #0
10000b038: 4b 00 80 52 	mov	w11, #2
10000b03c: ec 00 00 14 	b	0x10000b3ec <__ZN5gimli4read4unit15parse_attribute17h272502993371f398E+0x10fc>
10000b040: 0b 00 80 52 	mov	w11, #0
10000b044: 69 02 80 52 	mov	w9, #19
10000b048: 2a 1d 00 12 	and	w10, w9, #0xff
10000b04c: 5f 1d 01 71 	cmp	w10, #71
10000b050: 01 01 00 54 	b.ne	0x10000b070 <__ZN5gimli4read4unit15parse_attribute17h272502993371f398E+0xd80>
10000b054: 09 00 80 52 	mov	w9, #0
10000b058: 0d 00 80 52 	mov	w13, #0
10000b05c: 0a 00 80 d2 	mov	x10, #0
10000b060: 7f 01 00 71 	cmp	w11, #0
10000b064: e8 07 9f 1a 	cset	w8, ne
10000b068: 2b 01 80 52 	mov	w11, #9
10000b06c: e0 00 00 14 	b	0x10000b3ec <__ZN5gimli4read4unit15parse_attribute17h272502993371f398E+0x10fc>
10000b070: 69 22 00 39 	strb	w9, [x19, #8]
10000b074: 44 fe ff 17 	b	0x10000a984 <__ZN5gimli4read4unit15parse_attribute17h272502993371f398E+0x694>
10000b078: 08 00 80 52 	mov	w8, #0
10000b07c: 6a 02 80 52 	mov	w10, #19
10000b080: 4b 1d 00 12 	and	w11, w10, #0xff
10000b084: 7f 1d 01 71 	cmp	w11, #71
10000b088: 41 03 00 54 	b.ne	0x10000b0f0 <__ZN5gimli4read4unit15parse_attribute17h272502993371f398E+0xe00>
10000b08c: 09 00 80 52 	mov	w9, #0
10000b090: 0d 00 80 52 	mov	w13, #0
10000b094: 0a 00 80 d2 	mov	x10, #0
10000b098: ab 01 80 52 	mov	w11, #13
10000b09c: d4 00 00 14 	b	0x10000b3ec <__ZN5gimli4read4unit15parse_attribute17h272502993371f398E+0x10fc>
10000b0a0: 08 00 80 52 	mov	w8, #0
10000b0a4: 6a 02 80 52 	mov	w10, #19
10000b0a8: 4b 1d 00 12 	and	w11, w10, #0xff
10000b0ac: 7f 1d 01 71 	cmp	w11, #71
10000b0b0: 01 02 00 54 	b.ne	0x10000b0f0 <__ZN5gimli4read4unit15parse_attribute17h272502993371f398E+0xe00>
10000b0b4: 09 00 80 52 	mov	w9, #0
10000b0b8: 0d 00 80 52 	mov	w13, #0
10000b0bc: 0a 00 80 d2 	mov	x10, #0
10000b0c0: ab 03 80 52 	mov	w11, #29
10000b0c4: ca 00 00 14 	b	0x10000b3ec <__ZN5gimli4read4unit15parse_attribute17h272502993371f398E+0x10fc>
10000b0c8: 08 00 80 52 	mov	w8, #0
10000b0cc: 6a 02 80 52 	mov	w10, #19
10000b0d0: 4b 1d 00 12 	and	w11, w10, #0xff
10000b0d4: 7f 1d 01 71 	cmp	w11, #71
10000b0d8: c1 00 00 54 	b.ne	0x10000b0f0 <__ZN5gimli4read4unit15parse_attribute17h272502993371f398E+0xe00>
10000b0dc: 09 00 80 52 	mov	w9, #0
10000b0e0: 0d 00 80 52 	mov	w13, #0
10000b0e4: 0a 00 80 d2 	mov	x10, #0
10000b0e8: 8b 01 80 52 	mov	w11, #12
10000b0ec: c0 00 00 14 	b	0x10000b3ec <__ZN5gimli4read4unit15parse_attribute17h272502993371f398E+0x10fc>
10000b0f0: 6a 22 00 39 	strb	w10, [x19, #8]
10000b0f4: 7f 26 00 39 	strb	wzr, [x19, #9]
10000b0f8: 7f 1e 00 79 	strh	wzr, [x19, #14]
10000b0fc: 7f a2 00 b8 	stur	wzr, [x19, #10]
10000b100: 9a 00 00 14 	b	0x10000b368 <__ZN5gimli4read4unit15parse_attribute17h272502993371f398E+0x1078>
10000b104: 0c 45 40 b8 	ldr	w12, [x8], #4
10000b108: a8 26 00 a9 	stp	x8, x9, [x21]
10000b10c: e9 08 80 52 	mov	w9, #71
10000b110: 2a 1d 00 12 	and	w10, w9, #0xff
10000b114: 5f 1d 01 71 	cmp	w10, #71
10000b118: 61 00 00 54 	b.ne	0x10000b124 <__ZN5gimli4read4unit15parse_attribute17h272502993371f398E+0xe34>
10000b11c: 8b 00 80 52 	mov	w11, #4
10000b120: a4 00 00 14 	b	0x10000b3b0 <__ZN5gimli4read4unit15parse_attribute17h272502993371f398E+0x10c0>
10000b124: ff 0b 00 b9 	str	wzr, [sp, #8]
10000b128: ff 3b 00 39 	strb	wzr, [sp, #14]
10000b12c: ff 1b 00 79 	strh	wzr, [sp, #12]
10000b130: ea b3 40 b8 	ldur	w10, [sp, #11]
10000b134: ff 43 00 79 	strh	wzr, [sp, #32]
10000b138: eb 5f 10 53 	ubfx	w11, wzr, #16, #8
10000b13c: eb 8b 00 39 	strb	w11, [sp, #34]
10000b140: 7f 92 00 78 	sturh	wzr, [x19, #9]
10000b144: 6b 2e 00 39 	strb	w11, [x19, #11]
10000b148: 69 22 00 39 	strb	w9, [x19, #8]
10000b14c: 6a 0e 00 b9 	str	w10, [x19, #12]
10000b150: 10 fe ff 17 	b	0x10000a990 <__ZN5gimli4read4unit15parse_attribute17h272502993371f398E+0x6a0>
10000b154: 0a 01 0c 8b 	add	x10, x8, x12
10000b158: 4a 05 00 91 	add	x10, x10, #1
10000b15c: eb 03 2c aa 	mvn	x11, x12
10000b160: 29 01 0b 8b 	add	x9, x9, x11
10000b164: aa 26 00 a9 	stp	x10, x9, [x21]
10000b168: 09 3d 08 53 	ubfx	w9, w8, #8, #8
10000b16c: 0d 7d 50 d3 	ubfx	x13, x8, #16, #16
10000b170: 0a 7d 60 92 	and	x10, x8, #0xffffffff00000000
10000b174: eb 03 80 52 	mov	w11, #31
10000b178: 9d 00 00 14 	b	0x10000b3ec <__ZN5gimli4read4unit15parse_attribute17h272502993371f398E+0x10fc>
10000b17c: 4a 01 0c eb 	subs	x10, x10, x12
10000b180: c2 a3 ff 54 	b.hs	0x10000a5f8 <__ZN5gimli4read4unit15parse_attribute17h272502993371f398E+0x308>
10000b184: 09 00 00 14 	b	0x10000b1a8 <__ZN5gimli4read4unit15parse_attribute17h272502993371f398E+0xeb8>
10000b188: 89 3d 08 53 	ubfx	w9, w12, #8, #8
10000b18c: 8d 7d 50 d3 	ubfx	x13, x12, #16, #16
10000b190: 8a 7d 60 92 	and	x10, x12, #0xffffffff00000000
10000b194: eb 00 80 52 	mov	w11, #7
10000b198: e8 03 0c aa 	mov	x8, x12
10000b19c: 94 00 00 14 	b	0x10000b3ec <__ZN5gimli4read4unit15parse_attribute17h272502993371f398E+0x10fc>
10000b1a0: 4a 01 0c eb 	subs	x10, x10, x12
10000b1a4: a2 0e 00 54 	b.hs	0x10000b378 <__ZN5gimli4read4unit15parse_attribute17h272502993371f398E+0x1088>
10000b1a8: 69 02 80 52 	mov	w9, #19
10000b1ac: 69 a2 00 a9 	stp	x9, x8, [x19, #8]
10000b1b0: c8 05 80 52 	mov	w8, #46
10000b1b4: 68 02 00 f9 	str	x8, [x19]
10000b1b8: 94 00 00 14 	b	0x10000b408 <__ZN5gimli4read4unit15parse_attribute17h272502993371f398E+0x1118>
10000b1bc: 89 3d 08 53 	ubfx	w9, w12, #8, #8
10000b1c0: 8d 7d 50 d3 	ubfx	x13, x12, #16, #16
10000b1c4: 8a 7d 60 92 	and	x10, x12, #0xffffffff00000000
10000b1c8: 6b 02 80 52 	mov	w11, #19
10000b1cc: e8 03 0c aa 	mov	x8, x12
10000b1d0: 87 00 00 14 	b	0x10000b3ec <__ZN5gimli4read4unit15parse_attribute17h272502993371f398E+0x10fc>
10000b1d4: 89 fd 48 d3 	lsr	x9, x12, #8
10000b1d8: 8d fd 50 d3 	lsr	x13, x12, #16
10000b1dc: 8a 7d 60 92 	and	x10, x12, #0xffffffff00000000
10000b1e0: 0b 03 80 52 	mov	w11, #24
10000b1e4: e8 03 0c aa 	mov	x8, x12
10000b1e8: 81 00 00 14 	b	0x10000b3ec <__ZN5gimli4read4unit15parse_attribute17h272502993371f398E+0x10fc>
10000b1ec: 28 85 40 f8 	ldr	x8, [x9], #8
10000b1f0: a9 2a 00 a9 	stp	x9, x10, [x21]
10000b1f4: ea 08 80 52 	mov	w10, #71
10000b1f8: 4a 1d 00 12 	and	w10, w10, #0xff
10000b1fc: 5f 1d 01 71 	cmp	w10, #71
10000b200: c1 02 00 54 	b.ne	0x10000b258 <__ZN5gimli4read4unit15parse_attribute17h272502993371f398E+0xf68>
10000b204: 27 00 00 14 	b	0x10000b2a0 <__ZN5gimli4read4unit15parse_attribute17h272502993371f398E+0xfb0>
10000b208: 28 85 40 f8 	ldr	x8, [x9], #8
10000b20c: a9 2a 00 a9 	stp	x9, x10, [x21]
10000b210: ea 08 80 52 	mov	w10, #71
10000b214: 4a 1d 00 12 	and	w10, w10, #0xff
10000b218: 5f 1d 01 71 	cmp	w10, #71
10000b21c: e1 01 00 54 	b.ne	0x10000b258 <__ZN5gimli4read4unit15parse_attribute17h272502993371f398E+0xf68>
10000b220: 2b 00 00 14 	b	0x10000b2cc <__ZN5gimli4read4unit15parse_attribute17h272502993371f398E+0xfdc>
10000b224: 28 85 40 f8 	ldr	x8, [x9], #8
10000b228: a9 2a 00 a9 	stp	x9, x10, [x21]
10000b22c: ea 08 80 52 	mov	w10, #71
10000b230: 4a 1d 00 12 	and	w10, w10, #0xff
10000b234: 5f 1d 01 71 	cmp	w10, #71
10000b238: 01 01 00 54 	b.ne	0x10000b258 <__ZN5gimli4read4unit15parse_attribute17h272502993371f398E+0xf68>
10000b23c: 2f 00 00 14 	b	0x10000b2f8 <__ZN5gimli4read4unit15parse_attribute17h272502993371f398E+0x1008>
10000b240: 28 85 40 f8 	ldr	x8, [x9], #8
10000b244: a9 2a 00 a9 	stp	x9, x10, [x21]
10000b248: ea 08 80 52 	mov	w10, #71
10000b24c: 4a 1d 00 12 	and	w10, w10, #0xff
10000b250: 5f 1d 01 71 	cmp	w10, #71
10000b254: 80 06 00 54 	b.eq	0x10000b324 <__ZN5gimli4read4unit15parse_attribute17h272502993371f398E+0x1034>
10000b258: ff 3b 00 39 	strb	wzr, [sp, #14]
10000b25c: ff 1b 00 79 	strh	wzr, [sp, #12]
10000b260: ff 0b 00 b9 	str	wzr, [sp, #8]
10000b264: e9 f3 00 f8 	stur	x9, [sp, #15]
10000b268: e8 07 40 f9 	ldr	x8, [sp, #8]
10000b26c: e9 13 40 b9 	ldr	w9, [sp, #16]
10000b270: e9 2b 00 b9 	str	w9, [sp, #40]
10000b274: e9 33 41 b8 	ldur	w9, [sp, #19]
10000b278: e9 b3 02 b8 	stur	w9, [sp, #43]
10000b27c: e8 13 00 f9 	str	x8, [sp, #32]
10000b280: e9 73 42 f8 	ldur	x9, [sp, #39]
10000b284: 30 00 00 14 	b	0x10000b344 <__ZN5gimli4read4unit15parse_attribute17h272502993371f398E+0x1054>
10000b288: 28 45 40 b8 	ldr	w8, [x9], #4
10000b28c: a9 2a 00 a9 	stp	x9, x10, [x21]
10000b290: ea 08 80 52 	mov	w10, #71
10000b294: 4a 1d 00 12 	and	w10, w10, #0xff
10000b298: 5f 1d 01 71 	cmp	w10, #71
10000b29c: e1 04 00 54 	b.ne	0x10000b338 <__ZN5gimli4read4unit15parse_attribute17h272502993371f398E+0x1048>
10000b2a0: 09 3d 08 53 	ubfx	w9, w8, #8, #8
10000b2a4: 0d 7d 50 d3 	ubfx	x13, x8, #16, #16
10000b2a8: 0a 7d 60 92 	and	x10, x8, #0xffffffff00000000
10000b2ac: 4b 03 80 52 	mov	w11, #26
10000b2b0: 4f 00 00 14 	b	0x10000b3ec <__ZN5gimli4read4unit15parse_attribute17h272502993371f398E+0x10fc>
10000b2b4: 28 45 40 b8 	ldr	w8, [x9], #4
10000b2b8: a9 2a 00 a9 	stp	x9, x10, [x21]
10000b2bc: ea 08 80 52 	mov	w10, #71
10000b2c0: 4a 1d 00 12 	and	w10, w10, #0xff
10000b2c4: 5f 1d 01 71 	cmp	w10, #71
10000b2c8: 81 03 00 54 	b.ne	0x10000b338 <__ZN5gimli4read4unit15parse_attribute17h272502993371f398E+0x1048>
10000b2cc: 09 3d 08 53 	ubfx	w9, w8, #8, #8
10000b2d0: 0d 7d 50 d3 	ubfx	x13, x8, #16, #16
10000b2d4: 0a 7d 60 92 	and	x10, x8, #0xffffffff00000000
10000b2d8: 4b 01 80 52 	mov	w11, #10
10000b2dc: 44 00 00 14 	b	0x10000b3ec <__ZN5gimli4read4unit15parse_attribute17h272502993371f398E+0x10fc>
10000b2e0: 28 45 40 b8 	ldr	w8, [x9], #4
10000b2e4: a9 2a 00 a9 	stp	x9, x10, [x21]
10000b2e8: ea 08 80 52 	mov	w10, #71
10000b2ec: 4a 1d 00 12 	and	w10, w10, #0xff
10000b2f0: 5f 1d 01 71 	cmp	w10, #71
10000b2f4: 21 02 00 54 	b.ne	0x10000b338 <__ZN5gimli4read4unit15parse_attribute17h272502993371f398E+0x1048>
10000b2f8: 09 3d 08 53 	ubfx	w9, w8, #8, #8
10000b2fc: 0d 7d 50 d3 	ubfx	x13, x8, #16, #16
10000b300: 0a 7d 60 92 	and	x10, x8, #0xffffffff00000000
10000b304: cb 03 80 52 	mov	w11, #30
10000b308: 39 00 00 14 	b	0x10000b3ec <__ZN5gimli4read4unit15parse_attribute17h272502993371f398E+0x10fc>
10000b30c: 28 45 40 b8 	ldr	w8, [x9], #4
10000b310: a9 2a 00 a9 	stp	x9, x10, [x21]
10000b314: ea 08 80 52 	mov	w10, #71
10000b318: 4a 1d 00 12 	and	w10, w10, #0xff
10000b31c: 5f 1d 01 71 	cmp	w10, #71
10000b320: c1 00 00 54 	b.ne	0x10000b338 <__ZN5gimli4read4unit15parse_attribute17h272502993371f398E+0x1048>
10000b324: 09 3d 08 53 	ubfx	w9, w8, #8, #8
10000b328: 0d 7d 50 d3 	ubfx	x13, x8, #16, #16
10000b32c: 0a 7d 60 92 	and	x10, x8, #0xffffffff00000000
10000b330: eb 01 80 52 	mov	w11, #15
10000b334: 2e 00 00 14 	b	0x10000b3ec <__ZN5gimli4read4unit15parse_attribute17h272502993371f398E+0x10fc>
10000b338: ff 23 00 b9 	str	wzr, [sp, #32]
10000b33c: ff 9b 00 39 	strb	wzr, [sp, #38]
10000b340: ff 4b 00 79 	strh	wzr, [sp, #36]
10000b344: e8 23 40 b9 	ldr	w8, [sp, #32]
10000b348: e8 1b 00 b9 	str	w8, [sp, #24]
10000b34c: e8 33 42 b8 	ldur	w8, [sp, #35]
10000b350: e8 b3 01 b8 	stur	w8, [sp, #27]
10000b354: e8 1b 40 b9 	ldr	w8, [sp, #24]
10000b358: 68 92 00 b8 	stur	w8, [x19, #9]
10000b35c: e8 b3 41 b8 	ldur	w8, [sp, #27]
10000b360: 68 0e 00 b9 	str	w8, [x19, #12]
10000b364: 6a 22 00 39 	strb	w10, [x19, #8]
10000b368: 69 0a 00 f9 	str	x9, [x19, #16]
10000b36c: c8 05 80 52 	mov	w8, #46
10000b370: 68 02 00 f9 	str	x8, [x19]
10000b374: 25 00 00 14 	b	0x10000b408 <__ZN5gimli4read4unit15parse_attribute17h272502993371f398E+0x1118>
10000b378: 0b 01 0c 8b 	add	x11, x8, x12
10000b37c: 09 3d 08 53 	ubfx	w9, w8, #8, #8
10000b380: 0d 7d 50 d3 	ubfx	x13, x8, #16, #16
10000b384: ab 2a 00 a9 	stp	x11, x10, [x21]
10000b388: 0a 7d 60 92 	and	x10, x8, #0xffffffff00000000
10000b38c: 0b 01 80 52 	mov	w11, #8
10000b390: 17 00 00 14 	b	0x10000b3ec <__ZN5gimli4read4unit15parse_attribute17h272502993371f398E+0x10fc>
10000b394: 0c 45 40 b8 	ldr	w12, [x8], #4
10000b398: a8 26 00 a9 	stp	x8, x9, [x21]
10000b39c: e9 08 80 52 	mov	w9, #71
10000b3a0: 2a 1d 00 12 	and	w10, w9, #0xff
10000b3a4: 5f 1d 01 71 	cmp	w10, #71
10000b3a8: a1 03 00 54 	b.ne	0x10000b41c <__ZN5gimli4read4unit15parse_attribute17h272502993371f398E+0x112c>
10000b3ac: 4b 01 80 52 	mov	w11, #10
10000b3b0: e8 03 0c aa 	mov	x8, x12
10000b3b4: 0a 00 80 d2 	mov	x10, #0
10000b3b8: 89 3d 08 53 	ubfx	w9, w12, #8, #8
10000b3bc: 8d 7d 10 53 	lsr	w13, w12, #16
10000b3c0: 0b 00 00 14 	b	0x10000b3ec <__ZN5gimli4read4unit15parse_attribute17h272502993371f398E+0x10fc>
10000b3c4: 48 85 40 f8 	ldr	x8, [x10], #8
10000b3c8: aa 26 00 a9 	stp	x10, x9, [x21]
10000b3cc: e9 08 80 52 	mov	w9, #71
10000b3d0: 2b 1d 00 12 	and	w11, w9, #0xff
10000b3d4: 7f 1d 01 71 	cmp	w11, #71
10000b3d8: c1 02 00 54 	b.ne	0x10000b430 <__ZN5gimli4read4unit15parse_attribute17h272502993371f398E+0x1140>
10000b3dc: 4b 01 80 52 	mov	w11, #10
10000b3e0: 0a 7d 60 92 	and	x10, x8, #0xffffffff00000000
10000b3e4: 09 3d 08 53 	ubfx	w9, w8, #8, #8
10000b3e8: 0d 7d 50 d3 	ubfx	x13, x8, #16, #16
10000b3ec: 8e 12 40 79 	ldrh	w14, [x20, #8]
10000b3f0: 28 1d 18 33 	bfi	w8, w9, #8, #8
10000b3f4: a8 3d 10 33 	bfi	w8, w13, #16, #16
10000b3f8: 48 01 08 aa 	orr	x8, x10, x8
10000b3fc: 6b 22 00 a9 	stp	x11, x8, [x19]
10000b400: 6c 0a 00 f9 	str	x12, [x19, #16]
10000b404: 6e 32 00 79 	strh	w14, [x19, #24]
10000b408: fd 7b 45 a9 	ldp	x29, x30, [sp, #80]
10000b40c: f4 4f 44 a9 	ldp	x20, x19, [sp, #64]
10000b410: f6 57 43 a9 	ldp	x22, x21, [sp, #48]
10000b414: ff 83 01 91 	add	sp, sp, #96
10000b418: c0 03 5f d6 	ret
10000b41c: 69 22 00 39 	strb	w9, [x19, #8]
10000b420: 7f 92 00 b8 	stur	wzr, [x19, #9]
10000b424: 7f 3e 00 39 	strb	wzr, [x19, #15]
10000b428: 7f d2 00 78 	sturh	wzr, [x19, #13]
10000b42c: 59 fd ff 17 	b	0x10000a990 <__ZN5gimli4read4unit15parse_attribute17h272502993371f398E+0x6a0>
10000b430: ff 3b 00 39 	strb	wzr, [sp, #14]
10000b434: ff 1b 00 79 	strh	wzr, [sp, #12]
10000b438: ff 0b 00 b9 	str	wzr, [sp, #8]
10000b43c: ea f3 00 f8 	stur	x10, [sp, #15]
10000b440: e8 07 40 f9 	ldr	x8, [sp, #8]
10000b444: ea 13 40 b9 	ldr	w10, [sp, #16]
10000b448: ea 2b 00 b9 	str	w10, [sp, #40]
10000b44c: ea 33 41 b8 	ldur	w10, [sp, #19]
10000b450: ea b3 02 b8 	stur	w10, [sp, #43]
10000b454: e8 13 00 f9 	str	x8, [sp, #32]
10000b458: e8 1b 00 b9 	str	w8, [sp, #24]
10000b45c: e8 33 42 b8 	ldur	w8, [sp, #35]
10000b460: e8 b3 01 b8 	stur	w8, [sp, #27]
10000b464: e8 73 42 f8 	ldur	x8, [sp, #39]
10000b468: ea 1b 40 b9 	ldr	w10, [sp, #24]
10000b46c: 6a 92 00 b8 	stur	w10, [x19, #9]
10000b470: ea b3 41 b8 	ldur	w10, [sp, #27]
10000b474: 6a 0e 00 b9 	str	w10, [x19, #12]
10000b478: 69 22 00 39 	strb	w9, [x19, #8]
10000b47c: 45 fd ff 17 	b	0x10000a990 <__ZN5gimli4read4unit15parse_attribute17h272502993371f398E+0x6a0>
10000b480: c9 00 80 52 	mov	w9, #6
10000b484: dd fe ff 17 	b	0x10000aff8 <__ZN5gimli4read4unit15parse_attribute17h272502993371f398E+0xd08>

000000010000b488 <__ZN5gimli4read4unit18Attribute$LT$R$GT$5value17hb1a4a25eb0939b5fE>:
10000b488: f4 4f be a9 	stp	x20, x19, [sp, #-32]!
10000b48c: fd 7b 01 a9 	stp	x29, x30, [sp, #16]
10000b490: fd 43 00 91 	add	x29, sp, #16
10000b494: f4 03 01 aa 	mov	x20, x1
10000b498: f3 03 00 aa 	mov	x19, x0
10000b49c: 28 30 40 79 	ldrh	w8, [x1, #24]
10000b4a0: 09 26 84 52 	mov	w9, #8496
10000b4a4: 1f 01 09 6b 	cmp	w8, w9
10000b4a8: 6c 03 00 54 	b.gt	0x10000b514 <__ZN5gimli4read4unit18Attribute$LT$R$GT$5value17hb1a4a25eb0939b5fE+0x8c>
10000b4ac: 08 09 00 51 	sub	w8, w8, #2
10000b4b0: 1f 29 02 71 	cmp	w8, #138
10000b4b4: 28 1b 00 54 	b.hi	0x10000b818 <__ZN5gimli4read4unit18Attribute$LT$R$GT$5value17hb1a4a25eb0939b5fE+0x390>
10000b4b8: 69 87 14 50 	adr	x9, #168174
10000b4bc: 1f 20 03 d5 	nop
10000b4c0: 8a 00 00 10 	adr	x10, #16
10000b4c4: 2b 69 68 38 	ldrb	w11, [x9, x8]
10000b4c8: 4a 09 0b 8b 	add	x10, x10, x11, lsl #2
10000b4cc: 40 01 1f d6 	br	x10
10000b4d0: 88 02 40 f9 	ldr	x8, [x20]
10000b4d4: 04 00 00 14 	b	0x10000b4e4 <__ZN5gimli4read4unit18Attribute$LT$R$GT$5value17hb1a4a25eb0939b5fE+0x5c>
10000b4d8: 88 02 40 f9 	ldr	x8, [x20]
10000b4dc: 1f 29 00 f1 	cmp	x8, #10
10000b4e0: c0 17 00 54 	b.eq	0x10000b7d8 <__ZN5gimli4read4unit18Attribute$LT$R$GT$5value17hb1a4a25eb0939b5fE+0x350>
10000b4e4: 1f 21 00 f1 	cmp	x8, #8
10000b4e8: 04 19 41 fa 	ccmp	x8, #1, #4, ne
10000b4ec: 61 19 00 54 	b.ne	0x10000b818 <__ZN5gimli4read4unit18Attribute$LT$R$GT$5value17hb1a4a25eb0939b5fE+0x390>
10000b4f0: 89 a2 40 a9 	ldp	x9, x8, [x20, #8]
10000b4f4: 69 a2 00 a9 	stp	x9, x8, [x19, #8]
10000b4f8: 08 01 80 52 	mov	w8, #8
10000b4fc: 71 00 00 14 	b	0x10000b6c0 <__ZN5gimli4read4unit18Attribute$LT$R$GT$5value17hb1a4a25eb0939b5fE+0x238>
10000b500: e0 03 14 aa 	mov	x0, x20
10000b504: ca 00 00 94 	bl	0x10000b82c <__ZN5gimli4read4unit32AttributeValue$LT$R$C$Offset$GT$11udata_value17hf711d5aa922969b4E>
10000b508: 1f 04 00 f1 	cmp	x0, #1
10000b50c: 60 0d 00 54 	b.eq	0x10000b6b8 <__ZN5gimli4read4unit18Attribute$LT$R$GT$5value17hb1a4a25eb0939b5fE+0x230>
10000b510: c2 00 00 14 	b	0x10000b818 <__ZN5gimli4read4unit18Attribute$LT$R$GT$5value17hb1a4a25eb0939b5fE+0x390>
10000b514: 29 26 84 52 	mov	w9, #8497
10000b518: 1f 01 09 6b 	cmp	w8, w9
10000b51c: 20 14 00 54 	b.eq	0x10000b7a0 <__ZN5gimli4read4unit18Attribute$LT$R$GT$5value17hb1a4a25eb0939b5fE+0x318>
10000b520: 49 26 84 52 	mov	w9, #8498
10000b524: 1f 01 09 6b 	cmp	w8, w9
10000b528: 00 05 00 54 	b.eq	0x10000b5c8 <__ZN5gimli4read4unit18Attribute$LT$R$GT$5value17hb1a4a25eb0939b5fE+0x140>
10000b52c: 69 26 84 52 	mov	w9, #8499
10000b530: 1f 01 09 6b 	cmp	w8, w9
10000b534: 21 17 00 54 	b.ne	0x10000b818 <__ZN5gimli4read4unit18Attribute$LT$R$GT$5value17hb1a4a25eb0939b5fE+0x390>
10000b538: 88 02 40 f9 	ldr	x8, [x20]
10000b53c: 1f 29 00 f1 	cmp	x8, #10
10000b540: c1 16 00 54 	b.ne	0x10000b818 <__ZN5gimli4read4unit18Attribute$LT$R$GT$5value17hb1a4a25eb0939b5fE+0x390>
10000b544: 88 06 40 f9 	ldr	x8, [x20, #8]
10000b548: 69 01 80 52 	mov	w9, #11
10000b54c: af 00 00 14 	b	0x10000b808 <__ZN5gimli4read4unit18Attribute$LT$R$GT$5value17hb1a4a25eb0939b5fE+0x380>
10000b550: 88 02 40 f9 	ldr	x8, [x20]
10000b554: 08 05 00 d1 	sub	x8, x8, #1
10000b558: 1f 1d 00 f1 	cmp	x8, #7
10000b55c: e8 15 00 54 	b.hi	0x10000b818 <__ZN5gimli4read4unit18Attribute$LT$R$GT$5value17hb1a4a25eb0939b5fE+0x390>
10000b560: 89 86 14 30 	adr	x9, #168145
10000b564: 1f 20 03 d5 	nop
10000b568: 4a fc ff 10 	adr	x10, #-120
10000b56c: 2b 69 68 38 	ldrb	w11, [x9, x8]
10000b570: 4a 09 0b 8b 	add	x10, x10, x11, lsl #2
10000b574: 40 01 1f d6 	br	x10
10000b578: 88 06 40 f9 	ldr	x8, [x20, #8]
10000b57c: a2 00 00 14 	b	0x10000b804 <__ZN5gimli4read4unit18Attribute$LT$R$GT$5value17hb1a4a25eb0939b5fE+0x37c>
10000b580: 88 02 40 f9 	ldr	x8, [x20]
10000b584: 1f 29 00 f1 	cmp	x8, #10
10000b588: 81 14 00 54 	b.ne	0x10000b818 <__ZN5gimli4read4unit18Attribute$LT$R$GT$5value17hb1a4a25eb0939b5fE+0x390>
10000b58c: 88 06 40 f9 	ldr	x8, [x20, #8]
10000b590: c9 02 80 52 	mov	w9, #22
10000b594: 9d 00 00 14 	b	0x10000b808 <__ZN5gimli4read4unit18Attribute$LT$R$GT$5value17hb1a4a25eb0939b5fE+0x380>
10000b598: e0 03 14 aa 	mov	x0, x20
10000b59c: a4 00 00 94 	bl	0x10000b82c <__ZN5gimli4read4unit32AttributeValue$LT$R$C$Offset$GT$11udata_value17hf711d5aa922969b4E>
10000b5a0: 1f 04 00 f1 	cmp	x0, #1
10000b5a4: a1 13 00 54 	b.ne	0x10000b818 <__ZN5gimli4read4unit18Attribute$LT$R$GT$5value17hb1a4a25eb0939b5fE+0x390>
10000b5a8: 88 05 80 52 	mov	w8, #44
10000b5ac: 44 00 00 14 	b	0x10000b6bc <__ZN5gimli4read4unit18Attribute$LT$R$GT$5value17hb1a4a25eb0939b5fE+0x234>
10000b5b0: e0 03 14 aa 	mov	x0, x20
10000b5b4: 9e 00 00 94 	bl	0x10000b82c <__ZN5gimli4read4unit32AttributeValue$LT$R$C$Offset$GT$11udata_value17hf711d5aa922969b4E>
10000b5b8: 1f 04 00 f1 	cmp	x0, #1
10000b5bc: e0 07 00 54 	b.eq	0x10000b6b8 <__ZN5gimli4read4unit18Attribute$LT$R$GT$5value17hb1a4a25eb0939b5fE+0x230>
10000b5c0: 88 02 40 f9 	ldr	x8, [x20]
10000b5c4: 80 00 00 14 	b	0x10000b7c4 <__ZN5gimli4read4unit18Attribute$LT$R$GT$5value17hb1a4a25eb0939b5fE+0x33c>
10000b5c8: 88 02 40 f9 	ldr	x8, [x20]
10000b5cc: 1f 29 00 f1 	cmp	x8, #10
10000b5d0: 41 12 00 54 	b.ne	0x10000b818 <__ZN5gimli4read4unit18Attribute$LT$R$GT$5value17hb1a4a25eb0939b5fE+0x390>
10000b5d4: 88 06 40 f9 	ldr	x8, [x20, #8]
10000b5d8: e9 02 80 52 	mov	w9, #23
10000b5dc: 8b 00 00 14 	b	0x10000b808 <__ZN5gimli4read4unit18Attribute$LT$R$GT$5value17hb1a4a25eb0939b5fE+0x380>
10000b5e0: e0 03 14 aa 	mov	x0, x20
10000b5e4: ae 00 00 94 	bl	0x10000b89c <__ZN5gimli4read4unit32AttributeValue$LT$R$C$Offset$GT$8u8_value17h6da43e9fcb480143E>
10000b5e8: 80 11 00 36 	tbz	w0, #0, 0x10000b818 <__ZN5gimli4read4unit18Attribute$LT$R$GT$5value17hb1a4a25eb0939b5fE+0x390>
10000b5ec: 61 22 00 39 	strb	w1, [x19, #8]
10000b5f0: 68 05 80 52 	mov	w8, #43
10000b5f4: 33 00 00 14 	b	0x10000b6c0 <__ZN5gimli4read4unit18Attribute$LT$R$GT$5value17hb1a4a25eb0939b5fE+0x238>
10000b5f8: 88 02 40 f9 	ldr	x8, [x20]
10000b5fc: 1f 29 00 f1 	cmp	x8, #10
10000b600: c1 10 00 54 	b.ne	0x10000b818 <__ZN5gimli4read4unit18Attribute$LT$R$GT$5value17hb1a4a25eb0939b5fE+0x390>
10000b604: 88 06 40 f9 	ldr	x8, [x20, #8]
10000b608: 09 02 80 52 	mov	w9, #16
10000b60c: 7f 00 00 14 	b	0x10000b808 <__ZN5gimli4read4unit18Attribute$LT$R$GT$5value17hb1a4a25eb0939b5fE+0x380>
10000b610: e0 03 14 aa 	mov	x0, x20
10000b614: d0 00 00 94 	bl	0x10000b954 <__ZN5gimli4read4unit32AttributeValue$LT$R$C$Offset$GT$9u16_value17h2f0aab32afd1afb1E>
10000b618: 08 3c 00 12 	and	w8, w0, #0xffff
10000b61c: 1f 05 00 71 	cmp	w8, #1
10000b620: c1 0f 00 54 	b.ne	0x10000b818 <__ZN5gimli4read4unit18Attribute$LT$R$GT$5value17hb1a4a25eb0939b5fE+0x390>
10000b624: 61 12 00 79 	strh	w1, [x19, #8]
10000b628: c8 04 80 52 	mov	w8, #38
10000b62c: 25 00 00 14 	b	0x10000b6c0 <__ZN5gimli4read4unit18Attribute$LT$R$GT$5value17hb1a4a25eb0939b5fE+0x238>
10000b630: e0 03 14 aa 	mov	x0, x20
10000b634: 9a 00 00 94 	bl	0x10000b89c <__ZN5gimli4read4unit32AttributeValue$LT$R$C$Offset$GT$8u8_value17h6da43e9fcb480143E>
10000b638: 00 0f 00 36 	tbz	w0, #0, 0x10000b818 <__ZN5gimli4read4unit18Attribute$LT$R$GT$5value17hb1a4a25eb0939b5fE+0x390>
10000b63c: 61 22 00 39 	strb	w1, [x19, #8]
10000b640: 88 04 80 52 	mov	w8, #36
10000b644: 1f 00 00 14 	b	0x10000b6c0 <__ZN5gimli4read4unit18Attribute$LT$R$GT$5value17hb1a4a25eb0939b5fE+0x238>
10000b648: e0 03 14 aa 	mov	x0, x20
10000b64c: 94 00 00 94 	bl	0x10000b89c <__ZN5gimli4read4unit32AttributeValue$LT$R$C$Offset$GT$8u8_value17h6da43e9fcb480143E>
10000b650: 40 0e 00 36 	tbz	w0, #0, 0x10000b818 <__ZN5gimli4read4unit18Attribute$LT$R$GT$5value17hb1a4a25eb0939b5fE+0x390>
10000b654: 61 22 00 39 	strb	w1, [x19, #8]
10000b658: 48 05 80 52 	mov	w8, #42
10000b65c: 19 00 00 14 	b	0x10000b6c0 <__ZN5gimli4read4unit18Attribute$LT$R$GT$5value17hb1a4a25eb0939b5fE+0x238>
10000b660: e0 03 14 aa 	mov	x0, x20
10000b664: 8e 00 00 94 	bl	0x10000b89c <__ZN5gimli4read4unit32AttributeValue$LT$R$C$Offset$GT$8u8_value17h6da43e9fcb480143E>
10000b668: 80 0d 00 36 	tbz	w0, #0, 0x10000b818 <__ZN5gimli4read4unit18Attribute$LT$R$GT$5value17hb1a4a25eb0939b5fE+0x390>
10000b66c: 61 22 00 39 	strb	w1, [x19, #8]
10000b670: 68 04 80 52 	mov	w8, #35
10000b674: 13 00 00 14 	b	0x10000b6c0 <__ZN5gimli4read4unit18Attribute$LT$R$GT$5value17hb1a4a25eb0939b5fE+0x238>
10000b678: e0 03 14 aa 	mov	x0, x20
10000b67c: 6c 00 00 94 	bl	0x10000b82c <__ZN5gimli4read4unit32AttributeValue$LT$R$C$Offset$GT$11udata_value17hf711d5aa922969b4E>
10000b680: 1f 04 00 f1 	cmp	x0, #1
10000b684: a1 0c 00 54 	b.ne	0x10000b818 <__ZN5gimli4read4unit18Attribute$LT$R$GT$5value17hb1a4a25eb0939b5fE+0x390>
10000b688: e8 04 80 52 	mov	w8, #39
10000b68c: 0c 00 00 14 	b	0x10000b6bc <__ZN5gimli4read4unit18Attribute$LT$R$GT$5value17hb1a4a25eb0939b5fE+0x234>
10000b690: e0 03 14 aa 	mov	x0, x20
10000b694: 82 00 00 94 	bl	0x10000b89c <__ZN5gimli4read4unit32AttributeValue$LT$R$C$Offset$GT$8u8_value17h6da43e9fcb480143E>
10000b698: 00 0c 00 36 	tbz	w0, #0, 0x10000b818 <__ZN5gimli4read4unit18Attribute$LT$R$GT$5value17hb1a4a25eb0939b5fE+0x390>
10000b69c: 61 22 00 39 	strb	w1, [x19, #8]
10000b6a0: 28 05 80 52 	mov	w8, #41
10000b6a4: 07 00 00 14 	b	0x10000b6c0 <__ZN5gimli4read4unit18Attribute$LT$R$GT$5value17hb1a4a25eb0939b5fE+0x238>
10000b6a8: e0 03 14 aa 	mov	x0, x20
10000b6ac: 60 00 00 94 	bl	0x10000b82c <__ZN5gimli4read4unit32AttributeValue$LT$R$C$Offset$GT$11udata_value17hf711d5aa922969b4E>
10000b6b0: 1f 04 00 f1 	cmp	x0, #1
10000b6b4: 21 08 00 54 	b.ne	0x10000b7b8 <__ZN5gimli4read4unit18Attribute$LT$R$GT$5value17hb1a4a25eb0939b5fE+0x330>
10000b6b8: e8 00 80 52 	mov	w8, #7
10000b6bc: 61 06 00 f9 	str	x1, [x19, #8]
10000b6c0: 68 02 00 f9 	str	x8, [x19]
10000b6c4: 52 00 00 14 	b	0x10000b80c <__ZN5gimli4read4unit18Attribute$LT$R$GT$5value17hb1a4a25eb0939b5fE+0x384>
10000b6c8: e0 03 14 aa 	mov	x0, x20
10000b6cc: 74 00 00 94 	bl	0x10000b89c <__ZN5gimli4read4unit32AttributeValue$LT$R$C$Offset$GT$8u8_value17h6da43e9fcb480143E>
10000b6d0: 40 0a 00 36 	tbz	w0, #0, 0x10000b818 <__ZN5gimli4read4unit18Attribute$LT$R$GT$5value17hb1a4a25eb0939b5fE+0x390>
10000b6d4: 61 22 00 39 	strb	w1, [x19, #8]
10000b6d8: 08 04 80 52 	mov	w8, #32
10000b6dc: f9 ff ff 17 	b	0x10000b6c0 <__ZN5gimli4read4unit18Attribute$LT$R$GT$5value17hb1a4a25eb0939b5fE+0x238>
10000b6e0: e0 03 14 aa 	mov	x0, x20
10000b6e4: 6e 00 00 94 	bl	0x10000b89c <__ZN5gimli4read4unit32AttributeValue$LT$R$C$Offset$GT$8u8_value17h6da43e9fcb480143E>
10000b6e8: 80 09 00 36 	tbz	w0, #0, 0x10000b818 <__ZN5gimli4read4unit18Attribute$LT$R$GT$5value17hb1a4a25eb0939b5fE+0x390>
10000b6ec: 61 22 00 39 	strb	w1, [x19, #8]
10000b6f0: 08 05 80 52 	mov	w8, #40
10000b6f4: f3 ff ff 17 	b	0x10000b6c0 <__ZN5gimli4read4unit18Attribute$LT$R$GT$5value17hb1a4a25eb0939b5fE+0x238>
10000b6f8: 88 02 40 f9 	ldr	x8, [x20]
10000b6fc: 1f 29 00 f1 	cmp	x8, #10
10000b700: c1 08 00 54 	b.ne	0x10000b818 <__ZN5gimli4read4unit18Attribute$LT$R$GT$5value17hb1a4a25eb0939b5fE+0x390>
10000b704: 88 06 40 f9 	ldr	x8, [x20, #8]
10000b708: 89 02 80 52 	mov	w9, #20
10000b70c: 3f 00 00 14 	b	0x10000b808 <__ZN5gimli4read4unit18Attribute$LT$R$GT$5value17hb1a4a25eb0939b5fE+0x380>
10000b710: e0 03 14 aa 	mov	x0, x20
10000b714: 62 00 00 94 	bl	0x10000b89c <__ZN5gimli4read4unit32AttributeValue$LT$R$C$Offset$GT$8u8_value17h6da43e9fcb480143E>
10000b718: 00 08 00 36 	tbz	w0, #0, 0x10000b818 <__ZN5gimli4read4unit18Attribute$LT$R$GT$5value17hb1a4a25eb0939b5fE+0x390>
10000b71c: 61 22 00 39 	strb	w1, [x19, #8]
10000b720: a8 04 80 52 	mov	w8, #37
10000b724: e7 ff ff 17 	b	0x10000b6c0 <__ZN5gimli4read4unit18Attribute$LT$R$GT$5value17hb1a4a25eb0939b5fE+0x238>
10000b728: e0 03 14 aa 	mov	x0, x20
10000b72c: 5c 00 00 94 	bl	0x10000b89c <__ZN5gimli4read4unit32AttributeValue$LT$R$C$Offset$GT$8u8_value17h6da43e9fcb480143E>
10000b730: 40 07 00 36 	tbz	w0, #0, 0x10000b818 <__ZN5gimli4read4unit18Attribute$LT$R$GT$5value17hb1a4a25eb0939b5fE+0x390>
10000b734: 61 22 00 39 	strb	w1, [x19, #8]
10000b738: 28 04 80 52 	mov	w8, #33
10000b73c: e1 ff ff 17 	b	0x10000b6c0 <__ZN5gimli4read4unit18Attribute$LT$R$GT$5value17hb1a4a25eb0939b5fE+0x238>
10000b740: e0 03 14 aa 	mov	x0, x20
10000b744: 56 00 00 94 	bl	0x10000b89c <__ZN5gimli4read4unit32AttributeValue$LT$R$C$Offset$GT$8u8_value17h6da43e9fcb480143E>
10000b748: 80 06 00 36 	tbz	w0, #0, 0x10000b818 <__ZN5gimli4read4unit18Attribute$LT$R$GT$5value17hb1a4a25eb0939b5fE+0x390>
10000b74c: 61 22 00 39 	strb	w1, [x19, #8]
10000b750: 48 04 80 52 	mov	w8, #34
10000b754: db ff ff 17 	b	0x10000b6c0 <__ZN5gimli4read4unit18Attribute$LT$R$GT$5value17hb1a4a25eb0939b5fE+0x238>
10000b758: 88 02 40 f9 	ldr	x8, [x20]
10000b75c: 1f 29 00 f1 	cmp	x8, #10
10000b760: c1 05 00 54 	b.ne	0x10000b818 <__ZN5gimli4read4unit18Attribute$LT$R$GT$5value17hb1a4a25eb0939b5fE+0x390>
10000b764: 88 06 40 f9 	ldr	x8, [x20, #8]
10000b768: 89 03 80 52 	mov	w9, #28
10000b76c: 27 00 00 14 	b	0x10000b808 <__ZN5gimli4read4unit18Attribute$LT$R$GT$5value17hb1a4a25eb0939b5fE+0x380>
10000b770: 88 02 40 f9 	ldr	x8, [x20]
10000b774: 1f 29 00 f1 	cmp	x8, #10
10000b778: 01 05 00 54 	b.ne	0x10000b818 <__ZN5gimli4read4unit18Attribute$LT$R$GT$5value17hb1a4a25eb0939b5fE+0x390>
10000b77c: 88 06 40 f9 	ldr	x8, [x20, #8]
10000b780: a9 02 80 52 	mov	w9, #21
10000b784: 21 00 00 14 	b	0x10000b808 <__ZN5gimli4read4unit18Attribute$LT$R$GT$5value17hb1a4a25eb0939b5fE+0x380>
10000b788: 88 02 40 f9 	ldr	x8, [x20]
10000b78c: 1f 29 00 f1 	cmp	x8, #10
10000b790: 41 04 00 54 	b.ne	0x10000b818 <__ZN5gimli4read4unit18Attribute$LT$R$GT$5value17hb1a4a25eb0939b5fE+0x390>
10000b794: 88 06 40 f9 	ldr	x8, [x20, #8]
10000b798: 49 02 80 52 	mov	w9, #18
10000b79c: 1b 00 00 14 	b	0x10000b808 <__ZN5gimli4read4unit18Attribute$LT$R$GT$5value17hb1a4a25eb0939b5fE+0x380>
10000b7a0: e0 03 14 aa 	mov	x0, x20
10000b7a4: 22 00 00 94 	bl	0x10000b82c <__ZN5gimli4read4unit32AttributeValue$LT$R$C$Offset$GT$11udata_value17hf711d5aa922969b4E>
10000b7a8: 1f 04 00 f1 	cmp	x0, #1
10000b7ac: 61 03 00 54 	b.ne	0x10000b818 <__ZN5gimli4read4unit18Attribute$LT$R$GT$5value17hb1a4a25eb0939b5fE+0x390>
10000b7b0: a8 05 80 52 	mov	w8, #45
10000b7b4: c2 ff ff 17 	b	0x10000b6bc <__ZN5gimli4read4unit18Attribute$LT$R$GT$5value17hb1a4a25eb0939b5fE+0x234>
10000b7b8: 88 02 40 f9 	ldr	x8, [x20]
10000b7bc: 1f 29 00 f1 	cmp	x8, #10
10000b7c0: c0 00 00 54 	b.eq	0x10000b7d8 <__ZN5gimli4read4unit18Attribute$LT$R$GT$5value17hb1a4a25eb0939b5fE+0x350>
10000b7c4: 1f 21 00 f1 	cmp	x8, #8
10000b7c8: 40 e9 ff 54 	b.eq	0x10000b4f0 <__ZN5gimli4read4unit18Attribute$LT$R$GT$5value17hb1a4a25eb0939b5fE+0x68>
10000b7cc: 1f 05 00 f1 	cmp	x8, #1
10000b7d0: 00 e9 ff 54 	b.eq	0x10000b4f0 <__ZN5gimli4read4unit18Attribute$LT$R$GT$5value17hb1a4a25eb0939b5fE+0x68>
10000b7d4: 11 00 00 14 	b	0x10000b818 <__ZN5gimli4read4unit18Attribute$LT$R$GT$5value17hb1a4a25eb0939b5fE+0x390>
10000b7d8: 88 06 40 f9 	ldr	x8, [x20, #8]
10000b7dc: 29 02 80 52 	mov	w9, #17
10000b7e0: 0a 00 00 14 	b	0x10000b808 <__ZN5gimli4read4unit18Attribute$LT$R$GT$5value17hb1a4a25eb0939b5fE+0x380>
10000b7e4: 88 22 40 39 	ldrb	w8, [x20, #8]
10000b7e8: 07 00 00 14 	b	0x10000b804 <__ZN5gimli4read4unit18Attribute$LT$R$GT$5value17hb1a4a25eb0939b5fE+0x37c>
10000b7ec: 88 12 40 79 	ldrh	w8, [x20, #8]
10000b7f0: 05 00 00 14 	b	0x10000b804 <__ZN5gimli4read4unit18Attribute$LT$R$GT$5value17hb1a4a25eb0939b5fE+0x37c>
10000b7f4: 88 0a 40 b9 	ldr	w8, [x20, #8]
10000b7f8: 03 00 00 14 	b	0x10000b804 <__ZN5gimli4read4unit18Attribute$LT$R$GT$5value17hb1a4a25eb0939b5fE+0x37c>
10000b7fc: 88 06 40 f9 	ldr	x8, [x20, #8]
10000b800: c8 00 f8 b7 	tbnz	x8, #63, 0x10000b818 <__ZN5gimli4read4unit18Attribute$LT$R$GT$5value17hb1a4a25eb0939b5fE+0x390>
10000b804: e9 00 80 52 	mov	w9, #7
10000b808: 69 22 00 a9 	stp	x9, x8, [x19]
10000b80c: fd 7b 41 a9 	ldp	x29, x30, [sp, #16]
10000b810: f4 4f c2 a8 	ldp	x20, x19, [sp], #32
10000b814: c0 03 5f d6 	ret
10000b818: e0 03 13 aa 	mov	x0, x19
10000b81c: e1 03 14 aa 	mov	x1, x20
10000b820: fd 7b 41 a9 	ldp	x29, x30, [sp, #16]
10000b824: f4 4f c2 a8 	ldp	x20, x19, [sp], #32
10000b828: 1e 07 00 14 	b	0x10000d4a0 <__ZN90_$LT$gimli..read..unit..AttributeValue$LT$R$C$Offset$GT$$u20$as$u20$core..clone..Clone$GT$5clone17h6c5dd75aaa405a32E>

000000010000b82c <__ZN5gimli4read4unit32AttributeValue$LT$R$C$Offset$GT$11udata_value17hf711d5aa922969b4E>:
10000b82c: 08 00 40 f9 	ldr	x8, [x0]
10000b830: 08 09 00 d1 	sub	x8, x8, #2
10000b834: 1f 15 00 f1 	cmp	x8, #5
10000b838: 48 01 00 54 	b.hi	0x10000b860 <__ZN5gimli4read4unit32AttributeValue$LT$R$C$Offset$GT$11udata_value17hf711d5aa922969b4E+0x34>
10000b83c: e9 6f 14 30 	adr	x9, #167421
10000b840: 1f 20 03 d5 	nop
10000b844: 8a 00 00 10 	adr	x10, #16
10000b848: 2b 69 68 38 	ldrb	w11, [x9, x8]
10000b84c: 4a 09 0b 8b 	add	x10, x10, x11, lsl #2
10000b850: 40 01 1f d6 	br	x10
10000b854: 01 04 40 f9 	ldr	x1, [x0, #8]
10000b858: 20 00 80 52 	mov	w0, #1
10000b85c: c0 03 5f d6 	ret
10000b860: 00 00 80 d2 	mov	x0, #0
10000b864: c0 03 5f d6 	ret
10000b868: 01 20 40 39 	ldrb	w1, [x0, #8]
10000b86c: 20 00 80 52 	mov	w0, #1
10000b870: c0 03 5f d6 	ret
10000b874: 01 10 40 79 	ldrh	w1, [x0, #8]
10000b878: 20 00 80 52 	mov	w0, #1
10000b87c: c0 03 5f d6 	ret
10000b880: 01 08 40 b9 	ldr	w1, [x0, #8]
10000b884: 20 00 80 52 	mov	w0, #1
10000b888: c0 03 5f d6 	ret
10000b88c: 01 04 40 f9 	ldr	x1, [x0, #8]
10000b890: e8 03 21 aa 	mvn	x8, x1
10000b894: 00 fd 7f d3 	lsr	x0, x8, #63
10000b898: c0 03 5f d6 	ret

000000010000b89c <__ZN5gimli4read4unit32AttributeValue$LT$R$C$Offset$GT$8u8_value17h6da43e9fcb480143E>:
10000b89c: 08 00 40 f9 	ldr	x8, [x0]
10000b8a0: 08 09 00 d1 	sub	x8, x8, #2
10000b8a4: 1f 15 00 f1 	cmp	x8, #5
10000b8a8: a8 01 00 54 	b.hi	0x10000b8dc <__ZN5gimli4read4unit32AttributeValue$LT$R$C$Offset$GT$8u8_value17h6da43e9fcb480143E+0x40>
10000b8ac: 89 6c 14 70 	adr	x9, #167315
10000b8b0: 1f 20 03 d5 	nop
10000b8b4: 8a 00 00 10 	adr	x10, #16
10000b8b8: 2b 69 68 38 	ldrb	w11, [x9, x8]
10000b8bc: 4a 09 0b 8b 	add	x10, x10, x11, lsl #2
10000b8c0: 40 01 1f d6 	br	x10
10000b8c4: 01 04 40 f9 	ldr	x1, [x0, #8]
10000b8c8: 28 00 80 52 	mov	w8, #1
10000b8cc: 3f 00 04 f1 	cmp	x1, #256
10000b8d0: e9 27 9f 1a 	cset	w9, lo
10000b8d4: 00 01 09 0a 	and	w0, w8, w9
10000b8d8: c0 03 5f d6 	ret
10000b8dc: 08 00 80 52 	mov	w8, #0
10000b8e0: 3f 00 04 f1 	cmp	x1, #256
10000b8e4: e9 27 9f 1a 	cset	w9, lo
10000b8e8: 00 01 09 0a 	and	w0, w8, w9
10000b8ec: c0 03 5f d6 	ret
10000b8f0: 01 20 40 39 	ldrb	w1, [x0, #8]
10000b8f4: 28 00 80 52 	mov	w8, #1
10000b8f8: 3f 00 04 f1 	cmp	x1, #256
10000b8fc: e9 27 9f 1a 	cset	w9, lo
10000b900: 00 01 09 0a 	and	w0, w8, w9
10000b904: c0 03 5f d6 	ret
10000b908: 01 10 40 79 	ldrh	w1, [x0, #8]
10000b90c: 28 00 80 52 	mov	w8, #1
10000b910: 3f 00 04 f1 	cmp	x1, #256
10000b914: e9 27 9f 1a 	cset	w9, lo
10000b918: 00 01 09 0a 	and	w0, w8, w9
10000b91c: c0 03 5f d6 	ret
10000b920: 01 08 40 b9 	ldr	w1, [x0, #8]
10000b924: 28 00 80 52 	mov	w8, #1
10000b928: 3f 00 04 f1 	cmp	x1, #256
10000b92c: e9 27 9f 1a 	cset	w9, lo
10000b930: 00 01 09 0a 	and	w0, w8, w9
10000b934: c0 03 5f d6 	ret
10000b938: 01 04 40 f9 	ldr	x1, [x0, #8]
10000b93c: 28 fc 7f d3 	lsr	x8, x1, #63
10000b940: 08 01 00 52 	eor	w8, w8, #0x1
10000b944: 3f 00 04 f1 	cmp	x1, #256
10000b948: e9 27 9f 1a 	cset	w9, lo
10000b94c: 00 01 09 0a 	and	w0, w8, w9
10000b950: c0 03 5f d6 	ret

000000010000b954 <__ZN5gimli4read4unit32AttributeValue$LT$R$C$Offset$GT$9u16_value17h2f0aab32afd1afb1E>:
10000b954: 08 00 40 f9 	ldr	x8, [x0]
10000b958: 08 09 00 d1 	sub	x8, x8, #2
10000b95c: 1f 15 00 f1 	cmp	x8, #5
10000b960: a8 01 00 54 	b.hi	0x10000b994 <__ZN5gimli4read4unit32AttributeValue$LT$R$C$Offset$GT$9u16_value17h2f0aab32afd1afb1E+0x40>
10000b964: 09 67 14 30 	adr	x9, #167137
10000b968: 1f 20 03 d5 	nop
10000b96c: 8a 00 00 10 	adr	x10, #16
10000b970: 2b 69 68 38 	ldrb	w11, [x9, x8]
10000b974: 4a 09 0b 8b 	add	x10, x10, x11, lsl #2
10000b978: 40 01 1f d6 	br	x10
10000b97c: 01 04 40 f9 	ldr	x1, [x0, #8]
10000b980: 28 00 80 52 	mov	w8, #1
10000b984: 3f 40 40 f1 	cmp	x1, #16, lsl #12        ; =65536
10000b988: e9 27 9f 1a 	cset	w9, lo
10000b98c: 00 01 09 0a 	and	w0, w8, w9
10000b990: c0 03 5f d6 	ret
10000b994: 08 00 80 52 	mov	w8, #0
10000b998: 3f 40 40 f1 	cmp	x1, #16, lsl #12        ; =65536
10000b99c: e9 27 9f 1a 	cset	w9, lo
10000b9a0: 00 01 09 0a 	and	w0, w8, w9
10000b9a4: c0 03 5f d6 	ret
10000b9a8: 01 20 40 39 	ldrb	w1, [x0, #8]
10000b9ac: 28 00 80 52 	mov	w8, #1
10000b9b0: 3f 40 40 f1 	cmp	x1, #16, lsl #12        ; =65536
10000b9b4: e9 27 9f 1a 	cset	w9, lo
10000b9b8: 00 01 09 0a 	and	w0, w8, w9
10000b9bc: c0 03 5f d6 	ret
10000b9c0: 01 10 40 79 	ldrh	w1, [x0, #8]
10000b9c4: 28 00 80 52 	mov	w8, #1
10000b9c8: 3f 40 40 f1 	cmp	x1, #16, lsl #12        ; =65536
10000b9cc: e9 27 9f 1a 	cset	w9, lo
10000b9d0: 00 01 09 0a 	and	w0, w8, w9
10000b9d4: c0 03 5f d6 	ret
10000b9d8: 01 08 40 b9 	ldr	w1, [x0, #8]
10000b9dc: 28 00 80 52 	mov	w8, #1
10000b9e0: 3f 40 40 f1 	cmp	x1, #16, lsl #12        ; =65536
10000b9e4: e9 27 9f 1a 	cset	w9, lo
10000b9e8: 00 01 09 0a 	and	w0, w8, w9
10000b9ec: c0 03 5f d6 	ret
10000b9f0: 01 04 40 f9 	ldr	x1, [x0, #8]
10000b9f4: 28 fc 7f d3 	lsr	x8, x1, #63
10000b9f8: 08 01 00 52 	eor	w8, w8, #0x1
10000b9fc: 3f 40 40 f1 	cmp	x1, #16, lsl #12        ; =65536
10000ba00: e9 27 9f 1a 	cset	w9, lo
10000ba04: 00 01 09 0a 	and	w0, w8, w9
10000ba08: c0 03 5f d6 	ret

000000010000ba0c <__ZN5gimli4read5dwarf14Dwarf$LT$R$GT$11attr_string17h9ab6562b92b59bbfE>:
10000ba0c: ff c3 00 d1 	sub	sp, sp, #48
10000ba10: 88 00 40 f9 	ldr	x8, [x4]
10000ba14: 08 69 00 d1 	sub	x8, x8, #26
10000ba18: 1f 15 00 f1 	cmp	x8, #5
10000ba1c: 68 04 00 54 	b.hi	0x10000baa8 <__ZN5gimli4read5dwarf14Dwarf$LT$R$GT$11attr_string17h9ab6562b92b59bbfE+0x9c>
10000ba20: 49 61 14 70 	adr	x9, #166955
10000ba24: 1f 20 03 d5 	nop
10000ba28: 8a 00 00 10 	adr	x10, #16
10000ba2c: 2b 69 68 38 	ldrb	w11, [x9, x8]
10000ba30: 4a 09 0b 8b 	add	x10, x10, x11, lsl #2
10000ba34: 40 01 1f d6 	br	x10
10000ba38: 8a 04 40 f9 	ldr	x10, [x4, #8]
10000ba3c: 28 24 46 a9 	ldp	x8, x9, [x1, #96]
10000ba40: 29 01 0a eb 	subs	x9, x9, x10
10000ba44: c3 0d 00 54 	b.lo	0x10000bbfc <__ZN5gimli4read5dwarf14Dwarf$LT$R$GT$11attr_string17h9ab6562b92b59bbfE+0x1f0>
10000ba48: 08 01 0a 8b 	add	x8, x8, x10
10000ba4c: 80 0d 00 54 	b.eq	0x10000bbfc <__ZN5gimli4read5dwarf14Dwarf$LT$R$GT$11attr_string17h9ab6562b92b59bbfE+0x1f0>
10000ba50: 0a 00 80 d2 	mov	x10, #0
10000ba54: 0b 69 6a 38 	ldrb	w11, [x8, x10]
10000ba58: eb 0d 00 34 	cbz	w11, 0x10000bc14 <__ZN5gimli4read5dwarf14Dwarf$LT$R$GT$11attr_string17h9ab6562b92b59bbfE+0x208>
10000ba5c: 4a 05 00 91 	add	x10, x10, #1
10000ba60: 3f 01 0a eb 	cmp	x9, x10
10000ba64: 81 ff ff 54 	b.ne	0x10000ba54 <__ZN5gimli4read5dwarf14Dwarf$LT$R$GT$11attr_string17h9ab6562b92b59bbfE+0x48>
10000ba68: 65 00 00 14 	b	0x10000bbfc <__ZN5gimli4read5dwarf14Dwarf$LT$R$GT$11attr_string17h9ab6562b92b59bbfE+0x1f0>
10000ba6c: 29 68 40 f9 	ldr	x9, [x1, #208]
10000ba70: c9 01 00 b4 	cbz	x9, 0x10000baa8 <__ZN5gimli4read5dwarf14Dwarf$LT$R$GT$11attr_string17h9ab6562b92b59bbfE+0x9c>
10000ba74: 8a 04 40 f9 	ldr	x10, [x4, #8]
10000ba78: 28 25 47 a9 	ldp	x8, x9, [x9, #112]
10000ba7c: 29 01 0a eb 	subs	x9, x9, x10
10000ba80: e3 0b 00 54 	b.lo	0x10000bbfc <__ZN5gimli4read5dwarf14Dwarf$LT$R$GT$11attr_string17h9ab6562b92b59bbfE+0x1f0>
10000ba84: 08 01 0a 8b 	add	x8, x8, x10
10000ba88: a0 0b 00 54 	b.eq	0x10000bbfc <__ZN5gimli4read5dwarf14Dwarf$LT$R$GT$11attr_string17h9ab6562b92b59bbfE+0x1f0>
10000ba8c: 0a 00 80 d2 	mov	x10, #0
10000ba90: 0b 69 6a 38 	ldrb	w11, [x8, x10]
10000ba94: 0b 0c 00 34 	cbz	w11, 0x10000bc14 <__ZN5gimli4read5dwarf14Dwarf$LT$R$GT$11attr_string17h9ab6562b92b59bbfE+0x208>
10000ba98: 4a 05 00 91 	add	x10, x10, #1
10000ba9c: 3f 01 0a eb 	cmp	x9, x10
10000baa0: 81 ff ff 54 	b.ne	0x10000ba90 <__ZN5gimli4read5dwarf14Dwarf$LT$R$GT$11attr_string17h9ab6562b92b59bbfE+0x84>
10000baa4: 56 00 00 14 	b	0x10000bbfc <__ZN5gimli4read5dwarf14Dwarf$LT$R$GT$11attr_string17h9ab6562b92b59bbfE+0x1f0>
10000baa8: a8 08 80 52 	mov	w8, #69
10000baac: 08 20 00 39 	strb	w8, [x0, #8]
10000bab0: 56 00 00 14 	b	0x10000bc08 <__ZN5gimli4read5dwarf14Dwarf$LT$R$GT$11attr_string17h9ab6562b92b59bbfE+0x1fc>
10000bab4: 28 24 47 a9 	ldp	x8, x9, [x1, #112]
10000bab8: 29 01 03 eb 	subs	x9, x9, x3
10000babc: e3 00 00 54 	b.lo	0x10000bad8 <__ZN5gimli4read5dwarf14Dwarf$LT$R$GT$11attr_string17h9ab6562b92b59bbfE+0xcc>
10000bac0: 8a 04 40 f9 	ldr	x10, [x4, #8]
10000bac4: 08 01 03 8b 	add	x8, x8, x3
10000bac8: 4b 1c 40 92 	and	x11, x2, #0xff
10000bacc: 4a 7d 0b 9b 	mul	x10, x10, x11
10000bad0: 29 01 0a eb 	subs	x9, x9, x10
10000bad4: 62 03 00 54 	b.hs	0x10000bb40 <__ZN5gimli4read5dwarf14Dwarf$LT$R$GT$11attr_string17h9ab6562b92b59bbfE+0x134>
10000bad8: 69 02 80 52 	mov	w9, #19
10000badc: ea 0b 40 b9 	ldr	w10, [sp, #8]
10000bae0: ea 03 00 b9 	str	w10, [sp]
10000bae4: ea b3 40 b8 	ldur	w10, [sp, #11]
10000bae8: ea 33 00 b8 	stur	w10, [sp, #3]
10000baec: ea 03 40 b9 	ldr	w10, [sp]
10000baf0: 0a 90 00 b8 	stur	w10, [x0, #9]
10000baf4: ea 33 40 b8 	ldur	w10, [sp, #3]
10000baf8: 0a 0c 00 b9 	str	w10, [x0, #12]
10000bafc: 41 00 00 14 	b	0x10000bc00 <__ZN5gimli4read5dwarf14Dwarf$LT$R$GT$11attr_string17h9ab6562b92b59bbfE+0x1f4>
10000bb00: 8a 04 40 f9 	ldr	x10, [x4, #8]
10000bb04: 28 24 45 a9 	ldp	x8, x9, [x1, #80]
10000bb08: 29 01 0a eb 	subs	x9, x9, x10
10000bb0c: 83 07 00 54 	b.lo	0x10000bbfc <__ZN5gimli4read5dwarf14Dwarf$LT$R$GT$11attr_string17h9ab6562b92b59bbfE+0x1f0>
10000bb10: 08 01 0a 8b 	add	x8, x8, x10
10000bb14: 40 07 00 54 	b.eq	0x10000bbfc <__ZN5gimli4read5dwarf14Dwarf$LT$R$GT$11attr_string17h9ab6562b92b59bbfE+0x1f0>
10000bb18: 0a 00 80 d2 	mov	x10, #0
10000bb1c: 0b 69 6a 38 	ldrb	w11, [x8, x10]
10000bb20: ab 07 00 34 	cbz	w11, 0x10000bc14 <__ZN5gimli4read5dwarf14Dwarf$LT$R$GT$11attr_string17h9ab6562b92b59bbfE+0x208>
10000bb24: 4a 05 00 91 	add	x10, x10, #1
10000bb28: 3f 01 0a eb 	cmp	x9, x10
10000bb2c: 81 ff ff 54 	b.ne	0x10000bb1c <__ZN5gimli4read5dwarf14Dwarf$LT$R$GT$11attr_string17h9ab6562b92b59bbfE+0x110>
10000bb30: 33 00 00 14 	b	0x10000bbfc <__ZN5gimli4read5dwarf14Dwarf$LT$R$GT$11attr_string17h9ab6562b92b59bbfE+0x1f0>
10000bb34: 88 a4 40 a9 	ldp	x8, x9, [x4, #8]
10000bb38: 09 08 00 f9 	str	x9, [x0, #16]
10000bb3c: 37 00 00 14 	b	0x10000bc18 <__ZN5gimli4read5dwarf14Dwarf$LT$R$GT$11attr_string17h9ab6562b92b59bbfE+0x20c>
10000bb40: 08 01 0a 8b 	add	x8, x8, x10
10000bb44: 4a 1c 00 12 	and	w10, w2, #0xff
10000bb48: 5f 21 00 71 	cmp	w10, #8
10000bb4c: c1 00 00 54 	b.ne	0x10000bb64 <__ZN5gimli4read5dwarf14Dwarf$LT$R$GT$11attr_string17h9ab6562b92b59bbfE+0x158>
10000bb50: 3f 21 00 f1 	cmp	x9, #8
10000bb54: 22 01 00 54 	b.hs	0x10000bb78 <__ZN5gimli4read5dwarf14Dwarf$LT$R$GT$11attr_string17h9ab6562b92b59bbfE+0x16c>
10000bb58: 0a 00 80 d2 	mov	x10, #0
10000bb5c: 69 02 80 52 	mov	w9, #19
10000bb60: 08 00 00 14 	b	0x10000bb80 <__ZN5gimli4read5dwarf14Dwarf$LT$R$GT$11attr_string17h9ab6562b92b59bbfE+0x174>
10000bb64: 3f 11 00 f1 	cmp	x9, #4
10000bb68: a2 02 00 54 	b.hs	0x10000bbbc <__ZN5gimli4read5dwarf14Dwarf$LT$R$GT$11attr_string17h9ab6562b92b59bbfE+0x1b0>
10000bb6c: 0a 00 80 d2 	mov	x10, #0
10000bb70: 69 02 80 52 	mov	w9, #19
10000bb74: 14 00 00 14 	b	0x10000bbc4 <__ZN5gimli4read5dwarf14Dwarf$LT$R$GT$11attr_string17h9ab6562b92b59bbfE+0x1b8>
10000bb78: 0a 01 40 f9 	ldr	x10, [x8]
10000bb7c: e9 08 80 52 	mov	w9, #71
10000bb80: 29 1d 00 12 	and	w9, w9, #0xff
10000bb84: 3f 1d 01 71 	cmp	w9, #71
10000bb88: 40 02 00 54 	b.eq	0x10000bbd0 <__ZN5gimli4read5dwarf14Dwarf$LT$R$GT$11attr_string17h9ab6562b92b59bbfE+0x1c4>
10000bb8c: ff 9b 00 39 	strb	wzr, [sp, #38]
10000bb90: ff 4b 00 79 	strh	wzr, [sp, #36]
10000bb94: ff 23 00 b9 	str	wzr, [sp, #32]
10000bb98: e8 73 02 f8 	stur	x8, [sp, #39]
10000bb9c: e8 13 40 f9 	ldr	x8, [sp, #32]
10000bba0: ea 2b 40 b9 	ldr	w10, [sp, #40]
10000bba4: ea 1b 00 b9 	str	w10, [sp, #24]
10000bba8: ea b3 42 b8 	ldur	w10, [sp, #43]
10000bbac: ea b3 01 b8 	stur	w10, [sp, #27]
10000bbb0: e8 0b 00 f9 	str	x8, [sp, #16]
10000bbb4: e8 73 41 f8 	ldur	x8, [sp, #23]
10000bbb8: 1e 00 00 14 	b	0x10000bc30 <__ZN5gimli4read5dwarf14Dwarf$LT$R$GT$11attr_string17h9ab6562b92b59bbfE+0x224>
10000bbbc: 0a 01 40 b9 	ldr	w10, [x8]
10000bbc0: e9 08 80 52 	mov	w9, #71
10000bbc4: 29 1d 00 12 	and	w9, w9, #0xff
10000bbc8: 3f 1d 01 71 	cmp	w9, #71
10000bbcc: c1 02 00 54 	b.ne	0x10000bc24 <__ZN5gimli4read5dwarf14Dwarf$LT$R$GT$11attr_string17h9ab6562b92b59bbfE+0x218>
10000bbd0: 28 24 46 a9 	ldp	x8, x9, [x1, #96]
10000bbd4: 29 01 0a eb 	subs	x9, x9, x10
10000bbd8: 23 01 00 54 	b.lo	0x10000bbfc <__ZN5gimli4read5dwarf14Dwarf$LT$R$GT$11attr_string17h9ab6562b92b59bbfE+0x1f0>
10000bbdc: 08 01 0a 8b 	add	x8, x8, x10
10000bbe0: e0 00 00 54 	b.eq	0x10000bbfc <__ZN5gimli4read5dwarf14Dwarf$LT$R$GT$11attr_string17h9ab6562b92b59bbfE+0x1f0>
10000bbe4: 0a 00 80 d2 	mov	x10, #0
10000bbe8: 0b 69 6a 38 	ldrb	w11, [x8, x10]
10000bbec: 4b 01 00 34 	cbz	w11, 0x10000bc14 <__ZN5gimli4read5dwarf14Dwarf$LT$R$GT$11attr_string17h9ab6562b92b59bbfE+0x208>
10000bbf0: 4a 05 00 91 	add	x10, x10, #1
10000bbf4: 3f 01 0a eb 	cmp	x9, x10
10000bbf8: 81 ff ff 54 	b.ne	0x10000bbe8 <__ZN5gimli4read5dwarf14Dwarf$LT$R$GT$11attr_string17h9ab6562b92b59bbfE+0x1dc>
10000bbfc: 69 02 80 52 	mov	w9, #19
10000bc00: 09 20 00 39 	strb	w9, [x0, #8]
10000bc04: 08 08 00 f9 	str	x8, [x0, #16]
10000bc08: 28 00 80 52 	mov	w8, #1
10000bc0c: 08 00 00 f9 	str	x8, [x0]
10000bc10: 03 00 00 14 	b	0x10000bc1c <__ZN5gimli4read5dwarf14Dwarf$LT$R$GT$11attr_string17h9ab6562b92b59bbfE+0x210>
10000bc14: 0a 08 00 f9 	str	x10, [x0, #16]
10000bc18: 1f 20 00 a9 	stp	xzr, x8, [x0]
10000bc1c: ff c3 00 91 	add	sp, sp, #48
10000bc20: c0 03 5f d6 	ret
10000bc24: ff 13 00 b9 	str	wzr, [sp, #16]
10000bc28: ff 5b 00 39 	strb	wzr, [sp, #22]
10000bc2c: ff 2b 00 79 	strh	wzr, [sp, #20]
10000bc30: ea 13 40 b9 	ldr	w10, [sp, #16]
10000bc34: ea 0b 00 b9 	str	w10, [sp, #8]
10000bc38: ea 33 41 b8 	ldur	w10, [sp, #19]
10000bc3c: ea b3 00 b8 	stur	w10, [sp, #11]
10000bc40: a7 ff ff 17 	b	0x10000badc <__ZN5gimli4read5dwarf14Dwarf$LT$R$GT$11attr_string17h9ab6562b92b59bbfE+0xd0>

000000010000bc44 <__ZN5gimli4read6reader6Reader11read_offset17h4e36c6f1cd7b4ccbE>:
10000bc44: ff 83 00 d1 	sub	sp, sp, #32
10000bc48: 48 1c 00 12 	and	w8, w2, #0xff
10000bc4c: 1f 21 00 71 	cmp	w8, #8
10000bc50: 21 03 00 54 	b.ne	0x10000bcb4 <__ZN5gimli4read6reader6Reader11read_offset17h4e36c6f1cd7b4ccbE+0x70>
10000bc54: 28 24 40 a9 	ldp	x8, x9, [x1]
10000bc58: 29 21 00 f1 	subs	x9, x9, #8
10000bc5c: 82 04 00 54 	b.hs	0x10000bcec <__ZN5gimli4read6reader6Reader11read_offset17h4e36c6f1cd7b4ccbE+0xa8>
10000bc60: 0a 00 80 d2 	mov	x10, #0
10000bc64: 69 02 80 52 	mov	w9, #19
10000bc68: 2b 1d 00 12 	and	w11, w9, #0xff
10000bc6c: 7f 1d 01 71 	cmp	w11, #71
10000bc70: a0 04 00 54 	b.eq	0x10000bd04 <__ZN5gimli4read6reader6Reader11read_offset17h4e36c6f1cd7b4ccbE+0xc0>
10000bc74: ff 5b 00 39 	strb	wzr, [sp, #22]
10000bc78: ff 2b 00 79 	strh	wzr, [sp, #20]
10000bc7c: ff 13 00 b9 	str	wzr, [sp, #16]
10000bc80: e8 73 01 f8 	stur	x8, [sp, #23]
10000bc84: e8 0b 40 f9 	ldr	x8, [sp, #16]
10000bc88: ea 1b 40 b9 	ldr	w10, [sp, #24]
10000bc8c: ea 0b 00 b9 	str	w10, [sp, #8]
10000bc90: ea b3 41 b8 	ldur	w10, [sp, #27]
10000bc94: ea b3 00 b8 	stur	w10, [sp, #11]
10000bc98: 09 00 00 39 	strb	w9, [x0]
10000bc9c: 08 10 00 f8 	stur	x8, [x0, #1]
10000bca0: e8 0b 40 b9 	ldr	w8, [sp, #8]
10000bca4: 08 90 00 b8 	stur	w8, [x0, #9]
10000bca8: e8 03 0a 2a 	mov	w8, w10
10000bcac: 0a 0c 00 b9 	str	w10, [x0, #12]
10000bcb0: 20 00 00 14 	b	0x10000bd30 <__ZN5gimli4read6reader6Reader11read_offset17h4e36c6f1cd7b4ccbE+0xec>
10000bcb4: 28 24 40 a9 	ldp	x8, x9, [x1]
10000bcb8: 2a 11 00 f1 	subs	x10, x9, #4
10000bcbc: 82 02 00 54 	b.hs	0x10000bd0c <__ZN5gimli4read6reader6Reader11read_offset17h4e36c6f1cd7b4ccbE+0xc8>
10000bcc0: 09 00 80 d2 	mov	x9, #0
10000bcc4: 6a 02 80 52 	mov	w10, #19
10000bcc8: 4b 1d 00 12 	and	w11, w10, #0xff
10000bccc: 7f 1d 01 71 	cmp	w11, #71
10000bcd0: a0 02 00 54 	b.eq	0x10000bd24 <__ZN5gimli4read6reader6Reader11read_offset17h4e36c6f1cd7b4ccbE+0xe0>
10000bcd4: 0a 00 00 39 	strb	w10, [x0]
10000bcd8: 1f 10 00 b8 	stur	wzr, [x0, #1]
10000bcdc: 1f 1c 00 39 	strb	wzr, [x0, #7]
10000bce0: 1f 50 00 78 	sturh	wzr, [x0, #5]
10000bce4: 08 04 00 f9 	str	x8, [x0, #8]
10000bce8: 12 00 00 14 	b	0x10000bd30 <__ZN5gimli4read6reader6Reader11read_offset17h4e36c6f1cd7b4ccbE+0xec>
10000bcec: 0a 85 40 f8 	ldr	x10, [x8], #8
10000bcf0: 28 24 00 a9 	stp	x8, x9, [x1]
10000bcf4: e9 08 80 52 	mov	w9, #71
10000bcf8: 2b 1d 00 12 	and	w11, w9, #0xff
10000bcfc: 7f 1d 01 71 	cmp	w11, #71
10000bd00: a1 fb ff 54 	b.ne	0x10000bc74 <__ZN5gimli4read6reader6Reader11read_offset17h4e36c6f1cd7b4ccbE+0x30>
10000bd04: 0a 04 00 f9 	str	x10, [x0, #8]
10000bd08: 08 00 00 14 	b	0x10000bd28 <__ZN5gimli4read6reader6Reader11read_offset17h4e36c6f1cd7b4ccbE+0xe4>
10000bd0c: 09 45 40 b8 	ldr	w9, [x8], #4
10000bd10: 28 28 00 a9 	stp	x8, x10, [x1]
10000bd14: ea 08 80 52 	mov	w10, #71
10000bd18: 4b 1d 00 12 	and	w11, w10, #0xff
10000bd1c: 7f 1d 01 71 	cmp	w11, #71
10000bd20: a1 fd ff 54 	b.ne	0x10000bcd4 <__ZN5gimli4read6reader6Reader11read_offset17h4e36c6f1cd7b4ccbE+0x90>
10000bd24: 09 04 00 f9 	str	x9, [x0, #8]
10000bd28: e8 08 80 52 	mov	w8, #71
10000bd2c: 08 00 00 39 	strb	w8, [x0]
10000bd30: ff 83 00 91 	add	sp, sp, #32
10000bd34: c0 03 5f d6 	ret

000000010000bd38 <__ZN5gimli4read6reader6Reader12read_address17h67c00f8316884695E>:
10000bd38: ff 43 00 d1 	sub	sp, sp, #16
10000bd3c: 48 1c 00 12 	and	w8, w2, #0xff
10000bd40: 08 05 00 51 	sub	w8, w8, #1
10000bd44: 1f 1d 00 71 	cmp	w8, #7
10000bd48: 48 03 00 54 	b.hi	0x10000bdb0 <__ZN5gimli4read6reader6Reader12read_address17h67c00f8316884695E+0x78>
10000bd4c: 29 48 14 30 	adr	x9, #166149
10000bd50: 1f 20 03 d5 	nop
10000bd54: 8a 00 00 10 	adr	x10, #16
10000bd58: 2b 69 68 38 	ldrb	w11, [x9, x8]
10000bd5c: 4a 09 0b 8b 	add	x10, x10, x11, lsl #2
10000bd60: 40 01 1f d6 	br	x10
10000bd64: 28 28 40 a9 	ldp	x8, x10, [x1]
10000bd68: ea 0a 00 b4 	cbz	x10, 0x10000bec4 <__ZN5gimli4read6reader6Reader12read_address17h67c00f8316884695E+0x18c>
10000bd6c: 09 15 40 38 	ldrb	w9, [x8], #1
10000bd70: 4a 05 00 d1 	sub	x10, x10, #1
10000bd74: 28 28 00 a9 	stp	x8, x10, [x1]
10000bd78: ea 08 80 52 	mov	w10, #71
10000bd7c: 4b 1d 00 12 	and	w11, w10, #0xff
10000bd80: 7f 1d 01 71 	cmp	w11, #71
10000bd84: a0 0a 00 54 	b.eq	0x10000bed8 <__ZN5gimli4read6reader6Reader12read_address17h67c00f8316884695E+0x1a0>
10000bd88: 59 00 00 14 	b	0x10000beec <__ZN5gimli4read6reader6Reader12read_address17h67c00f8316884695E+0x1b4>
10000bd8c: 28 24 40 a9 	ldp	x8, x9, [x1]
10000bd90: 2a 09 00 f1 	subs	x10, x9, #2
10000bd94: 02 05 00 54 	b.hs	0x10000be34 <__ZN5gimli4read6reader6Reader12read_address17h67c00f8316884695E+0xfc>
10000bd98: 09 00 80 d2 	mov	x9, #0
10000bd9c: 6a 02 80 52 	mov	w10, #19
10000bda0: 4b 1d 00 12 	and	w11, w10, #0xff
10000bda4: 7f 1d 01 71 	cmp	w11, #71
10000bda8: 21 05 00 54 	b.ne	0x10000be4c <__ZN5gimli4read6reader6Reader12read_address17h67c00f8316884695E+0x114>
10000bdac: 4b 00 00 14 	b	0x10000bed8 <__ZN5gimli4read6reader6Reader12read_address17h67c00f8316884695E+0x1a0>
10000bdb0: e8 02 80 52 	mov	w8, #23
10000bdb4: 08 00 00 39 	strb	w8, [x0]
10000bdb8: 02 04 00 39 	strb	w2, [x0, #1]
10000bdbc: 4a 00 00 14 	b	0x10000bee4 <__ZN5gimli4read6reader6Reader12read_address17h67c00f8316884695E+0x1ac>
10000bdc0: 28 24 40 a9 	ldp	x8, x9, [x1]
10000bdc4: 2a 11 00 f1 	subs	x10, x9, #4
10000bdc8: 02 05 00 54 	b.hs	0x10000be68 <__ZN5gimli4read6reader6Reader12read_address17h67c00f8316884695E+0x130>
10000bdcc: 09 00 80 d2 	mov	x9, #0
10000bdd0: 6a 02 80 52 	mov	w10, #19
10000bdd4: 4b 1d 00 12 	and	w11, w10, #0xff
10000bdd8: 7f 1d 01 71 	cmp	w11, #71
10000bddc: 21 05 00 54 	b.ne	0x10000be80 <__ZN5gimli4read6reader6Reader12read_address17h67c00f8316884695E+0x148>
10000bde0: 3e 00 00 14 	b	0x10000bed8 <__ZN5gimli4read6reader6Reader12read_address17h67c00f8316884695E+0x1a0>
10000bde4: 28 24 40 a9 	ldp	x8, x9, [x1]
10000bde8: 29 21 00 f1 	subs	x9, x9, #8
10000bdec: c2 05 00 54 	b.hs	0x10000bea4 <__ZN5gimli4read6reader6Reader12read_address17h67c00f8316884695E+0x16c>
10000bdf0: 0a 00 80 d2 	mov	x10, #0
10000bdf4: 69 02 80 52 	mov	w9, #19
10000bdf8: 2b 1d 00 12 	and	w11, w9, #0xff
10000bdfc: 7f 1d 01 71 	cmp	w11, #71
10000be00: e0 05 00 54 	b.eq	0x10000bebc <__ZN5gimli4read6reader6Reader12read_address17h67c00f8316884695E+0x184>
10000be04: ff 1b 00 39 	strb	wzr, [sp, #6]
10000be08: ff 0b 00 79 	strh	wzr, [sp, #4]
10000be0c: ff 03 00 b9 	str	wzr, [sp]
10000be10: e8 73 00 f8 	stur	x8, [sp, #7]
10000be14: e8 03 40 f9 	ldr	x8, [sp]
10000be18: ea 0b 40 b9 	ldr	w10, [sp, #8]
10000be1c: 0a 90 00 b8 	stur	w10, [x0, #9]
10000be20: ea b3 40 b8 	ldur	w10, [sp, #11]
10000be24: 0a 0c 00 b9 	str	w10, [x0, #12]
10000be28: 09 00 00 39 	strb	w9, [x0]
10000be2c: 08 10 00 f8 	stur	x8, [x0, #1]
10000be30: 2d 00 00 14 	b	0x10000bee4 <__ZN5gimli4read6reader6Reader12read_address17h67c00f8316884695E+0x1ac>
10000be34: 09 25 40 78 	ldrh	w9, [x8], #2
10000be38: 28 28 00 a9 	stp	x8, x10, [x1]
10000be3c: ea 08 80 52 	mov	w10, #71
10000be40: 4b 1d 00 12 	and	w11, w10, #0xff
10000be44: 7f 1d 01 71 	cmp	w11, #71
10000be48: 80 04 00 54 	b.eq	0x10000bed8 <__ZN5gimli4read6reader6Reader12read_address17h67c00f8316884695E+0x1a0>
10000be4c: ff 03 00 79 	strh	wzr, [sp]
10000be50: ff 23 00 b8 	stur	wzr, [sp, #2]
10000be54: ff 1b 00 39 	strb	wzr, [sp, #6]
10000be58: 0a 00 00 39 	strb	w10, [x0]
10000be5c: e9 03 40 b9 	ldr	w9, [sp]
10000be60: 09 10 00 b8 	stur	w9, [x0, #1]
10000be64: 0c 00 00 14 	b	0x10000be94 <__ZN5gimli4read6reader6Reader12read_address17h67c00f8316884695E+0x15c>
10000be68: 09 45 40 b8 	ldr	w9, [x8], #4
10000be6c: 28 28 00 a9 	stp	x8, x10, [x1]
10000be70: ea 08 80 52 	mov	w10, #71
10000be74: 4b 1d 00 12 	and	w11, w10, #0xff
10000be78: 7f 1d 01 71 	cmp	w11, #71
10000be7c: e0 02 00 54 	b.eq	0x10000bed8 <__ZN5gimli4read6reader6Reader12read_address17h67c00f8316884695E+0x1a0>
10000be80: ff 03 00 b9 	str	wzr, [sp]
10000be84: ff 1b 00 39 	strb	wzr, [sp, #6]
10000be88: ff 0b 00 79 	strh	wzr, [sp, #4]
10000be8c: 0a 00 00 39 	strb	w10, [x0]
10000be90: 1f 10 00 b8 	stur	wzr, [x0, #1]
10000be94: e9 33 40 b8 	ldur	w9, [sp, #3]
10000be98: 09 04 00 b9 	str	w9, [x0, #4]
10000be9c: 08 04 00 f9 	str	x8, [x0, #8]
10000bea0: 11 00 00 14 	b	0x10000bee4 <__ZN5gimli4read6reader6Reader12read_address17h67c00f8316884695E+0x1ac>
10000bea4: 0a 85 40 f8 	ldr	x10, [x8], #8
10000bea8: 28 24 00 a9 	stp	x8, x9, [x1]
10000beac: e9 08 80 52 	mov	w9, #71
10000beb0: 2b 1d 00 12 	and	w11, w9, #0xff
10000beb4: 7f 1d 01 71 	cmp	w11, #71
10000beb8: 61 fa ff 54 	b.ne	0x10000be04 <__ZN5gimli4read6reader6Reader12read_address17h67c00f8316884695E+0xcc>
10000bebc: 0a 04 00 f9 	str	x10, [x0, #8]
10000bec0: 07 00 00 14 	b	0x10000bedc <__ZN5gimli4read6reader6Reader12read_address17h67c00f8316884695E+0x1a4>
10000bec4: 09 00 80 d2 	mov	x9, #0
10000bec8: 6a 02 80 52 	mov	w10, #19
10000becc: 4b 1d 00 12 	and	w11, w10, #0xff
10000bed0: 7f 1d 01 71 	cmp	w11, #71
10000bed4: c1 00 00 54 	b.ne	0x10000beec <__ZN5gimli4read6reader6Reader12read_address17h67c00f8316884695E+0x1b4>
10000bed8: 09 04 00 f9 	str	x9, [x0, #8]
10000bedc: e8 08 80 52 	mov	w8, #71
10000bee0: 08 00 00 39 	strb	w8, [x0]
10000bee4: ff 43 00 91 	add	sp, sp, #16
10000bee8: c0 03 5f d6 	ret
10000beec: 0a 00 00 39 	strb	w10, [x0]
10000bef0: 1f 04 00 39 	strb	wzr, [x0, #1]
10000bef4: 1f 0c 00 79 	strh	wzr, [x0, #6]
10000bef8: 1f 20 00 b8 	stur	wzr, [x0, #2]
10000befc: 08 04 00 f9 	str	x8, [x0, #8]
10000bf00: f9 ff ff 17 	b	0x10000bee4 <__ZN5gimli4read6reader6Reader12read_address17h67c00f8316884695E+0x1ac>

000000010000bf04 <__ZN5gimli4read6reader6Reader12read_sleb12817hbafcecc37c33e649E>:
10000bf04: 29 28 40 a9 	ldp	x9, x10, [x1]
10000bf08: 8a 09 00 b4 	cbz	x10, 0x10000c038 <__ZN5gimli4read6reader6Reader12read_sleb12817hbafcecc37c33e649E+0x134>
10000bf0c: ec 03 09 aa 	mov	x12, x9
10000bf10: 8b 15 40 38 	ldrb	w11, [x12], #1
10000bf14: 4d 05 00 d1 	sub	x13, x10, #1
10000bf18: 2c 34 00 a9 	stp	x12, x13, [x1]
10000bf1c: 68 19 40 92 	and	x8, x11, #0x7f
10000bf20: ab 01 38 37 	tbnz	w11, #7, 0x10000bf54 <__ZN5gimli4read6reader6Reader12read_sleb12817hbafcecc37c33e649E+0x50>
10000bf24: 29 00 80 52 	mov	w9, #1
10000bf28: ea 00 80 52 	mov	w10, #7
10000bf2c: 6b 01 1a 12 	and	w11, w11, #0x40
10000bf30: 0c 00 80 92 	mov	x12, #-1
10000bf34: 8a 21 ca 9a 	lsl	x10, x12, x10
10000bf38: 3f 19 4b 6a 	tst	w9, w11, lsr #6
10000bf3c: 49 11 9f 9a 	csel	x9, x10, xzr, ne
10000bf40: 28 01 08 aa 	orr	x8, x9, x8
